
 Start Length Name Class
 0001:00000000 00000000CH _TEXT                  CODE


Detailed map of segments
 0001:0000101C 0000000C C=CODE    S=_TEXT    G=(none)   M=elpackB6.cpp ACBP=A9
 0001:0008DB78 000003D4 C=CODE    S=_TEXT    G=(none)   M=ElStack.pas ACBP=A9
 0001:001379D0 00000274 C=CODE    S=_TEXT    G=(none)   M=ElColor.pas ACBP=A9
 0001:0016C9F4 0000CA3C C=CODE    S=_TEXT    G=(none)   M=ElEdits.pas ACBP=A9

  Address         Publics by Value

 0001:00000812       Sysinit._GetTls
 0001:00000868       Windows.MakeLong
 0001:00000874       Windows.HiWord
 0001:00000878       Windows.MoveMemory
 0001:00000880       Windows.FillMemory
 0001:0000088C       Windows.ZeroMemory
 0001:00000894       Windows.Succeeded
 0001:000008A4       Windows.RGB
 0001:000008C0       Windows.GetRValue
 0001:000008C4       Windows.GetGValue
 0001:000008C8       Windows.GetBValue
 0001:000008CC       Windows.SmallPointToPoint
 0001:000008E0       Windows.MakeLParam
 0001:000008E8       Windows.Finalization
 0001:00000918       Windows.initialization
 0001:00000920       Messages.Finalization
 0001:00000950       Messages.initialization
 0001:00000958       Winsock.Finalization
 0001:00000988       Winsock.initialization
 0001:00000990       Commctrl.ImageList_AddIcon
 0001:0000099C       Commctrl.Finalization
 0001:000009CC       Commctrl.initialization
 0001:000009D4       Shellapi.Finalization
 0001:00000A04       Shellapi.initialization
 0001:00000A0C       Regstr.Finalization
 0001:00000A3C       Regstr.initialization
 0001:00000A44       Wininet.Finalization
 0001:00000A74       Wininet.initialization
 0001:00000A7C       Urlmon.Finalization
 0001:00000AAC       Urlmon.initialization
 0001:00000D48       Shlobj.Finalization
 0001:00000D78       Shlobj.initialization
 0001:00000D80       Commdlg.Finalization
 0001:00000DB0       Commdlg.initialization
 0001:00000DB8       Dlgs.Finalization
 0001:00000DE8       Dlgs.initialization
 0001:00000DF0       Imm.Finalization
 0001:00000E20       Imm.initialization
 0001:00000E28       Mmsystem.Finalization
 0001:00000E58       Mmsystem.initialization
 0001:00000E60       Richedit.Finalization
 0001:00000E90       Richedit.initialization
 0001:00000E98       Winspool.Finalization
 0001:00000EC8       Winspool.initialization
 0001:00000ED0       SysInit._16395
 0001:00000EDC       SysInit._16396
 0001:00000F00       Sysinit.VclInit
 0001:00000F9C       Sysinit.VclExit
 0001:00000FCC       Sysinit._PackageLoad
 0001:00000FD8       Sysinit._PackageUnload
 0001:00000FE4       Sysinit.Finalization
 0001:00001014       Sysinit.initialization
 0001:0000101C       DllEntryPoint
 0001:00001048       Frmhdrstp.TfrmHeaderSetup
 0001:000013B0       Frmhdrstp.TfrmHeaderSetup.LoadHeaderSections
 0001:00001604       Frmhdrstp.TfrmHeaderSetup.UpdateButtons
 0001:00001728       Frmhdrstp.TfrmHeaderSetup.FormShow
 0001:00001740       Frmhdrstp.TfrmHeaderSetup.lbxVisibleEnter
 0001:00001794       Frmhdrstp.TfrmHeaderSetup.lbxAvailableEnter
 0001:000017E8       Frmhdrstp.TfrmHeaderSetup.btnAddClick
 0001:00001948       Frmhdrstp.TfrmHeaderSetup.btnDeleteClick
 0001:00001AA8       Frmhdrstp.TfrmHeaderSetup.btnUpClick
 0001:00001B24       Frmhdrstp.TfrmHeaderSetup.btnDownClick
 0001:00001BCC       Frmhdrstp.TfrmHeaderSetup.lbxVisibleMouseDown
 0001:00001BFC       Frmhdrstp.TfrmHeaderSetup.lbxVisibleDragOver
 0001:00001C34       Frmhdrstp.TfrmHeaderSetup.lbxVisibleDragDrop
 0001:00001E58       Frmhdrstp.TfrmHeaderSetup.lbxAvailableDragOver
 0001:00001E80       Frmhdrstp.TfrmHeaderSetup.lbxAvailableMouseDown
 0001:00001EB0       Frmhdrstp.TfrmHeaderSetup.lbxAvailableDragDrop
 0001:00002010       Frmhdrstp.TfrmHeaderSetup.SaveHeaderSections
 0001:000020E8       Frmhdrstp.Finalization
 0001:00002118       Frmhdrstp.initialization
 0001:000023F0       Elactrls.TElAdvancedMemo
 0001:000028B0       Elactrls.TCustomElAdvancedEdit
 0001:00002BC8       Elactrls.TElAdvancedEdit
 0001:000035E4       Elactrls.TElAdvancedListBox
 0001:00003B40       Elactrls.TElAdvancedComboBox
 0001:00003D4C       ElACtrls._16394
 0001:00003E6C       ElACtrls._16395
 0001:00003E98       ElACtrls._16396
 0001:00003FD4       ElACtrls._16397
 0001:00004004       Elactrls.TCustomElAdvancedEdit.BackgroundChanged
 0001:00004030       Elactrls.TCustomElAdvancedEdit.Change
 0001:00004050       Elactrls.TCustomElAdvancedEdit.CMMouseEnter
 0001:000040F4       Elactrls.TCustomElAdvancedEdit.CMMouseLeave
 0001:00004198       Elactrls.TCustomElAdvancedEdit.CMParentColorChanged
 0001:0000420C       Elactrls.TCustomElAdvancedEdit.CNCtlColorEdit
 0001:00004284       Elactrls.TCustomElAdvancedEdit.CNCtlColorStatic
 0001:000042FC       Elactrls.TCustomElAdvancedEdit
 0001:0000441C       Elactrls.TCustomElAdvancedEdit.CreateParams
 0001:00004458       Elactrls.TCustomElAdvancedEdit
 0001:000044B4       Elactrls.TCustomElAdvancedEdit.DoMouseEnter
 0001:000044E0       Elactrls.TCustomElAdvancedEdit.DoMouseLeave
 0001:0000450C       Elactrls.TCustomElAdvancedEdit.WMGetDlgCode
 0001:00004570       Elactrls.TCustomElAdvancedEdit.Notification
 0001:000045B8       Elactrls.TCustomElAdvancedEdit.DoPaint
 0001:00004810       Elactrls.TCustomElAdvancedEdit.DrawBackground
 0001:000048D8       Elactrls.TCustomElAdvancedEdit.DrawFlatBorder
 0001:00004A60       Elactrls.TCustomElAdvancedEdit.DrawParentControl
 0001:00004B24       Elactrls.TCustomElAdvancedEdit.KeyDown
 0001:00004B90       Elactrls.TCustomElAdvancedEdit.KeyPress
 0001:00004BD8       Elactrls.TCustomElAdvancedEdit.ImageFormChange
 0001:00004BF0       Elactrls.TCustomElAdvancedEdit.SetImageForm
 0001:00004CAC       Elactrls.TCustomElAdvancedEdit.SetActiveBorderType
 0001:00004D0C       Elactrls.TCustomElAdvancedEdit.SetAlignment
 0001:00004D40       Elactrls.TCustomElAdvancedEdit.SetBackground
 0001:00004D64       Elactrls.TCustomElAdvancedEdit.SetFlat
 0001:00004DAC       Elactrls.TCustomElAdvancedEdit.SetInactiveBorderType
 0001:00004E0C       Elactrls.TCustomElAdvancedEdit.SetTransparent
 0001:00004E50       Elactrls.TCustomElAdvancedEdit.SetUseBackground
 0001:00004E94       Elactrls.TCustomElAdvancedEdit.WMEraseBkgnd
 0001:00005014       Elactrls.TCustomElAdvancedEdit.WMKillFocus
 0001:0000506C       Elactrls.TCustomElAdvancedEdit.WMMove
 0001:00005090       Elactrls.TCustomElAdvancedEdit.WMPaint
 0001:00005144       Elactrls.TCustomElAdvancedEdit.WMSetFocus
 0001:000051AC       Elactrls.TCustomElAdvancedEdit.SetBorderSides
 0001:000051EC       Elactrls.TCustomElAdvancedEdit.WMNCCalcSize
 0001:00005284       Elactrls.TCustomElAdvancedEdit.SetPasswordChar
 0001:000052E0       Elactrls.TCustomElAdvancedEdit.IFMRepaintChildren
 0001:00005310       Elactrls.TCustomElAdvancedEdit.WMWindowPosChanged
 0001:0000533C       Elactrls.TCustomElAdvancedEdit.WMNCPaint
 0001:00005470       Elactrls.TCustomElAdvancedEdit.SetUseXPThemes
 0001:000054B4       Elactrls.TCustomElAdvancedEdit.IsThemeApplied
 0001:000054E8       Elactrls.TCustomElAdvancedEdit.CreateThemeHandle
 0001:00005578       Elactrls.TCustomElAdvancedEdit.FreeThemeHandle
 0001:000055AC       Elactrls.TCustomElAdvancedEdit.CreateWnd
 0001:000055E4       Elactrls.TCustomElAdvancedEdit.DestroyWnd
 0001:0000561C       Elactrls.TCustomElAdvancedEdit.GetThemedClassName
 0001:0000564C       Elactrls.TCustomElAdvancedEdit.WMThemeChanged
 0001:000056C4       Elactrls.TCustomElAdvancedEdit.SetLineBorderActiveColor
 0001:00005720       Elactrls.TCustomElAdvancedEdit.SetLineBorderInactiveColor
 0001:0000577C       Elactrls.TCustomElAdvancedEdit.CMEnabledChanged
 0001:000057AC       Elactrls.TCustomElAdvancedEdit.WMPaste
 0001:000058AC       Elactrls.TCustomElAdvancedEdit.CMHintShow
 0001:00005A54       Elactrls.TCustomElAdvancedEdit.SetHint
 0001:00005B8C       Elactrls.TElAdvancedListBox.BackgroundChanged
 0001:00005BA4       Elactrls.TElAdvancedListBox.CMFontChanged
 0001:00005C14       Elactrls.TElAdvancedListBox.CMMouseEnter
 0001:00005CBC       Elactrls.TElAdvancedListBox.CMMouseLeave
 0001:00005D64       Elactrls.TElAdvancedListBox.CMParentColorChanged
 0001:00005D94       Elactrls.TElAdvancedListBox.CMParentFontChanged
 0001:00005E4C       Elactrls.TElAdvancedListBox
 0001:00005FA8       Elactrls.TElAdvancedListBox.CreateParams
 0001:00006028       Elactrls.TElAdvancedListBox.CreateWnd
 0001:0000607C       Elactrls.TElAdvancedListBox.DestroyWnd
 0001:000060B4       Elactrls.TElAdvancedListBox.GetThemedClassName
 0001:000060E4       Elactrls.TElAdvancedListBox
 0001:0000614C       Elactrls.TElAdvancedListBox.DrawBackground
 0001:0000621C       Elactrls.TElAdvancedListBox.DrawBackgroundEx
 0001:000062D4       Elactrls.TElAdvancedListBox.DrawFlatBorder
 0001:000065B0       Elactrls.TElAdvancedListBox.GetParentCtlWidth
 0001:000065DC       Elactrls.TElAdvancedListBox.GetParentCtlHeight
 0001:00006608       Elactrls.TElAdvancedListBox.RealScreenToClient
 0001:00006644       Elactrls.TElAdvancedListBox.DrawItem
 0001:00006AE8       Elactrls.TElAdvancedListBox.DrawParentControl
 0001:00006BAC       Elactrls.TElAdvancedListBox.DrawParentControlEx
 0001:00006C58       Elactrls.TElAdvancedListBox.GetBackground
 0001:00006C74       Elactrls.TElAdvancedListBox.LBGetTopIndex
 0001:00006CF0       Elactrls.TElAdvancedListBox.Notification
 0001:00006D38       Elactrls.TElAdvancedListBox.Loaded
 0001:00006D54       Elactrls.TElAdvancedListBox.SelectedFontChanged
 0001:00006D70       Elactrls.TElAdvancedListBox.ImageFormChange
 0001:00006D88       Elactrls.TElAdvancedListBox.SetImageForm
 0001:00006E38       Elactrls.TElAdvancedListBox.SetActiveBorderType
 0001:00006E90       Elactrls.TElAdvancedListBox.SetBackground
 0001:00006EB4       Elactrls.TElAdvancedListBox.SetFlat
 0001:00006EE8       Elactrls.TElAdvancedListBox.SetFlatFocusedScrollBars
 0001:00006F34       Elactrls.TElAdvancedListBox.SetInactiveBorderType
 0001:00006F8C       Elactrls.TElAdvancedListBox.SetInvertSelection
 0001:00006FE8       Elactrls.TElAdvancedListBox.SetSelectedColor
 0001:00007044       Elactrls.TElAdvancedListBox.SetSelectedFont
 0001:00007068       Elactrls.TElAdvancedListBox.SetTransparent
 0001:000070AC       Elactrls.TElAdvancedListBox.SetUseBackground
 0001:000070E0       Elactrls.TElAdvancedListBox.WMEraseBkgnd
 0001:00007238       Elactrls.TElAdvancedListBox.WMKillFocus
 0001:00007288       Elactrls.TElAdvancedListBox.WMPaint
 0001:00007538       Elactrls.TElAdvancedListBox.WMSetFocus
 0001:0000757C       Elactrls.TElAdvancedListBox.WMVScroll
 0001:00007614       Elactrls.TElAdvancedListBox.WMHScroll
 0001:000076AC       Elactrls.TElAdvancedListBox.WMNCMouseMove
 0001:00007734       Elactrls.TElAdvancedListBox.WMMouseMove
 0001:000077D0       Elactrls.TElAdvancedListBox.CMHintShow
 0001:00007978       Elactrls.TElAdvancedListBox.HintWndProc
 0001:000079D4       Elactrls.TElAdvancedListBox.OnLineHintTimer
 0001:00007C78       Elactrls.TElAdvancedListBox.CancelLineHint
 0001:00007CC4       Elactrls.TElAdvancedListBox.IntMouseMove
 0001:00007E04       Elactrls.TElAdvancedListBox.SetTransparentSelection
 0001:00007E44       Elactrls.TElAdvancedListBox.SetBorderSides
 0001:00007E84       Elactrls.TElAdvancedListBox.WMNCCalcSize
 0001:00007FC8       Elactrls.TElAdvancedListBox.SetStyle
 0001:0000800C       Elactrls.TElAdvancedListBox.WndProc
 0001:00008160       Elactrls.TElAdvancedListBox.SetHorizontalScroll
 0001:000081A0       Elactrls.TElAdvancedListBox.GetItemWidth
 0001:000082B4       Elactrls.TElAdvancedListBox.ResetHorizontalExtent
 0001:00008324       Elactrls.TElAdvancedListBox.SetHorizontalExtent
 0001:00008350       Elactrls.TElAdvancedListBox.CreateHintWindow
 0001:00008374       Elactrls.TElAdvancedListBox.IFMRepaintChildren
 0001:000083FC       Elactrls.TElAdvancedListBox.WMWindowPosChanged
 0001:00008428       Elactrls.TElAdvancedListBox.WMNCPaint
 0001:00008584       Elactrls.TElAdvancedListBox.SetUseXPThemes
 0001:000085C8       Elactrls.TElAdvancedListBox.IsThemeApplied
 0001:000085FC       Elactrls.TElAdvancedListBox.CreateThemeHandle
 0001:0000868C       Elactrls.TElAdvancedListBox.FreeThemeHandle
 0001:000086C0       Elactrls.TElAdvancedListBox.WMThemeChanged
 0001:00008738       Elactrls.TElAdvancedListBox.SetLineBorderActiveColor
 0001:00008794       Elactrls.TElAdvancedListBox.SetLineBorderInactiveColor
 0001:000087F0       Elactrls.TElAdvancedListBox.SetHint
 0001:00008928       Elactrls.TElAdvancedMemo.CMHintShow
 0001:00008AD0       Elactrls.TElAdvancedMemo.BackgroundChanged
 0001:00008AFC       Elactrls.TElAdvancedMemo.Change
 0001:00008B1C       Elactrls.TElAdvancedMemo.CMMouseEnter
 0001:00008BD8       Elactrls.TElAdvancedMemo.CMMouseLeave
 0001:00008C94       Elactrls.TElAdvancedMemo.CMParentColorChanged
 0001:00008D08       Elactrls.TElAdvancedMemo.CNCtlColorEdit
 0001:00008D80       Elactrls.TElAdvancedMemo.CNCtlColorStatic
 0001:00008DF8       Elactrls.TElAdvancedMemo
 0001:00008F0C       Elactrls.TElAdvancedMemo
 0001:00008F64       Elactrls.TElAdvancedMemo.DoMouseEnter
 0001:00008F90       Elactrls.TElAdvancedMemo.DoMouseLeave
 0001:00008FBC       Elactrls.TElAdvancedMemo.DoPaint
 0001:000091F0       Elactrls.TElAdvancedMemo.DrawBackground
 0001:000092B8       Elactrls.TElAdvancedMemo.DrawFlatBorder
 0001:0000958C       Elactrls.TElAdvancedMemo.DrawParentControl
 0001:00009650       Elactrls.TElAdvancedMemo.WMGetDlgCode
 0001:000096D8       Elactrls.TElAdvancedMemo.Notification
 0001:00009720       Elactrls.TElAdvancedMemo.SetActiveBorderType
 0001:00009774       Elactrls.TElAdvancedMemo.ImageFormChange
 0001:00009798       Elactrls.TElAdvancedMemo.SetImageForm
 0001:00009848       Elactrls.TElAdvancedMemo.SetBackground
 0001:0000986C       Elactrls.TElAdvancedMemo.SetFlat
 0001:000098A0       Elactrls.TElAdvancedMemo.SetFlatFocusedScrollBars
 0001:000098E8       Elactrls.TElAdvancedMemo.SetInactiveBorderType
 0001:0000993C       Elactrls.TElAdvancedMemo.SetTransparent
 0001:00009980       Elactrls.TElAdvancedMemo.SetUseBackground
 0001:000099C4       Elactrls.TElAdvancedMemo.WMEraseBkgnd
 0001:00009B44       Elactrls.TElAdvancedMemo.WMKillFocus
 0001:00009B90       Elactrls.TElAdvancedMemo.WMMove
 0001:00009BB4       Elactrls.TElAdvancedMemo.WMPaint
 0001:00009C68       Elactrls.TElAdvancedMemo.WMSetFocus
 0001:00009CB4       Elactrls.TElAdvancedMemo.WMKeyDown
 0001:00009D14       Elactrls.TElAdvancedMemo.SetBorderSides
 0001:00009D54       Elactrls.TElAdvancedMemo.WMNCCalcSize
 0001:00009E98       Elactrls.TElAdvancedMemo.IFMRepaintChildren
 0001:00009F20       Elactrls.TElAdvancedMemo.WMWindowPosChanged
 0001:00009F4C       Elactrls.TElAdvancedMemo.WMNCPaint
 0001:0000A0A8       Elactrls.TElAdvancedMemo.SetUseXPThemes
 0001:0000A0EC       Elactrls.TElAdvancedMemo.IsThemeApplied
 0001:0000A120       Elactrls.TElAdvancedMemo.CreateThemeHandle
 0001:0000A1B0       Elactrls.TElAdvancedMemo.FreeThemeHandle
 0001:0000A1E4       Elactrls.TElAdvancedMemo.CreateWnd
 0001:0000A21C       Elactrls.TElAdvancedMemo.DestroyWnd
 0001:0000A254       Elactrls.TElAdvancedMemo.GetThemedClassName
 0001:0000A284       Elactrls.TElAdvancedMemo.WMThemeChanged
 0001:0000A2FC       Elactrls.TElAdvancedMemo.SetLineBorderActiveColor
 0001:0000A358       Elactrls.TElAdvancedMemo.SetLineBorderInactiveColor
 0001:0000A3B4       Elactrls.TElAdvancedComboBox.CMEnter
 0001:0000A3D8       Elactrls.TElAdvancedComboBox.CMExit
 0001:0000A3FC       Elactrls.TElAdvancedComboBox.CMMouseEnter
 0001:0000A498       Elactrls.TElAdvancedComboBox.CMMouseLeave
 0001:0000A534       Elactrls.TElAdvancedComboBox.CNCommand
 0001:0000A594       Elactrls.TElAdvancedComboBox
 0001:0000A698       Elactrls.TElAdvancedComboBox.Notification
 0001:0000A6E0       Elactrls.TElAdvancedComboBox.ImageFormChange
 0001:0000A6F8       Elactrls.TElAdvancedComboBox.CreateParams
 0001:0000A740       Elactrls.TElAdvancedComboBox
 0001:0000A7B4       Elactrls.TElAdvancedComboBox.DrawFlatBorder
 0001:0000AC88       Elactrls.TElAdvancedComboBox.IsFocused
 0001:0000ACF0       Elactrls.TElAdvancedComboBox.SetActiveBorderType
 0001:0000AD4C       Elactrls.TElAdvancedComboBox.SetFlat
 0001:0000AD80       Elactrls.TElAdvancedComboBox.SetInactiveBorderType
 0001:0000ADDC       Elactrls.TElAdvancedComboBox.UpdateFrame
 0001:0000AE28       Elactrls.TElAdvancedComboBox.WMEraseBkgnd
 0001:0000AE44       Elactrls.TElAdvancedComboBox.WMKillFocus
 0001:0000AE80       Elactrls.TElAdvancedComboBox.WMNCPaint
 0001:0000AEBC       Elactrls.TElAdvancedComboBox.WMPaint
 0001:0000AEE4       Elactrls.TElAdvancedComboBox.WMSetFocus
 0001:0000AF08       Elactrls.TElAdvancedComboBox.WMSize
 0001:0000AF38       ElACtrls._16601
 0001:0000B018       Elactrls.TElAdvancedComboBox.ListWndProc
 0001:0000B4BC       Elactrls.TElAdvancedComboBox.EditWndProc
 0001:0000B68C       Elactrls.TElAdvancedComboBox.WndProc
 0001:0000B910       Elactrls.TElAdvancedComboBox.WMThemeChanged
 0001:0000B934       Elactrls.TElAdvancedComboBox.SetHorizontalScroll
 0001:0000B974       Elactrls.TElAdvancedComboBox.GetItemWidth
 0001:0000BA08       Elactrls.TElAdvancedComboBox.SetHorizontalExtent
 0001:0000BA54       Elactrls.TElAdvancedComboBox.ResetHorizontalExtent
 0001:0000BAC4       Elactrls.TElAdvancedComboBox.IFMRepaintChildren
 0001:0000BAF4       Elactrls.TElAdvancedComboBox.WMWindowPosChanged
 0001:0000BB20       Elactrls.TElAdvancedComboBox.SetUseXPThemes
 0001:0000BB64       Elactrls.TElAdvancedComboBox.IsThemeApplied
 0001:0000BB98       Elactrls.TElAdvancedComboBox.CreateThemeHandle
 0001:0000BC28       Elactrls.TElAdvancedComboBox.FreeThemeHandle
 0001:0000BC5C       Elactrls.TElAdvancedComboBox.CreateWnd
 0001:0000BC94       Elactrls.TElAdvancedComboBox.DestroyWnd
 0001:0000BCCC       Elactrls.TElAdvancedComboBox.GetThemedClassName
 0001:0000BCFC       Elactrls.TElAdvancedComboBox.SetBtnThinFrame
 0001:0000BD30       Elactrls.TElAdvancedComboBox.SetBtnFlat
 0001:0000BD64       Elactrls.TElAdvancedComboBox.SetBtnTransparent
 0001:0000BD98       Elactrls.TElAdvancedComboBox.SetLineBorderActiveColor
 0001:0000BDF4       Elactrls.TElAdvancedComboBox.SetLineBorderInactiveColor
 0001:0000BE50       Elactrls.TElAdvancedComboBox.CMHintShow
 0001:0000BFF8       Elactrls.TElAdvancedComboBox.SetHint
 0001:0000C130       Elactrls.TElAdvancedComboBox.CMEnabledChanged
 0001:0000C154       Elactrls.TElAdvancedComboBox.KeyDown
 0001:0000C1C0       Elactrls.TElAdvancedComboBox.DoAutoComplete
 0001:0000C2F4       Elactrls.TElAdvancedComboBox.WMGetDlgCode
 0001:0000C324       Elactrls.TElAdvancedMemo.CreateParams
 0001:0000C384       Elactrls.TElAdvancedMemo.CMEnabledChanged
 0001:0000C3B4       Elactrls.TElAdvancedMemo.SetHint
 0001:0000C4EC       Elactrls.Finalization
 0001:0000C51C       Elactrls.initialization
 0001:0000C70C       Elappbar.TElAppBar
 0001:0000CADC       Elappbar.TElAppBar.AppBarMessage
 0001:0000CB74       Elappbar.TElAppBar.AppBarMessage1
 0001:0000CBA0       Elappbar.TElAppBar.AppBarMessage2
 0001:0000CBD0       Elappbar.TElAppBar.AppBarMessage3
 0001:0000CC04       Elappbar.TElAppBar.AppBarMessage4
 0001:0000CC38       Elappbar.TElAppBar.CalcProposedState
 0001:0000CC94       Elappbar.TElAppBar.GetRect
 0001:0000CF28       Elappbar.TElAppBar.AdjustLocationForAutohide
 0001:0000D178       Elappbar.TElAppBar.ShowHiddenAppBar
 0001:0000D1D0       Elappbar.TElAppBar.SlideWindow
 0001:0000D3A0       Elappbar.TElAppBar.GetAutohideEdge
 0001:0000D438       Elappbar.TElAppBar.GetMessagePosition
 0001:0000D470       Elappbar.TElAppBar.GetEdge
 0001:0000D4A8       Elappbar.TElAppBar.SetEdge
 0001:0000D7B8       Elappbar.TElAppBar.IsAutoHide
 0001:0000D7D4       Elappbar.TElAppBar.SetAutoHide
 0001:0000D804       Elappbar.TElAppBar.IsAlwaysOnTop
 0001:0000D820       Elappbar.TElAppBar.SetAlwaysOnTop
 0001:0000D850       Elappbar.TElAppBar.GetFloatRect
 0001:0000D878       Elappbar.TElAppBar.SetFloatRect
 0001:0000D8A4       Elappbar.TElAppBar.GetDockDims
 0001:0000D8CC       Elappbar.TElAppBar.SetDockDims
 0001:0000D8F8       Elappbar.TElAppBar.SetFlags
 0001:0000DA40       Elappbar.TElAppBar.OnAppBarForcedToDocked
 0001:0000DAE4       Elappbar.TElAppBar.OnABNFullScreenApp
 0001:0000DB08       Elappbar.TElAppBar.OnABNPosChanged
 0001:0000DB34       Elappbar.TElAppBar.OnABNWindowArrange
 0001:0000DB44       Elappbar.TElAppBar.OnAppBarCallbackMsg
 0001:0000DBA0       Elappbar.TElAppBar.WmCreate
 0001:0000DCA4       Elappbar.TElAppBar.WmDestroy
 0001:0000DCE8       Elappbar.TElAppBar.OnWindowPosChanged
 0001:0000DD60       Elappbar.TElAppBar.OnActivate
 0001:0000DD9C       Elappbar.TElAppBar.OnAppBarTimer
 0001:0000DE38       Elappbar.TElAppBar.OnNcMouseMove
 0001:0000DE60       Elappbar.TElAppBar.OnNcHitTest
 0001:0000E294       Elappbar.TElAppBar.OnEnterSizeMove
 0001:0000E2E4       Elappbar.TElAppBar.OnExitSizeMove
 0001:0000E5CC       Elappbar.TElAppBar.OnMoving
 0001:0000E728       Elappbar.TElAppBar.OnSizing
 0001:0000E944       Elappbar.TElAppBar.OnGetMinMaxInfo
 0001:0000EA48       Elappbar.TElAppBar.IsEdgeLeftOrRight
 0001:0000EA70       Elappbar.TElAppBar.IsEdgeTopOrBottom
 0001:0000EA98       Elappbar.TElAppBar.IsFloating
 0001:0000EAB4       Elappbar.TElAppBar.IsDockable
 0001:0000EAE4       Elappbar.TElAppBar.IsDockableVertically
 0001:0000EB14       Elappbar.TElAppBar.IsDockableHorizontally
 0001:0000EB44       Elappbar.TElAppBar.ResetSystemKnowledge
 0001:0000EB50       Elappbar.TElAppBar.GetEdgeFromPoint
 0001:0000ECC0       Elappbar.TElAppBar
 0001:0000EE3C       Elappbar.TElAppBar
 0001:0000EE78       Elappbar.TElAppBar.UpdateBar
 0001:0000EE94       Elappbar.TElAppBar.SetSlideTime
 0001:0000EEC4       Elappbar.TElAppBar.SetKeepSize
 0001:0000EF10       Elappbar.TElAppBar.SetPreventOffScreen
 0001:0000EF44       Elappbar.TElAppBar.SetHorzInc
 0001:0000EF60       Elappbar.TElAppBar.SetVertInc
 0001:0000EF7C       Elappbar.TElAppBar.GetVertInc
 0001:0000EF98       Elappbar.TElAppBar.GetHorzInc
 0001:0000EFB4       Elappbar.TElAppBar.DoEdgeChanged
 0001:0000EFE0       Elappbar.TElAppBar.CreateParams
 0001:0000F048       Elappbar.TElAppBar.OnMouseMove
 0001:0000F070       Elappbar.Finalization
 0001:0000F0A0       Elappbar.initialization
 0001:0000F0E4       Elarray.TElArray
 0001:0000F174       ElArray._16388
 0001:0000F1D0       ElArray._16389
 0001:0000F1F8       ElArray._16390
 0001:0000F200       ElArray._16392
 0001:0000F270       ElArray._16393
 0001:0000F278       Elarray.TElArray.Error
 0001:0000F2B8       Elarray.TElArray
 0001:0000F324       Elarray.TElArray
 0001:0000F360       Elarray.TElArray.Add
 0001:0000F3A4       Elarray.TElArray.Assign
 0001:0000F3F0       Elarray.TElArray.Clear
 0001:0000F4CC       Elarray.TElArray.Delete
 0001:0000F58C       Elarray.TElArray.Exchange
 0001:0000F620       Elarray.TElArray.Expand
 0001:0000F64C       Elarray.TElArray.First
 0001:0000F668       Elarray.TElArray.Get
 0001:0000F6AC       Elarray.TElArray.Grow
 0001:0000F704       Elarray.TElArray.IndexOfFrom
 0001:0000F778       Elarray.TElArray.IndexOfBack
 0001:0000F7D8       Elarray.TElArray.IndexOf
 0001:0000F824       Elarray.TElArray.Insert
 0001:0000F8B4       Elarray.TElArray.Last
 0001:0000F8D8       Elarray.TElArray.MoveRange
 0001:0000FA70       Elarray.TElArray.Move
 0001:0000FAD8       Elarray.TElArray.Put
 0001:0000FB88       Elarray.TElArray.Remove
 0001:0000FBBC       Elarray.TElArray.Pack
 0001:0000FBFC       Elarray.TElArray.SetCapacity
 0001:0000FC6C       Elarray.TElArray.SetCount
 0001:0000FCE0       ElArray._16418
 0001:0000FE0C       Elarray.TElArray.Sort
 0001:0000FE50       Elarray.TElArray.TriggerDeleteEvent
 0001:0000FE7C       Elarray.Finalization
 0001:0000FEAC       Elarray.initialization
 0001:0000FEB4       Elbasecomp.EBaseEnabledFailed
 0001:0000FF44       Elbasecomp.TElBaseComponent
 0001:00010018       Elbasecomp.TElBaseComponent
 0001:00010070       Elbasecomp.TElBaseComponent
 0001:000100AC       Elbasecomp.TElBaseComponent.Loaded
 0001:000100D8       Elbasecomp.TElBaseComponent.WndProc
 0001:00010140       Elbasecomp.TElBaseComponent.WMQueryEndSession
 0001:00010198       Elbasecomp.TElBaseComponent.SetEnabled
 0001:00010210       Elbasecomp.TElBaseComponent.DoSetEnabled
 0001:0001025C       Elbasecomp.Finalization
 0001:0001028C       Elbasecomp.initialization
 0001:00010338       Elbiprogr.TElBiProgressBar
 0001:00010AF0       Elbiprogr.TElBiProgressBar
 0001:00010BD0       Elbiprogr.TElBiProgressBar
 0001:00010C10       Elbiprogr.TElBiProgressBar.SetCaption
 0001:00010C80       Elbiprogr.TElBiProgressBar.SetDarkText
 0001:00010CF0       Elbiprogr.TElBiProgressBar.SetLightText
 0001:00010D60       Elbiprogr.TElBiProgressBar.SetDarkTextColor
 0001:00010D94       Elbiprogr.TElBiProgressBar.SetLightTextColor
 0001:00010DC8       Elbiprogr.TElBiProgressBar.SetBorderStyle
 0001:00010DFC       Elbiprogr.TElBiProgressBar.SetLightColor
 0001:00010E30       Elbiprogr.TElBiProgressBar.SetDarkColor
 0001:00010E64       Elbiprogr.TElBiProgressBar.SetScale
 0001:00010E98       Elbiprogr.TElBiProgressBar.SetLightValue
 0001:00010ECC       Elbiprogr.TElBiProgressBar.SetDarkValue
 0001:00010F00       Elbiprogr.TElBiProgressBar.SetAdditive
 0001:00010F34       Elbiprogr.TElBiProgressBar.SetValues
 0001:00010F84       Elbiprogr.TElBiProgressBar.SetProgrShowMode
 0001:00010FB8       Elbiprogr.TElBiProgressBar.SetLightTextFullLine
 0001:00010FEC       Elbiprogr.TElBiProgressBar.SetDarkTextFullLine
 0001:00011020       ElBiProgr._16407
 0001:00011140       Elbiprogr.TElBiProgressBar.Paint
 0001:00011800       Elbiprogr.TElBiProgressBar.SetMinValue
 0001:00011834       Elbiprogr.TElBiProgressBar.SetLightButtonStyle
 0001:00011868       Elbiprogr.TElBiProgressBar.SetDarkButtonStyle
 0001:0001189C       Elbiprogr.TElBiProgressBar.GetTransparent
 0001:000118BC       Elbiprogr.TElBiProgressBar.SetTransparent
 0001:00011914       Elbiprogr.Finalization
 0001:00011944       Elbiprogr.initialization
 0001:0001194C       Elbtnctl.TElButtonControl
 0001:00011B20       Elbtnctl.TElButtonControl.GetChecked
 0001:00011B28       Elbtnctl.TElButtonControl.SetChecked
 0001:00011B30       Elbtnctl.TElButtonActionLink
 0001:00011C3C       Elbtnctl.TElButtonActionLink.SetCaption
 0001:00011CAC       Elbtnctl.TElButtonActionLink.AssignClient
 0001:00011CDC       Elbtnctl.TElButtonActionLink.IsCheckedLinked
 0001:00011D2C       Elbtnctl.TElButtonActionLink.IsImageIndexLinked
 0001:00011D40       Elbtnctl.TElButtonActionLink.SetChecked
 0001:00011DAC       Elbtnctl.TElButtonActionLink.SetHint
 0001:00011E1C       Elbtnctl.TElButtonControl.ActionChange
 0001:00011F24       Elbtnctl.TElButtonControl.GetActionLinkClass
 0001:00011F3C       Elbtnctl.TElButtonControl.WndProc
 0001:00011FE0       Elbtnctl.TElButtonControl.SetTransparent
 0001:00012048       Elbtnctl.TElButtonControl.CreateParams
 0001:00012080       Elbtnctl.TElButtonControl.WMMove
 0001:000120B4       Elbtnctl.TElButtonControl.SetTextDrawType
 0001:000120EC       Elbtnctl.TElButtonControl
 0001:00012184       Elbtnctl.TElButtonControl.SetCaption
 0001:000121FC       Elbtnctl.TElButtonControl.IsCaptionStored
 0001:00012230       Elbtnctl.TElButtonControl.CMDialogChar
 0001:000122CC       Elbtnctl.TElButtonControl.GetThemedClassName
 0001:00012300       Elbtnctl.TElButtonControl.GetUIStateDrawFocus
 0001:0001232C       Elbtnctl.TElButtonControl.GetUIStateDrawAccel
 0001:00012358       Elbtnctl.TElButtonControl.WMUpdateUIState
 0001:00012374       Elbtnctl.TElButtonControl.WMChangeUIState
 0001:00012390       Elbtnctl.TElButtonControl.SetMoneyFlat
 0001:000123C4       Elbtnctl.TElButtonControl.SetMoneyFlatActiveColor
 0001:00012404       Elbtnctl.TElButtonControl.SetMoneyFlatInactiveColor
 0001:00012444       Elbtnctl.TElButtonControl.SetMoneyFlatDownColor
 0001:00012484       Elbtnctl.TElButtonControl.GetMoneyFlat
 0001:000124A0       Elbtnctl.TElButtonControl.CMHintShow
 0001:00012648       Elbtnctl.TElButtonControl.SetHint
 0001:00012780       Elbtnctl.Finalization
 0001:000127B0       Elbtnctl.initialization
 0001:000127B8       Elbtnedit.TCustomElButtonEdit
 0001:00012A48       Elbtnedit.TElButtonEdit
 0001:00013E04       ElBtnEdit._16389
 0001:00013F64       ElBtnEdit._16390
 0001:00013F8C       Elbtnedit.TCustomElButtonEdit.SetButtonClickSound
 0001:00013FE8       Elbtnedit.TCustomElButtonEdit.GetButtonClickSound
 0001:00014010       Elbtnedit.TCustomElButtonEdit.SetButtonColor
 0001:00014034       Elbtnedit.TCustomElButtonEdit.GetButtonColor
 0001:00014054       Elbtnedit.TCustomElButtonEdit.SetButtonDown
 0001:00014078       Elbtnedit.TCustomElButtonEdit.GetButtonDown
 0001:0001409C       Elbtnedit.TCustomElButtonEdit.SetButtonDownSound
 0001:000140F8       Elbtnedit.TCustomElButtonEdit.GetButtonDownSound
 0001:00014120       Elbtnedit.TCustomElButtonEdit.SetButtonGlyph
 0001:00014144       Elbtnedit.TCustomElButtonEdit.GetButtonGlyph
 0001:00014168       Elbtnedit.TCustomElButtonEdit.SetButtonHint
 0001:000141D4       Elbtnedit.TCustomElButtonEdit.GetButtonHint
 0001:000141FC       Elbtnedit.TCustomElButtonEdit.SetButtonIcon
 0001:00014220       Elbtnedit.TCustomElButtonEdit.GetButtonIcon
 0001:00014244       Elbtnedit.TCustomElButtonEdit.SetButtonNumGlyphs
 0001:00014268       Elbtnedit.TCustomElButtonEdit.GetButtonNumGlyphs
 0001:0001428C       Elbtnedit.TCustomElButtonEdit.SetButtonSoundMap
 0001:000142B0       Elbtnedit.TCustomElButtonEdit.GetButtonSoundMap
 0001:000142D4       Elbtnedit.TCustomElButtonEdit.SetButtonUpSound
 0001:00014330       Elbtnedit.TCustomElButtonEdit.GetButtonUpSound
 0001:00014358       Elbtnedit.TCustomElButtonEdit.SetButtonUseIcon
 0001:0001437C       Elbtnedit.TCustomElButtonEdit.GetButtonUseIcon
 0001:000143A0       Elbtnedit.TCustomElButtonEdit.SetButtonWidth
 0001:00014400       Elbtnedit.TCustomElButtonEdit.GetButtonWidth
 0001:00014420       Elbtnedit.TCustomElButtonEdit.ButtonClickTransfer
 0001:00014454       Elbtnedit.TCustomElButtonEdit.WMSize
 0001:00014470       Elbtnedit.TCustomElButtonEdit.SetEditRect
 0001:00014A1C       Elbtnedit.TCustomElButtonEdit.KeyPress
 0001:00014A70       Elbtnedit.TCustomElButtonEdit.SetButtonVisible
 0001:00014AC0       Elbtnedit.TCustomElButtonEdit.GetButtonVisible
 0001:00014AE0       Elbtnedit.TCustomElButtonEdit.SetAltButtonClickSound
 0001:00014B3C       Elbtnedit.TCustomElButtonEdit.GetAltButtonClickSound
 0001:00014B64       Elbtnedit.TCustomElButtonEdit.SetAltButtonDown
 0001:00014B88       Elbtnedit.TCustomElButtonEdit.GetAltButtonDown
 0001:00014BAC       Elbtnedit.TCustomElButtonEdit.SetAltButtonDownSound
 0001:00014C08       Elbtnedit.TCustomElButtonEdit.GetAltButtonDownSound
 0001:00014C30       Elbtnedit.TCustomElButtonEdit.SetAltButtonFlat
 0001:00014C54       Elbtnedit.TCustomElButtonEdit.GetAltButtonFlat
 0001:00014C78       Elbtnedit.TCustomElButtonEdit.SetAltButtonGlyph
 0001:00014C9C       Elbtnedit.TCustomElButtonEdit.GetAltButtonGlyph
 0001:00014CC0       Elbtnedit.TCustomElButtonEdit.SetAltButtonIcon
 0001:00014CE4       Elbtnedit.TCustomElButtonEdit.GetAltButtonIcon
 0001:00014D08       Elbtnedit.TCustomElButtonEdit.SetAltButtonNumGlyphs
 0001:00014D2C       Elbtnedit.TCustomElButtonEdit.GetAltButtonNumGlyphs
 0001:00014D50       Elbtnedit.TCustomElButtonEdit.SetAltButtonSoundMap
 0001:00014D74       Elbtnedit.TCustomElButtonEdit.GetAltButtonSoundMap
 0001:00014D98       Elbtnedit.TCustomElButtonEdit.SetAltButtonUpSound
 0001:00014DF4       Elbtnedit.TCustomElButtonEdit.GetAltButtonUpSound
 0001:00014E1C       Elbtnedit.TCustomElButtonEdit.SetAltButtonUseIcon
 0001:00014E40       Elbtnedit.TCustomElButtonEdit.GetAltButtonUseIcon
 0001:00014E64       Elbtnedit.TCustomElButtonEdit.SetAltButtonVisible
 0001:00014EB4       Elbtnedit.TCustomElButtonEdit.GetAltButtonVisible
 0001:00014ED4       Elbtnedit.TCustomElButtonEdit.SetAltButtonWidth
 0001:00014F34       Elbtnedit.TCustomElButtonEdit.GetAltButtonWidth
 0001:00014F54       Elbtnedit.TCustomElButtonEdit.AltButtonClickTransfer
 0001:00014F88       Elbtnedit.TCustomElButtonEdit.SetButtonFlat
 0001:00014FAC       Elbtnedit.TCustomElButtonEdit.GetButtonFlat
 0001:00014FD0       Elbtnedit.TCustomElButtonEdit.SetAltButtonEnabled
 0001:00014FF4       Elbtnedit.TCustomElButtonEdit.GetAltButtonEnabled
 0001:00015018       Elbtnedit.TCustomElButtonEdit.SetButtonEnabled
 0001:0001503C       Elbtnedit.TCustomElButtonEdit.GetButtonEnabled
 0001:00015060       Elbtnedit.TCustomElButtonEdit.CMEnabledChanged
 0001:00015088       Elbtnedit.TCustomElButtonEdit.KeyDown
 0001:00015164       Elbtnedit.TCustomElButtonEdit.SetAltButtonHint
 0001:000151D0       Elbtnedit.TCustomElButtonEdit.GetAltButtonHint
 0001:000151F8       Elbtnedit.TCustomElButtonEdit.SetAltButtonPopupPlace
 0001:0001521C       Elbtnedit.TCustomElButtonEdit.GetAltButtonPopupPlace
 0001:00015240       Elbtnedit.TCustomElButtonEdit.SetAltButtonPullDownMenu
 0001:00015264       Elbtnedit.TCustomElButtonEdit.GetAltButtonPullDownMenu
 0001:00015288       Elbtnedit.TCustomElButtonEdit.SetButtonPopupPlace
 0001:000152AC       Elbtnedit.TCustomElButtonEdit.GetButtonPopupPlace
 0001:000152D0       Elbtnedit.TCustomElButtonEdit.SetButtonPullDownMenu
 0001:000152F4       Elbtnedit.TCustomElButtonEdit.GetButtonPullDownMenu
 0001:00015318       Elbtnedit.TCustomElButtonEdit.SetAltButtonCaption
 0001:00015384       Elbtnedit.TCustomElButtonEdit.GetAltButtonCaption
 0001:000153AC       Elbtnedit.TCustomElButtonEdit.SetButtonCaption
 0001:00015418       Elbtnedit.TCustomElButtonEdit.GetButtonCaption
 0001:00015440       Elbtnedit.TCustomElButtonEdit.WMGetDlgCode
 0001:00015470       Elbtnedit.TCustomElButtonEdit.SetAltBtnAlign
 0001:000154C8       Elbtnedit.TCustomElButtonEdit
 0001:0001552C       Elbtnedit.TCustomElButtonEdit
 0001:000156FC       Elbtnedit.TCustomElButtonEdit.WMKeyDown
 0001:000157AC       Elbtnedit.TCustomElButtonEdit.GetAltButtonColor
 0001:000157CC       Elbtnedit.TCustomElButtonEdit.SetAltButtonColor
 0001:000157F0       Elbtnedit.TCustomElButtonEdit.GetButtonThinFrame
 0001:00015814       Elbtnedit.TCustomElButtonEdit.SetButtonThinFrame
 0001:00015838       Elbtnedit.TCustomElButtonEdit.GetAltButtonThinFrame
 0001:0001585C       Elbtnedit.TCustomElButtonEdit.SetAltButtonThinFrame
 0001:00015880       Elbtnedit.TCustomElButtonEdit.SetUseXPThemes
 0001:000158C0       Elbtnedit.TCustomElButtonEdit.UpdateButtonStyles
 0001:000159AC       Elbtnedit.TCustomElButtonEdit.SetActiveBorderType
 0001:000159D0       Elbtnedit.TCustomElButtonEdit.SetFlat
 0001:000159F4       Elbtnedit.TCustomElButtonEdit.SetInactiveBorderType
 0001:00015A18       Elbtnedit.TCustomElButtonEdit.SetLineBorderActiveColor
 0001:00015A3C       Elbtnedit.TCustomElButtonEdit.SetLineBorderInactiveColor
 0001:00015A60       Elbtnedit.TCustomElButtonEdit.GetButtonTransparent
 0001:00015A84       Elbtnedit.TCustomElButtonEdit.SetButtonTransparent
 0001:00015AA8       Elbtnedit.TCustomElButtonEdit.GetAltButtonTransparent
 0001:00015ACC       Elbtnedit.TCustomElButtonEdit.SetAltButtonTransparent
 0001:00015AF0       Elbtnedit.Finalization
 0001:00015B20       Elbtnedit.initialization
 0001:00015B28       Elcalendar.TElCalendar
 0001:0001667C       ElCalendar._16387
 0001:00016684       ElCalendar._16389
 0001:0001668C       Elcalendar.TElCalendar
 0001:00016840       Elcalendar.TElCalendar
 0001:00016888       Elcalendar.TElCalendar.Change
 0001:000168B4       Elcalendar.TElCalendar.Click
 0001:000169CC       Elcalendar.TElCalendar.IsLeapYear
 0001:00016A1C       Elcalendar.TElCalendar.DaysThisMonth
 0001:00016A50       Elcalendar.TElCalendar.DrawCell
 0001:0001717C       ElCalendar._16398
 0001:00017190       ElCalendar._16400
 0001:000171E4       Elcalendar.TElCalendar.GetCellText
 0001:000173E8       Elcalendar.TElCalendar.SelectCell
 0001:00017480       Elcalendar.TElCalendar.SetCalendarDate
 0001:000174AC       Elcalendar.TElCalendar.StoreCalendarDate
 0001:000174CC       Elcalendar.TElCalendar.GetDateElement
 0001:0001752C       Elcalendar.TElCalendar.SetDate
 0001:00017588       Elcalendar.TElCalendar.SetDateElement
 0001:00017674       Elcalendar.TElCalendar.SetStartOfWeek
 0001:000176B4       Elcalendar.TElCalendar.SetUseCurrentDate
 0001:00017708       Elcalendar.TElCalendar.ChangeMonth
 0001:000177DC       Elcalendar.TElCalendar.PrevMonth
 0001:000177F4       Elcalendar.TElCalendar.NextMonth
 0001:0001780C       Elcalendar.TElCalendar.NextYear
 0001:00017888       Elcalendar.TElCalendar.PrevYear
 0001:00017904       Elcalendar.TElCalendar.UpdateCalendar
 0001:00017A24       Elcalendar.TElCalendar.WMSize
 0001:00017AB4       Elcalendar.TElCalendar.SetShowWeekNum
 0001:00017B48       Elcalendar.TElCalendar.Loaded
 0001:00017B9C       Elcalendar.TElCalendar.SetWeekEndDays
 0001:00017BD4       Elcalendar.TElCalendar.SetWeekEndColor
 0001:00017C0C       Elcalendar.TElCalendar.SetHolidays
 0001:00017C30       Elcalendar.TElCalendar.FixHolidayDate
 0001:00017D60       Elcalendar.TElCalendar.MouseToCell
 0001:00017D98       Elcalendar.TElCalendar.CMHintShow
 0001:0001803C       Elcalendar.TElCalendar.IsHoliday
 0001:00018110       Elcalendar.TElCalendar.SetShowHolidays
 0001:00018148       Elcalendar.TElCalendar.SetShowPeriods
 0001:00018180       Elcalendar.TElCalendar.SetPeriodStart
 0001:000181CC       Elcalendar.TElCalendar.SetPeriodInterval
 0001:00018214       Elcalendar.TElCalendar.SetPeriodLength
 0001:0001825C       Elcalendar.TElCalendar.SetPeriodColor
 0001:000182A0       Elcalendar.TElCalendar.IsInPeriod
 0001:000183C4       Elcalendar.TElCalendar.IsRestHoliday
 0001:000184AC       Elcalendar.TElCalendar.SetHolidayColor
 0001:000184F0       Elcalendar.TElCalendar.SetTranslateDays
 0001:00018524       Elcalendar.TElCalendar.SetFlat
 0001:00018558       Elcalendar.TElCalendar.CMMouseEnter
 0001:000185B0       Elcalendar.TElCalendar.CMMouseLeave
 0001:00018608       Elcalendar.TElCalendar.UpdateFrame
 0001:00018648       Elcalendar.TElCalendar.DrawFlatBorder
 0001:000187B0       Elcalendar.TElCalendar.WMNCPaint
 0001:00018800       Elcalendar.TElCalendar.WMKillFocus
 0001:0001883C       Elcalendar.TElCalendar.WMSetFocus
 0001:0001886C       Elcalendar.TElCalendar.WMPaint
 0001:000188A8       Elcalendar.TElCalendar.WMVScroll
 0001:000188D8       Elcalendar.TElCalendar.WMHScroll
 0001:00018908       Elcalendar.TElCalendar.SetActiveBorderType
 0001:00018958       Elcalendar.TElCalendar.SetInactiveBorderType
 0001:000189A8       ElCalendar._16449
 0001:000189EC       Elcalendar.TElCalendar.KeyDown
 0001:00018E64       Elcalendar.TElCalendar.StoreDate
 0001:00018E84       Elcalendar.TElCalendar.SetUseSystemStartOfWeek
 0001:00018EDC       Elcalendar.TElCalendar.SetLineColorLight
 0001:00018F10       Elcalendar.TElCalendar.SetLineColorDark
 0001:00018F44       Elcalendar.TElCalendar.SetUseLineColors
 0001:00018F78       Elcalendar.TElCalendar.SetBorderSides
 0001:00018FB8       Elcalendar.TElCalendar.WMNCCalcSize
 0001:00019050       Elcalendar.TElCalendar.SetSelectionBorder
 0001:00019084       Elcalendar.TElCalendar.SetDayCellBorder
 0001:000190B8       Elcalendar.TElCalendar.SetCurrentDayBorder
 0001:000190EC       Elcalendar.Finalization
 0001:00019134       Elcalendar.initialization
 0001:0001913C       Elcalenddlg.TElCalendarForm
 0001:000193F0       Elcalenddlg.TElCalendarDialog
 0001:00019834       Elcalenddlg.TElCalendarDialog.PrepareDialog
 0001:00019A54       Elcalenddlg.TElCalendarDialog.Execute
 0001:00019B44       Elcalenddlg.TElCalendarDialog
 0001:00019B80       Elcalenddlg.TElCalendarDialog
 0001:00019C38       Elcalenddlg.TElCalendarForm
 0001:00019C78       Elcalenddlg.TElCalendarForm.WMActivate
 0001:00019CC0       Elcalenddlg.TElCalendarForm.WMQueryEndSession
 0001:00019CE8       Elcalenddlg.TElCalendarForm.TriggerChangeEvent
 0001:00019D14       Elcalenddlg.TElCalendarForm.SetNames
 0001:00019D54       Elcalenddlg.TElCalendarForm.UpdateLabel
 0001:00019DA8       Elcalenddlg.TElCalendarForm.PrevYearBtnClick
 0001:00019DEC       Elcalenddlg.TElCalendarForm.PrevMonBtnClick
 0001:00019E88       Elcalenddlg.TElCalendarForm.FormCreate
 0001:0001AB10       Elcalenddlg.TElCalendarForm.MonthComboChange
 0001:0001AB74       Elcalenddlg.TElCalendarForm.NextMonBtnClick
 0001:0001AC10       Elcalenddlg.TElCalendarForm.NextYearBtnClick
 0001:0001AC54       Elcalenddlg.TElCalendarForm.YearSpinChange
 0001:0001AD20       Elcalenddlg.TElCalendarForm.FormShow
 0001:0001AD38       Elcalenddlg.TElCalendarForm.TodayBtnClick
 0001:0001ADAC       Elcalenddlg.TElCalendarForm.OkBtnClick
 0001:0001ADD0       Elcalenddlg.TElCalendarForm.FormClose
 0001:0001ADEC       Elcalenddlg.TElCalendarForm.CancelBtnClick
 0001:0001AE10       Elcalenddlg.TElCalendarForm.CalendarChange
 0001:0001AE28       Elcalenddlg.TElCalendarForm.CalendarClick
 0001:0001AE44       Elcalenddlg.Finalization
 0001:0001AE80       Elcalenddlg.initialization
 0001:0001AE9C       Elcaption.TElCaptionText
 0001:0001B094       Elcaption.TElCaptionTexts
 0001:0001B19C       Elcaption.TElCaptionButton
 0001:0001B440       Elcaption.TElCaptionButtons
 0001:0001B58C       Elcaption.TElFormCaption
 0001:0001B95C       Elcaption.TElCaptionTexts.GetItems
 0001:0001B980       Elcaption.TElCaptionTexts.SetItems
 0001:0001B9A4       Elcaption.TElCaptionTexts.GetOwner
 0001:0001B9C0       Elcaption.TElCaptionTexts.Update
 0001:0001B9EC       Elcaption.TElCaptionTexts.Add
 0001:0001BA08       Elcaption.TElCaptionText.SetActiveColor
 0001:0001BA40       Elcaption.TElCaptionText.SetInactiveColor
 0001:0001BA78       Elcaption.TElCaptionText.SetFont
 0001:0001BA98       Elcaption.TElCaptionText.SetVisible
 0001:0001BAC8       Elcaption.TElCaptionText.Assign
 0001:0001BB80       Elcaption.TElCaptionText.FontChange
 0001:0001BBA4       Elcaption.TElCaptionText.SetCaption
 0001:0001BC18       Elcaption.TElCaptionText.SetOwnerStyle
 0001:0001BC48       Elcaption.TElCaptionText
 0001:0001BC90       Elcaption.TElCaptionText
 0001:0001BD4C       Elcaption.TElCaptionText.GetGlyph
 0001:0001BD68       Elcaption.TElCaptionText.SetGlyph
 0001:0001BD90       Elcaption.TElCaptionText.SetLayout
 0001:0001BDC8       Elcaption.TElCaptionText.GlyphChanged
 0001:0001BDE4       Elcaption.TElCaptionText.SetAlign
 0001:0001BE14       Elcaption.TElCaptionText.Paint
 0001:0001BEA4       Elcaption.TElCaptionText.GetWidth
 0001:0001C008       Elcaption.TElCaptionButton.SetAlign
 0001:0001C038       Elcaption.TElCaptionButton.SetCaption
 0001:0001C0A4       Elcaption.TElCaptionButton.GetGlyph
 0001:0001C0C0       Elcaption.TElCaptionButton.FontChange
 0001:0001C0E4       Elcaption.TElCaptionButton.GlyphChanged
 0001:0001C100       Elcaption.TElCaptionButton.SetGlyph
 0001:0001C128       Elcaption.TElCaptionButton.SetEnabled
 0001:0001C158       Elcaption.TElCaptionButton.SetDown
 0001:0001C188       Elcaption.TElCaptionButton.Assign
 0001:0001C26C       Elcaption.TElCaptionButton.Paint
 0001:0001C424       Elcaption.TElCaptionButton.SetVisible
 0001:0001C47C       Elcaption.TElCaptionButton.SetOwnerStyle
 0001:0001C4B4       Elcaption.TElCaptionButton.SetActiveColor
 0001:0001C4EC       Elcaption.TElCaptionButton.SetInactiveColor
 0001:0001C524       Elcaption.TElCaptionButton.SetFont
 0001:0001C544       Elcaption.TElCaptionButton.SetLayout
 0001:0001C57C       Elcaption.TElCaptionButton
 0001:0001C5EC       Elcaption.TElCaptionButton
 0001:0001C6CC       Elcaption.TElCaptionButton.GetWidth
 0001:0001C898       Elcaption.TElCaptionButtons.GetItems
 0001:0001C8BC       Elcaption.TElCaptionButtons.SetItems
 0001:0001C8E0       Elcaption.TElCaptionButtons.GetOwner
 0001:0001C8FC       Elcaption.TElCaptionButtons.Update
 0001:0001C938       Elcaption.TElCaptionButtons.Add
 0001:0001C954       Elcaption.TElFormCaption.SetActive
 0001:0001CA10       Elcaption.TElFormCaption.SetActiveLeftColor
 0001:0001CA3C       Elcaption.TElFormCaption.SetActiveRightColor
 0001:0001CA68       Elcaption.TElFormCaption.SetInactiveLeftColor
 0001:0001CA94       Elcaption.TElFormCaption.SetBackgroundType
 0001:0001CAC0       Elcaption.TElFormCaption.SetPopupMenu
 0001:0001CB14       Elcaption.TElFormCaption.SetNumColors
 0001:0001CB40       Elcaption.TElFormCaption.SetAlignment
 0001:0001CB50       Elcaption.TElFormCaption.BitmapChange
 0001:0001CB74       Elcaption.TElFormCaption.SetBitmap
 0001:0001CB94       Elcaption.TElFormCaption.Loaded
 0001:0001CBF8       Elcaption.TElFormCaption.OnAfterHook
 0001:0001CF94       Elcaption.TElFormCaption.OnBeforeHook
 0001:0001D668       Elcaption.TElFormCaption.Notification
 0001:0001D6D0       Elcaption.TElFormCaption.Update
 0001:0001D808       ElCaption._16459
 0001:0001DEC8       ElCaption._16460
 0001:0001E384       ElCaption._16461
 0001:0001E5D4       ElCaption._16462
 0001:0001E7B4       ElCaption._16463
 0001:0001E8FC       Elcaption.TElFormCaption.PaintCaption
 0001:0001EC3C       Elcaption.TElFormCaption.SetPaintBkgnd
 0001:0001EC68       Elcaption.TElFormCaption.SetInactiveRightColor
 0001:0001EC94       Elcaption.TElFormCaption.SetButtons
 0001:0001ECB4       Elcaption.TElFormCaption.SetInactiveBitmap
 0001:0001ECD4       Elcaption.TElFormCaption.FontChange
 0001:0001ECEC       Elcaption.TElFormCaption.GetSystemFont
 0001:0001ED6C       Elcaption.TElFormCaption.SetFont
 0001:0001ED8C       Elcaption.TElFormCaption.TriggerDrawCaptionEvent
 0001:0001EDC8       Elcaption.TElFormCaption.ButtonAtPos
 0001:0001EE68       Elcaption.TElFormCaption.TriggerButtonClickEvent
 0001:0001EEB4       Elcaption.TElFormCaption.TriggerButtonDblClickEvent
 0001:0001EF00       Elcaption.TElFormCaption.SetSystemFont
 0001:0001EF2C       Elcaption.TElFormCaption.SetTexts
 0001:0001EF58       Elcaption.TElFormCaption
 0001:0001EFD8       Elcaption.TElFormCaption
 0001:0001F1AC       Elcaption.TElFormCaption.Assign
 0001:0001F2B4       Elcaption.TElFormCaption.SetUseXPThemes
 0001:0001F2F0       Elcaption.TElFormCaption.CreateThemeHandle
 0001:0001F348       Elcaption.TElFormCaption.FreeThemeHandle
 0001:0001F37C       Elcaption.TElFormCaption.IsThemeApplied
 0001:0001F3B0       Elcaption.TElFormCaption.AllocThemes
 0001:0001F3D8       Elcaption.Finalization
 0001:0001F408       Elcaption.initialization
 0001:0001F410       Elcbfmts.HasFormat
 0001:0001F48C       ElCBFmts._16386
 0001:0001F4A0       ElCBFmts._16388
 0001:0001F5A8       Elcbfmts.GetFormatName
 0001:0001F608       Elcbfmts.GetFormatIndex
 0001:0001F86C       Elcbfmts.Finalization
 0001:0001F8B4       Elcbfmts.initialization
 0001:0001F8BC       Elcheckctl.TElCheckItem
 0001:0001FAF0       Elcheckctl.TElCheckItem.DrawFlatFrame
 0001:0001FAF8       Elcheckctl.TElCheckBox
 0001:000205C8       Elcheckctl.TElRadioButton
 0001:00021058       Elcheckctl.TElCheckItem.ImageFormChange
 0001:00021070       Elcheckctl.TElCheckItem.CalcAutoHeight
 0001:000212FC       Elcheckctl.TElCheckItem.AdjustAutoSize
 0001:0002162C       Elcheckctl.TElCheckItem.setAutoSize
 0001:0002166C       Elcheckctl.TElCheckItem.setImageForm
 0001:00021708       Elcheckctl.TElCheckItem.setUseCustomGlyphs
 0001:00021750       Elcheckctl.TElCheckItem.setGlyph
 0001:00021784       Elcheckctl.TElCheckItem.setAlignment
 0001:000217B8       Elcheckctl.TElCheckItem.WMEraseBkgnd
 0001:000217DC       Elcheckctl.TElCheckItem.setSoundMap
 0001:00021840       Elcheckctl.TElCheckItem.Notification
 0001:000218D0       Elcheckctl.TElCheckItem.GlyphChange
 0001:00021908       Elcheckctl.TElCheckItem.Paint
 0001:000233E4       Elcheckctl.TElCheckItem.DoEnter
 0001:00023448       Elcheckctl.TElCheckItem.DoExit
 0001:00023470       Elcheckctl.TElCheckItem.SetFlat
 0001:000234B0       Elcheckctl.TElCheckItem.CMMouseLeave
 0001:00023538       Elcheckctl.TElCheckItem.CMMouseEnter
 0001:000235B0       Elcheckctl.TElCheckItem.CMTextChanged
 0001:000235E8       Elcheckctl.TElCheckItem.MouseDown
 0001:00023720       Elcheckctl.TElCheckItem.MouseUp
 0001:000237E0       Elcheckctl.TElCheckItem.KeyDown
 0001:0002387C       Elcheckctl.TElCheckItem.Click
 0001:00023A28       Elcheckctl.TElCheckItem.Loaded
 0001:00023A7C       Elcheckctl.TElCheckItem.CMFocusChanged
 0001:00023AAC       Elcheckctl.TElCheckItem
 0001:00023B38       Elcheckctl.TElCheckItem
 0001:00023C80       Elcheckctl.TElCheckBox.DrawFlatFrame
 0001:00023D9C       Elcheckctl.TElCheckBox.GetChecked
 0001:00023DBC       Elcheckctl.TElCheckBox.SetChecked
 0001:00023DE8       Elcheckctl.TElCheckBox.SetState
 0001:00023E2C       Elcheckctl.TElCheckBox.SetAllowGrayed
 0001:00023E74       Elcheckctl.TElCheckBox.Toggle
 0001:00023ED0       Elcheckctl.TElRadioButton.DrawFlatFrame
 0001:00024040       Elcheckctl.TElRadioButton.GetChecked
 0001:0002405C       Elcheckctl.TElRadioButton.SetChecked
 0001:00024120       Elcheckctl.TElCheckItem.DrawGlyph
 0001:00024188       Elcheckctl.TElCheckItem.SetFlatAlways
 0001:000241C8       Elcheckctl.TElCheckItem.SetIsHTML
 0001:00024260       Elcheckctl.TElCheckItem.SetImages
 0001:00024338       Elcheckctl.TElCheckItem.SetUseImageList
 0001:000243A0       Elcheckctl.TElCheckItem.ImagesChanged
 0001:000243C4       Elcheckctl.TElCheckItem.CMEnabledChanged
 0001:000243E8       Elcheckctl.TElCheckItem.IFMRepaintChildren
 0001:00024418       Elcheckctl.TElCheckItem.WMWindowPosChanged
 0001:00024444       Elcheckctl.TElCheckItem.CreateWnd
 0001:0002446C       Elcheckctl.TElCheckItem.GetCheckBoxSize
 0001:000244D0       Elcheckctl.TElCheckItem.GetPartId
 0001:00024520       Elcheckctl.TElCheckItem.WMGetDlgCode
 0001:00024574       Elcheckctl.TElCheckItem.WMContextMenu
 0001:000246CC       Elcheckctl.TElCheckItem.WMRButtonUp
 0001:000246E8       Elcheckctl.TElCheckItem.SetCursor
 0001:00024800       Elcheckctl.TElCheckItem.CalcTextRect
 0001:0002486C       Elcheckctl.TElCheckItem.MouseMove
 0001:00024940       Elcheckctl.TElCheckItem.SetLinkColor
 0001:0002498C       Elcheckctl.TElCheckItem.SetLinkPopupMenu
 0001:000249E4       Elcheckctl.TElCheckItem.SetLinkStyle
 0001:00024A30       Elcheckctl.TElCheckItem.DoLinkPopup
 0001:00024AB4       Elcheckctl.TElCheckItem.TriggerImageNeededEvent
 0001:00024B2C       Elcheckctl.TElCheckItem.TriggerLinkClickEvent
 0001:00024B94       Elcheckctl.Finalization
 0001:00024BC4       Elcheckctl.initialization
 0001:00024BCC       Elclipmon.TElClipboardMonitor
 0001:00024CE0       Elclipmon.TElClipboardMonitor.WndProc
 0001:00024D84       Elclipmon.TElClipboardMonitor.DoSetEnabled
 0001:00024DD0       Elclipmon.TElClipboardMonitor.TriggerChangeEvent
 0001:00024DF4       Elclipmon.TElClipboardMonitor.GetDataFormats
 0001:00024EC4       Elclipmon.TElClipboardMonitor
 0001:00024F00       Elclipmon.TElClipboardMonitor.GetDataString
 0001:0002503C       Elclipmon.Finalization
 0001:0002506C       Elclipmon.initialization
 0001:000258C0       Elclock.TElClock
 0001:00025AB0       Elclock.TElClock
 0001:00025B44       Elclock.TElClock
 0001:00025B9C       Elclock.TElClock.GetTime
 0001:00025C30       Elclock.TElClock.Kick
 0001:000262C4       Elclock.TElClock.OnTimer
 0001:0002631C       Elclock.TElClock.CreateTimer
 0001:00026378       Elclock.TElClock.GetTimer
 0001:00026398       Elclock.TElClock.SetTimer
 0001:000263E4       Elclock.TElClock.WMLButtonDown
 0001:00026424       Elclock.TElClock.WMLButtonUp
 0001:00026458       Elclock.TElClock.SetShowHint
 0001:00026498       Elclock.TElClock.SetShowDate
 0001:000264D8       ElClock._16400
 0001:00026518       Elclock.TElClock.PaintBorders
 0001:000265C0       Elclock.TElClock.InheritedPaint
 0001:000265D4       Elclock.TElClock.Paint
 0001:000266E4       Elclock.TElClock.SetIsTimer
 0001:0002674C       Elclock.TElClock.GetTimeElapsed
 0001:00026770       Elclock.TElClock.SetTimerActive
 0001:000267C4       Elclock.TElClock.ResetTimer
 0001:00026814       Elclock.TElClock.SetTimerPaused
 0001:0002688C       Elclock.TElClock.SetUseBias
 0001:000268D8       Elclock.TElClock.SetBias
 0001:00026924       Elclock.TElClock.SetShowWeekDay
 0001:00026970       Elclock.TElClock.SetUseCustomFormat
 0001:000269B0       Elclock.TElClock.SetCustomFormat
 0001:00026A2C       Elclock.TElClock.SetShowDaysInTimer
 0001:00026A78       Elclock.TElClock.SetIsCountdown
 0001:00026AF4       Elclock.TElClock.SetCountdownTime
 0001:00026B54       Elclock.TElClock.SetCountdownPaused
 0001:00026BCC       Elclock.TElClock.TriggerCountdownDoneEvent
 0001:00026C08       Elclock.TElClock.SetCountdownActive
 0001:00026C98       Elclock.TElClock.TriggerCountdownTickEvent
 0001:00026CC4       Elclock.TElClock.WMMouseMove
 0001:00026D1C       Elclock.ShortTZToTimeZoneInfo
 0001:00026D80       ElClock._16423
 0001:00026D94       ElClock._16425
 0001:00026DE4       ElClock._16426
 0001:00026DF8       ElClock._16428
 0001:00026E74       ElClock._16429
 0001:00026E88       ElClock._16431
 0001:00026F54       Elclock.TranslateTZDate
 0001:0002702C       Elclock.RetrieveTimeZoneInfo
 0001:00027428       Elclock.Finalization
 0001:000274E8       Elclock.initialization
 0001:00027640       Elclrcmb.TElColorCombo
 0001:00027C74       Elclrcmb.TElColorCombo
 0001:00027D60       Elclrcmb.TElColorCombo.DrawItem
 0001:00028214       Elclrcmb.TElColorCombo.CMMouseEnter
 0001:00028254       Elclrcmb.TElColorCombo.CMMouseLeave
 0001:00028294       Elclrcmb.TElColorCombo.SetSelectedColor
 0001:000283CC       Elclrcmb.TElColorCombo
 0001:00028400       Elclrcmb.TElColorCombo.FillItems
 0001:000285CC       Elclrcmb.TElColorCombo.CreateWnd
 0001:00028600       Elclrcmb.TElColorCombo.SetOptions
 0001:00028660       Elclrcmb.TElColorCombo.TriggerTranslateColorName
 0001:0002869C       Elclrcmb.TElColorCombo.Change
 0001:00028820       Elclrcmb.TElColorCombo.Loaded
 0001:00028864       Elclrcmb.TElColorCombo.CMFontChanged
 0001:000288AC       Elclrcmb.TElColorCombo.DoAddMoreColors
 0001:000288E0       Elclrcmb.Finalization
 0001:00028910       Elclrcmb.initialization
 0001:00028994       Elcolormap.TMapChangeLink
 0001:000289F4       Elcolormap.TElColorEntries
 0001:00028A7C       Elcolormap.TElColorMap
 0001:00028BB8       Elcolormap.TElColorMap.GetItems
 0001:00028BEC       Elcolormap.TElColorMap.SetItems
 0001:00028C70       Elcolormap.TElColorMap.RegisterNotifyChange
 0001:00028CA8       Elcolormap.TElColorMap.UnregisterNotifyChange
 0001:00028CE8       Elcolormap.TElColorMap.Edit
 0001:00028E58       Elcolormap.TElColorMap.AddItem
 0001:00028EB8       Elcolormap.TElColorMap.InsertItem
 0001:00028F24       Elcolormap.TElColorMap.DeleteItem
 0001:00028F6C       Elcolormap.TElColorMap.TriggerChangeEvent
 0001:00028F90       Elcolormap.TElColorMap.NotifyLinks
 0001:00029004       Elcolormap.TElColorMap.GetCount
 0001:00029020       Elcolormap.TElColorMap.ClearItems
 0001:00029060       Elcolormap.TElColorMap
 0001:000290BC       Elcolormap.TElColorMap.EntryByID
 0001:00029114       Elcolormap.TElColorMap.MakeID
 0001:000291B0       Elcolormap.TElColorMap.Assign
 0001:00029278       Elcolormap.TElColorMap.ReadData
 0001:0002935C       Elcolormap.TElColorMap.WriteData
 0001:0002944C       Elcolormap.TElColorMap.DefineProperties
 0001:0002949C       Elcolormap.TElColorMap.BeginUpdate
 0001:000294AC       Elcolormap.TElColorMap.EndUpdate
 0001:000294E0       Elcolormap.TElColorMap.SetStorage
 0001:00029534       Elcolormap.TElColorMap.Restore
 0001:000298D0       Elcolormap.TElColorMap.Save
 0001:00029AA8       Elcolormap.TElColorMap.Notification
 0001:00029AE4       Elcolormap.TElColorMap
 0001:00029B64       Elcolormap.TMapChangeLink.TriggerChangeEvent
 0001:00029B88       Elcolormap.Finalization
 0001:00029BB8       Elcolormap.initialization
 0001:00029BC0       Elcontbase.Finalization
 0001:00029BF0       Elcontbase.initialization
 0001:00029BF8       Elcrc32.CRCBuffer
 0001:00029C50       Elcrc32.CRCStr
 0001:00029CD8       Elcrc32.CRC32
 0001:00029D10       ElCRC32._16388
 0001:00029D68       Elcrc32.Finalization
 0001:00029D98       Elcrc32.initialization
 0001:00029DA8       Eldailytip.TElDailyTipForm
 0001:00029FFC       Eldailytip.TElDailyTipDialog
 0001:0002A230       Eldailytip.TElDailyTipDialog.SetIsHTML
 0001:0002A24C       Eldailytip.TElDailyTipDialog.Notification
 0001:0002A288       Eldailytip.TElDailyTipDialog.SetStringPool
 0001:0002A2DC       Eldailytip.TElDailyTipDialog
 0001:0002A340       Eldailytip.TElDailyTipDialog.SetStartID
 0001:0002A36C       Eldailytip.TElDailyTipDialog.SetEndID
 0001:0002A39C       Eldailytip.TElDailyTipDialog.Execute
 0001:0002A68C       Eldailytip.TElDailyTipDialog.SetLinkColor
 0001:0002A6CC       Eldailytip.TElDailyTipDialog.SetLinkStyle
 0001:0002A70C       Eldailytip.TElDailyTipForm.NextBtnClick
 0001:0002A850       Eldailytip.Finalization
 0001:0002A880       Eldailytip.initialization
 0001:0002ABCC       ElDragDrop._16393
 0001:0002AC50       Eldragdrop.TEnumFormatEtc
 0001:0002ACD8       Eldragdrop.TOleDragObject
 0001:0002ADA0       ElDragDrop._16398
 0001:0002AED0       Eldragdrop.IElDropSource
 0001:0002AF58       ElDragDrop._16401
 0001:0002AFDC       Eldragdrop.IElDropTarget
 0001:0002B064       ElDragDrop._16404
 0001:0002B108       Eldragdrop.TElDropTarget
 0001:0002B230       Eldragdrop.TElDragDrop
 0001:0002B610       Eldragdrop.TElDropTarget.Notification
 0001:0002B64C       Eldragdrop.TElDropTarget.SetTarget
 0001:0002BA0C       Eldragdrop.TElDropTarget.DragEnter
 0001:0002BBF0       Eldragdrop.TElDropTarget.DragOver
 0001:0002BD14       Eldragdrop.TElDropTarget.DragLeave
 0001:0002BD88       Eldragdrop.TElDropTarget.Drop
 0001:0002BED4       Eldragdrop.TElDropTarget.HasDataFormat
 0001:0002BF7C       Eldragdrop.TElDropTarget.QueryInterface
 0001:0002BFA8       Eldragdrop.TElDropTarget._AddRef
 0001:0002BFC4       Eldragdrop.TElDropTarget._Release
 0001:0002BFFC       Eldragdrop.TElDropTarget
 0001:0002C0B0       Eldragdrop.TElDropTarget
 0001:0002C0FC       Eldragdrop.TElDropTarget.AfterMessage
 0001:0002C42C       Eldragdrop.TElDropTarget.BeforeMessage
 0001:0002C45C       Eldragdrop.IElDropSource.GiveFeedback
 0001:0002C470       Eldragdrop.IElDropSource.GetData
 0001:0002C624       Eldragdrop.IElDropSource.GetDataHere
 0001:0002C794       Eldragdrop.IElDropSource.QueryGetData
 0001:0002C81C       Eldragdrop.IElDropSource.GetCanonicalFormatEtc
 0001:0002C838       Eldragdrop.IElDropSource.SetData
 0001:0002C84C       Eldragdrop.IElDropSource.EnumFormatEtc
 0001:0002C908       Eldragdrop.IElDropSource.dAdvise
 0001:0002C91C       Eldragdrop.IElDropSource.dUnadvise
 0001:0002C930       Eldragdrop.IElDropSource.EnumdAdvise
 0001:0002C950       Eldragdrop.IElDropSource.QueryContinueDrag
 0001:0002CA90       Eldragdrop.TOleDragObject
 0001:0002CAE4       Eldragdrop.TOleDragObject
 0001:0002CB20       Eldragdrop.TOleDragObject.DataObject
 0001:0002CB40       Eldragdrop.TOleDragObject.HasDataFormat
 0001:0002CC00       Eldragdrop.TOleDragObject.GetFormatData
 0001:0002CD78       Eldragdrop.TOleDragObject.GetString
 0001:0002CF10       ElDragDrop._16440
 0001:0002CF38       Eldragdrop.TOleDragObject.GetFileList
 0001:0002D10C       Eldragdrop.TOleDragObject.GetBitmap
 0001:0002D2D4       Eldragdrop.TOleDragObject.GetDragContent
 0001:0002D35C       Eldragdrop.TElDragDrop.TriggerSourceDragEvent
 0001:0002D3A0       Eldragdrop.IElDropSource
 0001:0002D410       Eldragdrop.IElDropSource
 0001:0002D44C       Eldragdrop.IElDropTarget
 0001:0002D4A0       Eldragdrop.IElDropTarget
 0001:0002D4D8       Eldragdrop.IElDropTarget.DragEnter
 0001:0002D6A4       Eldragdrop.IElDropTarget.DragOver
 0001:0002D7A4       Eldragdrop.IElDropTarget.DragLeave
 0001:0002D814       Eldragdrop.IElDropTarget.Drop
 0001:0002D940       Eldragdrop.TElDragDrop.SetContentType
 0001:0002D96C       Eldragdrop.TElDragDrop
 0001:0002DAAC       Eldragdrop.TElDragDrop
 0001:0002DB2C       Eldragdrop.TElDragDrop.TriggerOleStartDragEvent
 0001:0002DB70       Eldragdrop.TElDragDrop.SetContentLength
 0001:0002DBB0       Eldragdrop.TElDragDrop.Paint
 0001:0002DCB4       Eldragdrop.TElDragDrop.SetPicture
 0001:0002DD14       Eldragdrop.TElDragDrop.SetAutoSize
 0001:0002DD7C       Eldragdrop.TElDragDrop.SetIsDropTarget
 0001:0002E0DC       Eldragdrop.TElDragDrop.OnPictureChange
 0001:0002E134       Eldragdrop.TElDragDrop.TriggerSourceDropEvent
 0001:0002E168       Eldragdrop.TElDragDrop.TriggerPaintEvent
 0001:0002E194       Eldragdrop.TElDragDrop.WMMouseMove
 0001:0002E384       Eldragdrop.TElDragDrop.TriggerTargetDragEvent
 0001:0002E3D4       Eldragdrop.TElDragDrop.TriggerTargetDropEvent
 0001:0002E420       Eldragdrop.TElDragDrop.WMLButtonDown
 0001:0002E478       Eldragdrop.TElDragDrop.WMLButtonUp
 0001:0002E4C0       Eldragdrop.TElDragDrop.CMMouseLeave
 0001:0002E508       Eldragdrop.TElDragDrop.WMCreate
 0001:0002E544       Eldragdrop.TElDragDrop.GetThemedClassName
 0001:0002E574       Eldragdrop.TEnumFormatEtc
 0001:0002E5D8       Eldragdrop.TEnumFormatEtc.Skip
 0001:0002E618       Eldragdrop.TEnumFormatEtc.Reset
 0001:0002E634       Eldragdrop.TEnumFormatEtc.Next
 0001:0002E6B8       Eldragdrop.TEnumFormatEtc.Clone
 0001:0002E708       Eldragdrop.TEnumFormatEtc
 0001:0002E74C       Eldragdrop.Finalization
 0001:0002E77C       Eldragdrop.initialization
 0001:0002E784       Elextbkgnd.ExtDrawBkgnd2
 0001:0002EBC4       Elextbkgnd.ExtDrawBkgnd
 0001:0002F67C       Elextbkgnd.Finalization
 0001:0002F6B8       Elextbkgnd.initialization
 0001:0002F6F4       Elflatctl.TElFlatController
 0001:0002F954       Elflatctl.TElFlatEntry
 0001:0002FB98       Elflatctl.TElFlatEntries
 0001:0002FC50       Elflatctl.TElFlatMultiController
 0001:0002FEE8       Elflatctl.TElFlatMultiController
 0001:0002FF58       Elflatctl.TElFlatMultiController
 0001:00030038       Elflatctl.TElFlatEntries.GetEntries
 0001:0003005C       Elflatctl.TElFlatEntries.SetEntries
 0001:00030080       Elflatctl.TElFlatEntries.GetOwner
 0001:0003009C       Elflatctl.TElFlatEntries.Add
 0001:000300B8       Elflatctl.TElFlatMultiController.SetEntries
 0001:000300E4       ElFlatCtl._16400
 0001:00030230       Elflatctl.TElFlatMultiController.ScanForm
 0001:00030250       Elflatctl.TElFlatMultiController.CMControlListChange
 0001:000303F8       Elflatctl.TElFlatMultiController.SetActive
 0001:00030418       Elflatctl.TElFlatMultiController.GetActive
 0001:00030434       Elflatctl.TElFlatMultiController.SetDesignActive
 0001:00030454       Elflatctl.TElFlatMultiController.GetDesignActive
 0001:00030470       Elflatctl.TElFlatMultiController.AfterProcessHandler
 0001:0003049C       Elflatctl.TElFlatMultiController.SetAutoAddControls
 0001:000304C0       Elflatctl.TElFlatMultiController.SetFlatFocusedScrollbars
 0001:00030540       Elflatctl.TElFlatMultiController.SetActiveBorderType
 0001:000305C0       Elflatctl.TElFlatMultiController.SetInactiveBorderType
 0001:00030640       Elflatctl.TElFlatMultiController.SetLineBorderActiveColor
 0001:000306C0       Elflatctl.TElFlatMultiController.SetLineBorderInactiveColor
 0001:00030740       Elflatctl.TElFlatMultiController.SetBorderSides
 0001:000307C0       Elflatctl.TElFlatMultiController.Loaded
 0001:000308B0       Elflatctl.TElFlatMultiController.SetUseXPThemes
 0001:00030930       Elflatctl.TElFlatEntry.GetActive
 0001:0003094C       Elflatctl.TElFlatEntry.SetActive
 0001:00030980       Elflatctl.TElFlatEntry.GetFlatFocusedScrollbars
 0001:0003099C       Elflatctl.TElFlatEntry.SetFlatFocusedScrollbars
 0001:000309E0       Elflatctl.TElFlatEntry.GetDesignActive
 0001:000309FC       Elflatctl.TElFlatEntry.SetDesignActive
 0001:00030A30       Elflatctl.TElFlatEntry.SetControl
 0001:00030A64       Elflatctl.TElFlatEntry
 0001:00030AC0       Elflatctl.TElFlatEntry
 0001:00030AFC       Elflatctl.TElFlatEntry.Assign
 0001:00030B68       Elflatctl.TElFlatEntry.GetActiveBorderType
 0001:00030B84       Elflatctl.TElFlatEntry.SetActiveBorderType
 0001:00030BA4       Elflatctl.TElFlatEntry.GetInactiveBorderType
 0001:00030BC0       Elflatctl.TElFlatEntry.SetInactiveBorderType
 0001:00030BE0       Elflatctl.TElFlatEntry.SetLineBorderActiveColor
 0001:00030C08       Elflatctl.TElFlatEntry.SetLineBorderInactiveColor
 0001:00030C30       Elflatctl.TElFlatEntry.SetBorderSides
 0001:00030C54       Elflatctl.TElFlatEntry.GetUseXPThemes
 0001:00030C70       Elflatctl.TElFlatEntry.SetUseXPThemes
 0001:00030C90       Elflatctl.TElFlatController.SetFlatFocusedScrollbars
 0001:00030CF4       Elflatctl.TElFlatController.UpdateFrame
 0001:00030DC4       ElFlatCtl._16438
 0001:00030EE4       ElFlatCtl._16439
 0001:00030F30       Elflatctl.TElFlatController.DrawFlatBorder
 0001:000311C8       Elflatctl.TElFlatController.HookAfterProcessHandler
 0001:000313E4       Elflatctl.TElFlatController.SetActive
 0001:00031430       Elflatctl.TElFlatController.GetActive
 0001:0003144C       Elflatctl.TElFlatController.SetControl
 0001:00031518       Elflatctl.TElFlatController.GetControl
 0001:00031540       Elflatctl.TElFlatController.SetDesignActive
 0001:0003158C       Elflatctl.TElFlatController.GetDesignActive
 0001:000315A8       Elflatctl.TElFlatController.SetActiveBorderType
 0001:0003160C       Elflatctl.TElFlatController.SetInactiveBorderType
 0001:00031670       Elflatctl.TElFlatController
 0001:000316B4       Elflatctl.TElFlatController
 0001:00031768       Elflatctl.TElFlatController.SetBorderSides
 0001:000317DC       Elflatctl.TElFlatController.SetLineBorderActiveColor
 0001:00031840       Elflatctl.TElFlatController.SetLineBorderInactiveColor
 0001:000318A4       Elflatctl.TElFlatController.IsControlThemed
 0001:00031918       Elflatctl.TElFlatController.SetUseXPThemes
 0001:00031958       Elflatctl.TElFlatController.CreateThemeHandle
 0001:0003199C       Elflatctl.TElFlatController.IsThemeApplied
 0001:000319C8       Elflatctl.TElFlatController.FreeThemeHandle
 0001:000319EC       Elflatctl.TElFlatController.HookBeforeProcessHandler
 0001:00031AC8       Elflatctl.TElFlatController.Loaded
 0001:00031AFC       Elflatctl.TElFlatController.DoNCPaint
 0001:00031C28       Elflatctl.Finalization
 0001:00031C58       Elflatctl.initialization
 0001:00031D0C       Elfrmpers.TElMinMaxInfo
 0001:00031EB8       Elfrmpers.TElStoredProps
 0001:00031F40       Elfrmpers.TElFormPersist
 0001:000321C0       Elfrmpers.TElMinMaxInfo.SetInfo
 0001:00032278       Elfrmpers.TElMinMaxInfo.GetInfo
 0001:00032318       Elfrmpers.TElFormPersist.OnSavePropData
 0001:00032368       Elfrmpers.TElFormPersist.OnLoadPropData
 0001:000323CC       Elfrmpers.TElFormPersist.OnDelPropData
 0001:000323F8       Elfrmpers.TElFormPersist.InfoChanged
 0001:00032404       ElFrmPers._16400
 0001:0003254C       ElFrmPers._16401
 0001:00032574       Elfrmpers.TElFormPersist.OnAfterHook
 0001:00032884       Elfrmpers.TElFormPersist.OnHook
 0001:00032A2C       Elfrmpers.TElFormPersist.SetStorage
 0001:00032A80       Elfrmpers.TElFormPersist.Save
 0001:00032ADC       Elfrmpers.TElFormPersist.Restore
 0001:00032B38       Elfrmpers.TElFormPersist.TriggerSaveEvent
 0001:00032B5C       Elfrmpers.TElFormPersist.TriggerRestoreEvent
 0001:00032B80       Elfrmpers.TElFormPersist.SetMinMaxInfo
 0001:00032BB0       Elfrmpers.TElFormPersist.SetActive
 0001:00032BF0       Elfrmpers.TElFormPersist.Notification
 0001:00032C68       Elfrmpers.TElFormPersist.SavePosition
 0001:00032F6C       ElFrmPers._16413
 0001:00033094       ElFrmPers._16414
 0001:000330BC       Elfrmpers.TElFormPersist.RestorePosition
 0001:000334C0       Elfrmpers.TElFormPersist.UpdatePosition
 0001:00033600       ElFrmPers._16417
 0001:00033A78       Elfrmpers.TElFormPersist.SaveProps
 0001:00033B28       ElFrmPers._16419
 0001:00033FB8       Elfrmpers.TElFormPersist.RestoreProps
 0001:00034068       Elfrmpers.TElFormPersist.DefineProperties
 0001:000340C0       Elfrmpers.TElFormPersist.ReadPropsList
 0001:000340E0       Elfrmpers.TElFormPersist.WritePropsList
 0001:00034100       Elfrmpers.TElFormPersist.GetPropsToStore
 0001:0003411C       Elfrmpers.TElFormPersist.UpdateTopmost
 0001:00034184       Elfrmpers.TElFormPersist.SetTopMost
 0001:00034254       Elfrmpers.TElFormPersist.Loaded
 0001:000342A0       Elfrmpers.TElFormPersist
 0001:00034314       Elfrmpers.TElFormPersist
 0001:000344D0       Elfrmpers.TElFormPersist.SetFlipped
 0001:00034540       ElFrmPers._16431
 0001:000345B0       Elfrmpers.TElFormPersist.DoFlip
 0001:0003461C       ElFrmPers._16433
 0001:00034758       Elfrmpers.Finalization
 0001:000347B4       Elfrmpers.initialization
 0001:00034830       Elgauge.TElGauge
 0001:00034E80       Elgauge.TElGauge.SetValue
 0001:00034ED4       Elgauge.TElGauge.SetMinValue
 0001:00034F40       Elgauge.TElGauge.SetMaxValue
 0001:00034F98       Elgauge.TElGauge.SetShowPoints
 0001:00034FD0       Elgauge.TElGauge.SetPoints
 0001:00035014       Elgauge.TElGauge.SetBackColor
 0001:0003504C       Elgauge.TElGauge.SetForeColor
 0001:00035084       Elgauge.TElGauge.SetCriticalValue
 0001:000350E4       Elgauge.TElGauge.SetCriticalColor
 0001:0003511C       Elgauge.TElGauge.Notification
 0001:00035164       Elgauge.TElGauge.Paint
 0001:000356E4       Elgauge.TElGauge.SetText
 0001:00035754       Elgauge.TElGauge.ImageFormChange
 0001:0003576C       Elgauge.TElGauge.SetImageForm
 0001:000357F8       Elgauge.TElGauge.SetGaugeKind
 0001:00035830       Elgauge.TElGauge.SetTransparent
 0001:00035894       Elgauge.TElGauge
 0001:000358EC       Elgauge.TElGauge
 0001:000359F8       Elgauge.TElGauge.IFMRepaintChildren
 0001:00035A1C       Elgauge.Finalization
 0001:00035A4C       Elgauge.initialization
 0001:00035A54       Elgraphs.TDataEntry
 0001:00035AE8       Elgraphs.TElGraph
 0001:000360F8       Elgraphs.TDataEntry.SetVisible
 0001:00036134       Elgraphs.TDataEntry.SetColor
 0001:00036178       Elgraphs.TDataEntry.SetName
 0001:00036208       Elgraphs.TDataEntry
 0001:00036284       Elgraphs.TDataEntry
 0001:000362C0       Elgraphs.TDataEntry.AddValue
 0001:00036354       Elgraphs.TDataEntry.GetValue
 0001:00036378       Elgraphs.TDataEntry.SetMinGrid
 0001:000363BC       Elgraphs.TDataEntry.SetMaxGrid
 0001:00036400       Elgraphs.TDataEntry.CalcMinMax
 0001:000364D0       Elgraphs.TDataEntry.GetValueCount
 0001:000364EC       Elgraphs.TDataEntry.GetLimit
 0001:00036508       Elgraphs.TDataEntry.SetLimit
 0001:00036534       Elgraphs.TDataEntry.Reset
 0001:00036554       Elgraphs.TElGraph.GetDataList
 0001:0003657C       Elgraphs.TElGraph.SetImageForm
 0001:000365D4       Elgraphs.TElGraph.SetShowLegend
 0001:0003660C       Elgraphs.TElGraph.SetShowMinMax
 0001:00036644       Elgraphs.TElGraph.GetEntriesCount
 0001:00036664       Elgraphs.TElGraph.SetShowGrid
 0001:0003669C       Elgraphs.TElGraph.Print
 0001:000366D8       Elgraphs.TElGraph.CreateEntry
 0001:00036700       Elgraphs.TElGraph.AddEntry
 0001:00036728       Elgraphs.TElGraph.InsertEntry
 0001:0003675C       Elgraphs.TElGraph.DeleteEntry
 0001:00036800       Elgraphs.TElGraph.Refresh
 0001:00036820       Elgraphs.TElGraph.DoDrawGraph
 0001:00037568       Elgraphs.TElGraph.Paint
 0001:00037588       Elgraphs.TElGraph.GetLegendRect
 0001:00037620       Elgraphs.TElGraph.GetMinMaxRect
 0001:000376D4       Elgraphs.TElGraph.SetLegendAtRight
 0001:00037714       Elgraphs.TElGraph.SetLegendWidth
 0001:00037754       Elgraphs.TElGraph.GetMainRect
 0001:000377E0       Elgraphs.TElGraph.SetLegendBkColor
 0001:00037830       Elgraphs.TElGraph.Notification
 0001:00037878       Elgraphs.TElGraph.TriggerResizeEvent
 0001:000378A4       Elgraphs.TElGraph.SetMinMaxEntry
 0001:000378E4       Elgraphs.TElGraph.SetHGridLines
 0001:0003791C       Elgraphs.TElGraph.SetVGridLines
 0001:00037954       Elgraphs.TElGraph.GetColumnEntry
 0001:00037970       Elgraphs.TElGraph.SetColumnEntry
 0001:000379A8       Elgraphs.TElGraph.WMEraseBkgnd
 0001:000379C4       Elgraphs.TElGraph.SetShowTimeouts
 0001:000379FC       Elgraphs.TElGraph.SetBounds
 0001:00037A98       Elgraphs.TElGraph.GetTransparent
 0001:00037AB8       Elgraphs.TElGraph.SetTransparent
 0001:00037B10       Elgraphs.TElGraph
 0001:00037B50       Elgraphs.TElGraph
 0001:00037C10       Elgraphs.TElGraph.IFMRepaintChildren
 0001:00037C34       Elgraphs.Finalization
 0001:00037C64       Elgraphs.initialization
 0001:00037C6C       ___CRTL_VCL_Init
 0001:00037CB0       ___CRTL_VCL_Exit
 0001:00037CB4       ___CRTL_VCLLIB_Linkage
 0001:00037CB8       ___CRTL_VCL_Sharemem
 0001:00037D14       ___CRTL_VCL_HookSystem
 0001:00037D70       __ExceptInit
 0001:00037DBC       __GetExceptDLLinfoInternal
 0001:00037DE4       __InitExceptBlockLDTC
 0001:00037E1D       __ExitExceptBlock
 0001:00037E2B       __ExceptionHandler
 0001:00037E54       ___CRTL_DLL_Lock
 0001:00037E78       ___CRTL_DLL_Unlock
 0001:00037E90       Elhashlist.EElHashListError
 0001:00038004       Elhashlist.TElHashList
 0001:00038088       Elhashlist.TElHashList.AddItem
 0001:000380E4       Elhashlist.TElHashList.DeleteItem
 0001:00038234       Elhashlist.TElHashList.InsertItem
 0001:000384E0       Elhashlist.TElHashList.GetItem
 0001:000385B8       Elhashlist.TElHashList.GetIndex
 0001:00038714       Elhashlist.TElHashList.SetCapacity
 0001:0003879C       Elhashlist.TElHashList.Grow
 0001:000387F4       Elhashlist.TElHashList.Clear
 0001:000388A0       Elhashlist.TElHashList.GetByIndex
 0001:00038908       Elhashlist.TElHashList.SetHashType
 0001:00038944       Elhashlist.TElHashList.SetQuickHash
 0001:00038978       Elhashlist.TElHashList.CalcQuickHash
 0001:000389F8       Elhashlist.TElHashList.SetAutoClearObjects
 0001:00038A1C       Elhashlist.TElHashList
 0001:00038A68       Elhashlist.TElHashList
 0001:00038AB8       Elhashlist.Finalization
 0001:00038AE8       Elhashlist.initialization
 0001:00038E0C       Elheader.EElHeaderError
 0001:00038FA4       Elheader.TElHeaderSection
 0001:00039544       Elheader.TElHeaderSections
 0001:000398BC       Elheader.TCustomElHeader
 0001:00039B20       Elheader.TElHeader
 0001:0003A61C       Elheader.TElHeaderSection
 0001:0003A700       Elheader.TElHeaderSection.UpdateSection
 0001:0003A7C8       Elheader.TElHeaderSection.SetSortMode
 0001:0003A880       Elheader.TElHeaderSection.SetMaxWidth
 0001:0003A8C0       Elheader.TElHeaderSection.SetMinWidth
 0001:0003A900       Elheader.TElHeaderSection.SetWidth
 0001:0003AB44       Elheader.TElHeaderSection.SetLookupEnabled
 0001:0003ABC0       Elheader.TElHeaderSection.GetVisible
 0001:0003AC14       Elheader.TElHeaderSection.SetVisible
 0001:0003AE74       Elheader.TElHeaderSection.GetWidth
 0001:0003AE90       Elheader.TElHeaderSection.GetLeft
 0001:0003AEE8       Elheader.TElHeaderSection.GetRight
 0001:0003AF60       Elheader.TElHeaderSection.SetText
 0001:0003B00C       Elheader.TElHeaderSection.SetStyle
 0001:0003B050       Elheader.TElHeaderSection.SetAlignment
 0001:0003B094       Elheader.TElHeaderSection.GetIndex
 0001:0003B0B0       Elheader.TElHeaderSection.Assign
 0001:0003B2C8       Elheader.TElHeaderSection.GetPosition
 0001:0003B304       Elheader.TElHeaderSection.SetImageIndex
 0001:0003B34C       Elheader.TElHeaderSection.SetResizable
 0001:0003B38C       Elheader.TElHeaderSection.SetSaveSize
 0001:0003B3A8       Elheader.TElHeaderSection.SetEditable
 0001:0003B3E4       Elheader.TElHeaderSection.SetFieldName
 0001:0003B45C       Elheader.TElHeaderSection.SetFieldType
 0001:0003B498       Elheader.TElHeaderSection.SetProtected
 0001:0003B4D4       Elheader.TElHeaderSection.SetExpandable
 0001:0003B5B8       Elheader.TElHeaderSection.SetExpanded
 0001:0003B610       Elheader.TElHeaderSection.SetParentSection
 0001:0003B690       Elheader.TElHeaderSection.SetPopupMenu
 0001:0003B6C8       Elheader.TElHeaderSection.SetParentColor
 0001:0003B6F4       Elheader.TElHeaderSection.SetColor
 0001:0003B72C       Elheader.TElHeaderSection.SetFontColor
 0001:0003B764       Elheader.TElHeaderSection.SetUseMainStyle
 0001:0003B7B4       Elheader.TElHeaderSection.SetTextLayout
 0001:0003B7E0       Elheader.TElHeaderSection.SetFilterEnabled
 0001:0003B85C       Elheader.TElHeaderSection.SetAutoSize
 0001:0003B898       Elheader.TElHeaderSection.SetLookupList
 0001:0003B8B8       Elheader.TElHeaderSection.SetFilterIsActive
 0001:0003B8F0       Elheader.TElHeaderSection.GetLocked
 0001:0003B914       Elheader.TElHeaderSection.GetOwner
 0001:0003B934       Elheader.TElHeaderSection
 0001:0003B97C       Elheader.TElHeaderSection.SetShowSortMark
 0001:0003B9B8       Elheader.TElHeaderSections
 0001:0003BA18       Elheader.TElHeaderSections
 0001:0003BA5C       Elheader.TElHeaderSections.Clear
 0001:0003BA94       Elheader.TElHeaderSections.DefineProperties
 0001:0003BAE4       Elheader.TElHeaderSections.CreateSection
 0001:0003BB0C       Elheader.TElHeaderSections.AddSection
 0001:0003BB30       Elheader.TElHeaderSections.InsertSection
 0001:0003BC28       Elheader.TElHeaderSections.DeleteSection
 0001:0003BD58       Elheader.TElHeaderSections.MoveSection
 0001:0003BE58       Elheader.TElHeaderSections.GetCount
 0001:0003BE74       Elheader.TElHeaderSections.SetSection
 0001:0003BE88       Elheader.TElHeaderSections.GetSectionByIntTag
 0001:0003BEF0       Elheader.TElHeaderSections.GetSection
 0001:0003BF14       Elheader.TElHeaderSections.GetSectionByPos
 0001:0003BF38       Elheader.TElHeaderSections.WriteData
 0001:0003C264       Elheader.TElHeaderSections.ReadData
 0001:0003C284       Elheader.TElHeaderSections.FrameReadData
 0001:0003C2A4       Elheader.TElHeaderSections.IntReadData
 0001:0003D294       Elheader.TElHeaderSections.LoadFromStream
 0001:0003D2D4       Elheader.TElHeaderSections.SaveToStream
 0001:0003D2F0       Elheader.TElHeaderSections.SaveToFile
 0001:0003D388       Elheader.TElHeaderSections.LoadFromFile
 0001:0003D41C       Elheader.TElHeaderSections.LastVisibleSection
 0001:0003D460       Elheader.TElHeaderSections.GetPrevVisibleSection
 0001:0003D4CC       Elheader.TElHeaderSections.Assign
 0001:0003D610       Elheader.TElHeaderSections.GetOwner
 0001:0003D62C       Elheader.TElHeaderSections.FindSection
 0001:0003D694       Elheader.TCustomElHeader
 0001:0003D854       Elheader.TCustomElHeader
 0001:0003D900       Elheader.TCustomElHeader.CreateSections
 0001:0003D924       Elheader.TCustomElHeader.GetSectionAtEx
 0001:0003DAAC       Elheader.TCustomElHeader.GetSectionAt
 0001:0003DBB8       Elheader.TCustomElHeader.InvalidateRight
 0001:0003DC7C       Elheader.TCustomElHeader.GetColumnsWidth
 0001:0003DD20       Elheader.TCustomElHeader.InResizeArea
 0001:0003DE70       Elheader.TCustomElHeader.WMCancelMode
 0001:0003DEFC       Elheader.TCustomElHeader.WMLButtonDown
 0001:0003DF30       Elheader.TCustomElHeader.WMMouseMove
 0001:0003DF64       Elheader.TCustomElHeader.WMLButtonUp
 0001:0003DF98       Elheader.TCustomElHeader.CMMouseLeave
 0001:0003DFBC       Elheader.TCustomElHeader.CMMouseEnter
 0001:0003DFE0       Elheader.TCustomElHeader.CMDrag
 0001:0003E088       Elheader.TCustomElHeader.GetSectionRect
 0001:0003E104       Elheader.TCustomElHeader.DoGetPicture
 0001:0003E148       Elheader.TCustomElHeader.MeasureSectionWidth
 0001:0003E484       Elheader.TCustomElHeader.RedrawSection
 0001:0003F7A0       Elheader.TCustomElHeader.RedrawSections
 0001:0003FAF4       Elheader.TCustomElHeader.CalcHeaderHeight
 0001:0003FBF0       Elheader.TCustomElHeader.AdjustHeaderHeight
 0001:0003FC24       Elheader.TCustomElHeader.AdjustStickySize
 0001:0003FF8C       Elheader.TCustomElHeader.GetResizableWidth
 0001:00040008       Elheader.TCustomElHeader.MarkStickySections
 0001:00040094       Elheader.TCustomElHeader.Resize
 0001:00040298       Elheader.TCustomElHeader.AllocateLineDC
 0001:000402C0       Elheader.TCustomElHeader.ReleaseLineDC
 0001:000402E4       Elheader.TCustomElHeader.DrawLine
 0001:00040334       Elheader.TCustomElHeader.Paint
 0001:0004035C       Elheader.TCustomElHeader.SetSections
 0001:00040380       Elheader.TCustomElHeader.SetLockHeight
 0001:000403D4       Elheader.TCustomElHeader.SetFilterColor
 0001:00040460       Elheader.TCustomElHeader.TriggerSectionAutoSizeEvent
 0001:00040494       Elheader.TCustomElHeader.TriggerMeasureSectionEvent
 0001:000404D0       Elheader.TCustomElHeader.TriggerFilterCallEvent
 0001:00040504       Elheader.TCustomElHeader.WMLButtonDblClk
 0001:00040538       Elheader.TCustomElHeader.SetActiveFilterColor
 0001:000405C4       Elheader.TCustomElHeader.SetFlat
 0001:00040604       Elheader.TCustomElHeader.CMHintShow
 0001:00040630       Elheader.TCustomElHeader.SetImages
 0001:00040710       Elheader.TCustomElHeader.OnImageListChange
 0001:00040754       Elheader.TCustomElHeader.DoVisChanged
 0001:00040788       Elheader.TCustomElHeader.DoSectionDelete
 0001:000407BC       Elheader.TCustomElHeader.DoSectionMove
 0001:00040800       Elheader.TCustomElHeader.DoSectionResizing
 0001:00040844       Elheader.TCustomElHeader.DoSectionResize
 0001:00040878       Elheader.TCustomElHeader.DoSectionClick
 0001:000408AC       Elheader.TCustomElHeader.DoSectionDraw
 0001:00040900       Elheader.TCustomElHeader.DoNotifySectionChange
 0001:0004093C       Elheader.TCustomElHeader.OnFontChange
 0001:0004098C       Elheader.TCustomElHeader.DoSectionCreate
 0001:000409C0       Elheader.TCustomElHeader.GetDragImage
 0001:00040BF4       Elheader.TCustomElHeader.SetTracking
 0001:00040C58       Elheader.TCustomElHeader.WMEraseBkgnd
 0001:00040C74       Elheader.TCustomElHeader.WMKeyDown
 0001:00040CDC       Elheader.TCustomElHeader.Save
 0001:00040F70       Elheader.TCustomElHeader.Restore
 0001:00041318       Elheader.TCustomElHeader.EditExit
 0001:000413F4       Elheader.TCustomElHeader.EditChange
 0001:000414B8       Elheader.TCustomElHeader.EditKeyUp
 0001:000414F8       Elheader.TCustomElHeader.EditKeyDown
 0001:00041700       Elheader.TCustomElHeader.SetStorage
 0001:00041764       Elheader.TCustomElHeader.Notification
 0001:00041858       Elheader.TCustomElHeader.DoSectionExpandEvent
 0001:0004188C       Elheader.TCustomElHeader.DoSectionCollapseEvent
 0001:000418C0       Elheader.TCustomElHeader.DoSectionLookupEvent
 0001:000418FC       Elheader.TCustomElHeader.DoSectionLookupDoneEvent
 0001:00041970       Elheader.TCustomElHeader.WMRButtonUp
 0001:000419B0       Elheader.TCustomElHeader.WMRButtonDown
 0001:000419F0       Elheader.TCustomElHeader.Loaded
 0001:00041AF0       Elheader.TCustomElHeader.WMSize
 0001:00041B1C       Elheader.TCustomElHeader.SetStickySections
 0001:00041BFC       Elheader.TCustomElHeader.IsLoading
 0001:00041C58       Elheader.TCustomElHeader.SetRightAlignedText
 0001:00041C8C       Elheader.TCustomElHeader.CreateParams
 0001:00041CD0       Elheader.TCustomElHeader.SetRightAlignedOrder
 0001:00041DC4       Elheader.TCustomElHeader.CMSysColorChange
 0001:00041DE8       Elheader.TCustomElHeader.GetIsDesigning
 0001:00041E08       Elheader.TCustomElHeader.SetIsDesigning
 0001:00041E34       Elheader.TCustomElHeader.SetInvertSortArrows
 0001:00041E74       Elheader.TCustomElHeader.WMPaint
 0001:00042030       Elheader.TCustomElHeader.ImageFormChange
 0001:00042054       Elheader.TCustomElHeader.SetImageForm
 0001:0004212C       Elheader.TCustomElHeader.SetLeftPos
 0001:0004216C       Elheader.TCustomElHeader.SetLockedSection
 0001:000421CC       Elheader.TCustomElHeader.CMExit
 0001:000421F0       Elheader.TElHeaderSections.GetSectionsOrder
 0001:0004232C       Elheader.TElHeaderSections.SetSectionsOrder
 0001:00042504       Elheader.TElHeaderSections.Reindex
 0001:00042548       Elheader.TCustomElHeader.BeginUpdate
 0001:0004255C       Elheader.TCustomElHeader.EndUpdate
 0001:000425CC       Elheader.TCustomElHeader.Update
 0001:000425EC       Elheader.TCustomElHeader.Setup
 0001:00042654       Elheader.TCustomElHeader.SetWrapCaptions
 0001:00042688       Elheader.TCustomElHeader.IntLButtonDown
 0001:00042D48       Elheader.TCustomElHeader.IntLButtonUp
 0001:0004308C       Elheader.TCustomElHeader.IntRButtonDown
 0001:00043144       Elheader.TCustomElHeader.IntRButtonUp
 0001:00043168       Elheader.TCustomElHeader.IntLButtonDblClick
 0001:000431B8       ElHeader._16582
 0001:00043228       Elheader.TCustomElHeader.IntMouseMove
 0001:00043CE0       Elheader.TCustomElHeader.IntMouseEnter
 0001:00043D24       Elheader.TCustomElHeader.IntMouseLeave
 0001:00043DD4       Elheader.TCustomElHeader.IntExit
 0001:00043E4C       Elheader.TCustomElHeader.IntSize
 0001:00043ED0       Elheader.TCustomElHeader.IntHintShow
 0001:000440F0       Elheader.TCustomElHeader.TriggerImageNeededEvent
 0001:00044160       Elheader.TCustomElHeader.CreateHandle
 0001:0004417C       Elheader.TCustomElHeader.IFMRepaintChildren
 0001:000441AC       Elheader.TCustomElHeader.GetThemedClassName
 0001:000441E0       Elheader.TCustomElHeader.SetHint
 0001:00044318       Elheader.Finalization
 0001:0004437C       Elheader.initialization
 0001:000444C8       Elhint.TElHintWindow
 0001:00044634       Elhint.SetHintWindow
 0001:00044660       ElHint._16388
 0001:0004468C       Elhint.TElHintWindow.WMNCPAINT
 0001:0004469C       Elhint.TElHintWindow.Paint
 0001:000449B0       ElHint._16391
 0001:000449C4       ElHint._16392
 0001:00044B84       Elhint.TElHintWindow.ActivateHint
 0001:00044E04       Elhint.TElHintWindow.CalcHintRect
 0001:00044E5C       Elhint.TElHintWindow.WMEraseBkgnd
 0001:00044E78       Elhint.TElHintWindow
 0001:00044EAC       Elhint.TElHintWindow
 0001:00044EF4       Elhint.Finalization
 0001:00044F24       Elhint.initialization
 0001:00044F2C       Elhintwnd.TElHintWindow
 0001:00045190       Elhintwnd.GetUnicodeHint
 0001:00045298       Elhintwnd.TElHintWindow.TriggerImageNeededEvent
 0001:00045308       Elhintwnd.TElHintWindow.CalcHintRectW
 0001:000454F0       Elhintwnd.TElHintWindow.ActivateHintW
 0001:0004560C       Elhintwnd.TElHintWindow.CalcHintRect
 0001:0004580C       Elhintwnd.TElHintWindow.Paint
 0001:000459C4       Elhintwnd.TElHintWindow.SetFont
 0001:000459E8       Elhintwnd.TElHintWindow
 0001:00045A38       Elhintwnd.TElHintWindow
 0001:00045AC4       Elhintwnd.TElHintWindow.TriggerLinkClickEvent
 0001:00045B2C       Elhintwnd.TElHintWindow.MouseDown
 0001:00045CA4       Elhintwnd.TElHintWindow.CMTextChanged
 0001:00045CF8       Elhintwnd.TElHintWindow.SetWordWrap
 0001:00045D68       Elhintwnd.Finalization
 0001:00045D98       Elhintwnd.initialization
 0001:00045DE4       Elhook.TElHook
 0001:00045F50       ElHook._16388
 0001:00046070       ElHook._16389
 0001:00046098       ElHook._16390
 0001:000460F0       ElHook._16391
 0001:00046114       ElHook._16392
 0001:0004616C       ElHook._16393
 0001:00046190       ElHook._16394
 0001:000461F4       ElHook._16395
 0001:0004626C       ElHook._16396
 0001:00046310       ElHook._16397
 0001:00046364       ElHook._16398
 0001:00046418       ElHook._16399
 0001:00046494       ElHook._16400
 0001:000464EC       ElHook._16401
 0001:00046604       ElHook._16402
 0001:00046668       ElHook._16403
 0001:00046684       Elhook.TElHook.SetControl
 0001:000466F4       Elhook.TElHook.SetActive
 0001:00046810       Elhook.TElHook.Notification
 0001:0004684C       Elhook.TElHook.HookControl
 0001:0004685C       Elhook.TElHook.TriggerBeforeProcessEvent
 0001:00046890       Elhook.TElHook.TriggerAfterProcessEvent
 0001:000468C4       Elhook.TElHook.SetDesignActive
 0001:00046920       Elhook.TElHook
 0001:00046964       Elhook.Finalization
 0001:000469A8       Elhook.initialization
 0001:00046A54       Elhstgrm.THistoBuffer
 0001:00046AD8       Elhstgrm.TElHistogram
 0001:000471B0       Elhstgrm.THistoBuffer
 0001:00047200       Elhstgrm.THistoBuffer
 0001:00047244       Elhstgrm.THistoBuffer.Add
 0001:00047260       Elhstgrm.THistoBuffer.Average
 0001:000472C8       Elhstgrm.THistoBuffer.Clear
 0001:000472F0       Elhstgrm.THistoBuffer.Push
 0001:0004734C       Elhstgrm.THistoBuffer.SetBufSize
 0001:000473B4       Elhstgrm.TElHistogram
 0001:00047538       Elhstgrm.TElHistogram
 0001:000475AC       Elhstgrm.TElHistogram.GetBufferSize
 0001:000475CC       Elhstgrm.TElHistogram.GetTransparent
 0001:000475EC       Elhstgrm.TElHistogram.Notification
 0001:00047634       ElHstgrm._16402
 0001:00047728       ElHstgrm._16403
 0001:00047B6C       Elhstgrm.TElHistogram.Paint
 0001:00047F94       Elhstgrm.TElHistogram.ImageFormChange
 0001:00047FAC       Elhstgrm.TElHistogram.SetImageForm
 0001:00048048       Elhstgrm.TElHistogram.SetBgColor
 0001:00048080       Elhstgrm.TElHistogram.SetBufferSize
 0001:000480B4       Elhstgrm.TElHistogram.SetColor2
 0001:000480E0       Elhstgrm.TElHistogram.SetDoubleMode
 0001:00048118       Elhstgrm.TElHistogram.SetGrColor
 0001:00048150       Elhstgrm.TElHistogram.SetHGrid
 0001:00048188       Elhstgrm.TElHistogram.SetScale
 0001:000481C0       Elhstgrm.TElHistogram.SetShowZeroValues
 0001:000481F8       Elhstgrm.TElHistogram.SetSmooth
 0001:00048230       Elhstgrm.TElHistogram.SetTransparent
 0001:00048288       Elhstgrm.TElHistogram.SetUseBuffer2
 0001:000482C0       Elhstgrm.TElHistogram.SetVGrid
 0001:000482F8       Elhstgrm.TElHistogram.SetBorderStyle
 0001:0004832C       Elhstgrm.TElHistogram.IFMRepaintChildren
 0001:00048350       Elhstgrm.Finalization
 0001:00048380       Elhstgrm.initialization
 0001:00048388       Elimglst.TElImageList
 0001:00048448       Elimglst.DecodeRLE
 0001:0004880C       ElImgLst._16388
 0001:0004888C       ElImgLst._16389
 0001:00048918       ElImgLst._16390
 0001:00048978       Elimglst.EncodeRLE
 0001:00048B04       Elimglst.TElImageList.ReadLeft
 0001:00048B34       Elimglst.TElImageList.ReadTop
 0001:00048B64       Elimglst.TElImageList.WriteLeft
 0001:00048B84       Elimglst.TElImageList.WriteTop
 0001:00048BA4       ElImgLst._16396
 0001:00048BC0       Elimglst.TElImageList.DefineProperties
 0001:00048CA0       ElImgLst._16398
 0001:000492CC       Elimglst.TElImageList.ReadImg
 0001:00049440       Elimglst.TElImageList.WriteImg
 0001:000497F4       ElImgLst._16403
 0001:00049850       Elimglst.TElImageList.Equal
 0001:00049950       Elimglst.TElImageList.GetFullImages
 0001:00049B08       Elimglst.TElImageList
 0001:00049B50       Elimglst.Finalization
 0001:00049B80       Elimglst.initialization
 0001:00049BF8       Elini.EElIniError
 0001:00049C74       Elini.TElIniEntry
 0001:00049D04       Elini.TElIniFile
 0001:0004A000       Elini.TElIniEntry
 0001:0004A068       Elini.TElIniEntry
 0001:0004A0A4       Elini.TElIniEntry.GetSubCount
 0001:0004A0C0       Elini.TElIniEntry.GetValue
 0001:0004A1AC       Elini.TElIniEntry.Invalidate
 0001:0004A208       Elini.TElIniEntry.OnValueDelete
 0001:0004A234       Elini.TElIniEntry.SetParent
 0001:0004A2A4       Elini.TElIniFile
 0001:0004A3A0       Elini.TElIniFile
 0001:0004A454       Elini.TElIniFile.Clear
 0001:0004A508       Elini.TElIniFile.ClearKey
 0001:0004A6D8       Elini.TElIniFile.CreateValue
 0001:0004A834       Elini.TElIniFile.Delete
 0001:0004AA60       Elini.TElIniFile.EnumSubKeys
 0001:0004AB98       Elini.TElIniFile.EnumValues
 0001:0004AD20       Elini.TElIniFile.FullKey
 0001:0004AE38       Elini.TElIniFile.GetRegRoot
 0001:0004AE9C       Elini.TElIniFile.GetValueEntry
 0001:0004AFCC       Elini.TElIniFile.GetValueType
 0001:0004B12C       Elini.TElIniFile.KeyExists
 0001:0004B1AC       Elini.TElIniFile.IntLoadBinKey
 0001:0004B4F8       Elini.TElIniFile.IntLoadKey
 0001:0004BA00       Elini.TElIniFile.LoadFromStream
 0001:0004BAEC       Elini.TElIniFile.Load
 0001:0004BC20       Elini.TElIniFile.Loaded
 0001:0004BC74       Elini.TElIniFile.MoveEntry
 0001:0004BDB0       Elini.TElIniFile.OpenKey
 0001:0004C3D0       Elini.TElIniFile.OwnKey
 0001:0004C4A8       Elini.TElIniFile.ParentKey
 0001:0004C57C       Elini.TElIniFile.ParseLine
 0001:0004C748       Elini.TElIniFile.ReadBinary
 0001:0004C8A8       Elini.TElIniFile.ReadBool
 0001:0004CA18       Elini.TElIniFile.ReadInteger
 0001:0004CB98       Elini.TElIniFile.ReadMultiString
 0001:0004CD74       ElIni._16425
 0001:0004CE60       ElIni._16426
 0001:0004D008       Elini.TElIniFile.ReadObject
 0001:0004D360       Elini.TElIniFile.ReadRect
 0001:0004D41C       Elini.TElIniFile.ReadColor
 0001:0004D60C       Elini.TElIniFile.ReadString
 0001:0004DA24       Elini.TElIniFile.RenameKey
 0001:0004DB90       Elini.TElIniFile.RenameValue
 0001:0004DCF8       ElIni._16433
 0001:0004DD0C       ElIni._16435
 0001:0004DD2C       Elini.TElIniFile.IntSaveBinKey
 0001:0004E090       Elini.TElIniFile.IntSaveKey
 0001:0004E410       Elini.TElIniFile.SaveToStream
 0001:0004E4EC       ElIni._16440
 0001:0004E564       ElIni._16441
 0001:0004E58C       Elini.TElIniFile.Save
 0001:0004E6DC       Elini.TElIniFile.SetCurrentKey
 0001:0004E70C       Elini.TElIniFile.SetDelimiter
 0001:0004E7CC       Elini.TElIniFile.SetLazyWrite
 0001:0004E808       Elini.TElIniFile.SetPath
 0001:0004E928       Elini.TElIniFile.SetRegRoot
 0001:0004E9C4       Elini.TElIniFile.SetSimple
 0001:0004EAB4       Elini.TElIniFile.SetUseRegistry
 0001:0004EB9C       Elini.TElIniFile.SetValueType
 0001:0004EC9C       Elini.TElIniFile.SubKeysCount
 0001:0004ED20       Elini.TElIniFile.ValueExists
 0001:0004EE28       Elini.TElIniFile.ValuesCount
 0001:0004EEAC       Elini.TElIniFile.WriteBinary
 0001:0004F030       Elini.TElIniFile.WriteBool
 0001:0004F1A0       Elini.TElIniFile.WriteInteger
 0001:0004F2F0       Elini.TElIniFile.WriteMultiString
 0001:0004F4B4       ElIni._16458
 0001:0004F598       ElIni._16459
 0001:0004F714       Elini.TElIniFile.WriteObject
 0001:0004F9EC       Elini.TElIniFile.WriteRect
 0001:0004FA84       Elini.TElIniFile.WriteColor
 0001:0004FB0C       Elini.TElIniFile.WriteString
 0001:0004FCA0       Elini.TElIniFile.TriggerBeforeSaveEvent
 0001:0004FCC4       Elini.TElIniFile.TriggerAfterLoadEvent
 0001:0004FCE8       Elini.TElIniFile.TriggerBeforeLoadEvent
 0001:0004FD0C       Elini.TElIniFile.TriggerAfterSaveEvent
 0001:0004FD30       Elini.TElIniFile.ReadDouble
 0001:0004FEEC       Elini.TElIniFile.WriteDouble
 0001:00050048       Elini.Finalization
 0001:00050090       Elini.initialization
 0001:0005017C       Elfolderdlg.TElFolderDialog
 0001:0005044C       ElFolderDlg._16389
 0001:000504CC       Elfolderdlg.TElFolderDialog
 0001:00050528       Elfolderdlg.TElFolderDialog
 0001:000505A8       Elfolderdlg.TElFolderDialog.Execute
 0001:00050798       Elfolderdlg.TElFolderDialog.GetFolder
 0001:000507D8       Elfolderdlg.TElFolderDialog.GetParent
 0001:0005085C       Elfolderdlg.TElFolderDialog.Notification
 0001:00050890       Elfolderdlg.TElFolderDialog.SetFolder
 0001:000508C4       Elfolderdlg.TElFolderDialog.SetParent
 0001:00050928       Elfolderdlg.TElFolderDialog.SetRootFolder
 0001:00050944       Elfolderdlg.TElFolderDialog.SetSelectionPIDL
 0001:00050970       Elfolderdlg.TElFolderDialog.DefaultHandler
 0001:000509CC       Elfolderdlg.TElFolderDialog.Perform
 0001:00050A14       ElFolderDlg._16403
 0001:00050AA4       ElFolderDlg._16404
 0001:00050AD4       ElFolderDlg._16405
 0001:00050B04       Elfolderdlg.TElFolderDialog.WinInitialized
 0001:00050CE0       Elfolderdlg.TElFolderDialog.WinSelChanged
 0001:00050DF0       Elfolderdlg.TElFolderDialog.SetStatusText
 0001:00050E48       Elfolderdlg.Finalization
 0001:00050E78       Elfolderdlg.initialization
 0001:00050FF0       Elinputdlg.TElInputDialog
 0001:000510A0       ElInputDlg._16387
 0001:00051110       Elinputdlg.InputQuery
 0001:000511B8       Elinputdlg.TElInputDialog.Execute
 0001:000516A8       Elinputdlg.TElInputDialog.SetFont
 0001:000516DC       Elinputdlg.TElInputDialog.SetParentFont
 0001:0005172C       Elinputdlg.TElInputDialog
 0001:000517A0       Elinputdlg.TElInputDialog.FontChange
 0001:000517BC       Elinputdlg.TElInputDialog
 0001:000517F8       Elinputdlg.Finalization
 0001:00051828       ElInputDlg._16396
 0001:00051838       Elinputdlg.initialization
 0001:000518D8       Ellist.TElList
 0001:00051974       ElList._16389
 0001:000519D0       ElList._16390
 0001:000519F8       ElList._16391
 0001:00051A58       ElList._16392
 0001:00051B48       ElList._16393
 0001:00051C28       Ellist.TElList
 0001:00051C94       Ellist.TElList
 0001:00051CD0       Ellist.TElList.Add
 0001:00051D40       Ellist.TElList.Assign
 0001:00051DB8       Ellist.TElList.Clear
 0001:00051E88       Ellist.TElList.IntDelete
 0001:00051EF0       Ellist.TElList.DeleteRange
 0001:00051FE4       Ellist.TElList.Delete
 0001:000520A4       ElList._16402
 0001:000520AC       Ellist.TElList.Error
 0001:000520EC       Ellist.TElList.Exchange
 0001:00052168       Ellist.TElList.Expand
 0001:000521BC       Ellist.TElList.First
 0001:000521D8       Ellist.TElList.FastGet
 0001:000521FC       Ellist.TElList.Get
 0001:00052238       Ellist.TElList.Grow
 0001:00052270       Ellist.TElList.IndexOf
 0001:000522BC       Ellist.TElList.IndexOfBack
 0001:00052310       Ellist.TElList.IndexOfFrom
 0001:00052378       Ellist.TElList.Insert
 0001:00052424       Ellist.TElList.Last
 0001:00052458       Ellist.TElList.Move
 0001:000524B4       Ellist.TElList.MoveRange
 0001:0005264C       Ellist.TElList.Pack
 0001:0005268C       Ellist.TElList.Put
 0001:000526FC       Ellist.TElList.Remove
 0001:00052794       Ellist.TElList.SetCapacity
 0001:000527E8       Ellist.TElList.SetCount
 0001:0005285C       Ellist.TElList.Sort
 0001:000528A0       Ellist.TElList.SortC
 0001:000528E4       Ellist.TElList.TriggerDeleteEvent
 0001:00052910       Ellist.Finalization
 0001:00052940       Ellist.initialization
 0001:00052994       Elmd5.TCrMD5
 0001:00052ABC       ElMD5._16387
 0001:00052ADC       Elmd5.TCrMD5.MD5_Initialize
 0001:00052B10       Elmd5.TCrMD5.FF
 0001:00052B7C       Elmd5.TCrMD5.GG
 0001:00052BDC       Elmd5.TCrMD5.HH
 0001:00052C30       Elmd5.TCrMD5.II
 0001:00052C88       Elmd5.TCrMD5.MD5_Transform
 0001:00053904       Elmd5.TCrMD5.MD5_Hash
 0001:000539D8       Elmd5.TCrMD5.MD5_Hash_Bytes
 0001:00053AB4       Elmd5.TCrMD5.MD5_Hash_File
 0001:00053BC8       Elmd5.TCrMD5.MD5_Finish
 0001:00053C10       Elmd5.Finalization
 0001:00053C40       Elmd5.initialization
 0001:00053C94       Elmemocombo.TElMemoCombo
 0001:00054C18       Elmemocombo.TElHackMemo
 0001:00054DB0       ElMemoCombo._16389
 0001:00054F18       ElMemoCombo._16390
 0001:00054F48       Elmemocombo.TElHackMemo
 0001:00054FD8       Elmemocombo.TElHackMemo.WMNCHitTest
 0001:000550BC       Elmemocombo.TElHackMemo.CreateParams
 0001:00055110       Elmemocombo.TElHackMemo.WMKillFocus
 0001:0005514C       Elmemocombo.TElHackMemo.WMSysKeyDown
 0001:000551D8       Elmemocombo.TElHackMemo.WMKeyDown
 0001:00055248       Elmemocombo.TElHackMemo.WMActivate
 0001:00055264       Elmemocombo.TElMemoCombo.MemoDeactivate
 0001:0005528C       Elmemocombo.TElMemoCombo.SetDropped
 0001:00055560       Elmemocombo.TElMemoCombo.ButtonClick
 0001:00055590       Elmemocombo.TElMemoCombo.Drop
 0001:000555AC       Elmemocombo.TElMemoCombo.SetDropHeight
 0001:000555FC       Elmemocombo.TElMemoCombo.SetDropWidth
 0001:0005564C       Elmemocombo.TElMemoCombo.SetMemoAlignment
 0001:00055694       Elmemocombo.TElMemoCombo.SetMemoColor
 0001:000556B8       Elmemocombo.TElMemoCombo.GetMemoColor
 0001:000556D8       Elmemocombo.TElMemoCombo.SetMemoFont
 0001:000556FC       Elmemocombo.TElMemoCombo.GetMemoFont
 0001:0005571C       Elmemocombo.TElMemoCombo.SetMemoMaxLength
 0001:00055740       Elmemocombo.TElMemoCombo.GetMemoMaxLength
 0001:00055764       Elmemocombo.TElMemoCombo.SetMemoPopupMenu
 0001:00055788       Elmemocombo.TElMemoCombo.GetMemoPopupMenu
 0001:000557A8       Elmemocombo.TElMemoCombo.SetMemoScrollBars
 0001:000557CC       Elmemocombo.TElMemoCombo.GetMemoScrollBars
 0001:000557F0       Elmemocombo.TElMemoCombo.SetMemoWordWrap
 0001:00055814       Elmemocombo.TElMemoCombo.GetMemoWordWrap
 0001:00055838       Elmemocombo.TElMemoCombo.TriggerDropEvent
 0001:00055874       Elmemocombo.TElMemoCombo.SetMemoFlatScrollBars
 0001:00055898       Elmemocombo.TElMemoCombo.GetMemoFlatScrollBars
 0001:000558BC       Elmemocombo.TElMemoCombo.SetMemoActiveBorderType
 0001:000558E0       Elmemocombo.TElMemoCombo.GetMemoActiveBorderType
 0001:00055904       Elmemocombo.TElMemoCombo.MemoChangeTransfer
 0001:00055938       Elmemocombo.TElMemoCombo.MemoClickTransfer
 0001:0005596C       Elmemocombo.TElMemoCombo.MemoDblClickTransfer
 0001:000559A0       Elmemocombo.TElMemoCombo.MemoKeyDownTransfer
 0001:000559E0       Elmemocombo.TElMemoCombo.MemoKeyPressTransfer
 0001:00055A18       Elmemocombo.TElMemoCombo.MemoKeyUpTransfer
 0001:00055A58       Elmemocombo.TElMemoCombo.MemoMouseDownTransfer
 0001:00055AA0       Elmemocombo.TElMemoCombo.MemoMouseMoveTransfer
 0001:00055AE4       Elmemocombo.TElMemoCombo.MemoMouseUpTransfer
 0001:00055B2C       Elmemocombo.TElMemoCombo.WMSetFocus
 0001:00055B54       Elmemocombo.TElMemoCombo.CreateParams
 0001:00055B70       Elmemocombo.TElMemoCombo
 0001:00055BB0       Elmemocombo.TElMemoCombo
 0001:00055E1C       Elmemocombo.TElMemoCombo.GetMemo
 0001:00055E38       Elmemocombo.TElMemoCombo.SetDropAutoWidth
 0001:00055EA4       Elmemocombo.TElMemoCombo.CreateWnd
 0001:00055ED4       ElMemoCombo._16439
 0001:00055F0C       ElMemoCombo._16440
 0001:00055F3C       ElMemoCombo._16441
 0001:00055F98       ElMemoCombo._16442
 0001:00055FF8       Elmemocombo.Finalization
 0001:00056028       Elmemocombo.initialization
 0001:00056130       Elmru.TElMRUEntry
 0001:000561C0       Elmru.TElMRUSection
 0001:00056370       Elmru.TElMRUSections
 0001:00056424       Elmru.TElMRU
 0001:00056740       Elmru.TElMRUEntry.SetName
 0001:000567B0       Elmru.TElMRUEntry.SetData
 0001:000567E4       Elmru.TElMRUEntry.SetDefault
 0001:00056818       Elmru.TElMRUEntry.SetChecked
 0001:0005684C       Elmru.TElMRUSection.SetName
 0001:000568B8       Elmru.TElMRUSection.SetShowName
 0001:000568E8       Elmru.TElMRUSection.SetVisible
 0001:00056918       Elmru.TElMRUSection.GetValue
 0001:0005693C       Elmru.TElMRUSection.SetCapacity
 0001:000569E0       Elmru.TElMRUSection.GetCount
 0001:000569FC       Elmru.TElMRU.SetShowAccel
 0001:00056A58       Elmru.TElMRU.SetAutoUpdate
 0001:00056AB4       Elmru.TElMRU.SetAutoEnable
 0001:00056B54       Elmru.TElMRUSections.GetItem
 0001:00056B78       Elmru.TElMRUSections.SetItem
 0001:00056B9C       Elmru.TElMRUSections.GetOwner
 0001:00056BB8       Elmru.TElMRUSections.Add
 0001:00056BD4       Elmru.TElMRUSections.Update
 0001:00056C30       Elmru.TElMRUSections
 0001:00056C84       Elmru.TElMRU.SetRecentMenu
 0001:00056CC4       Elmru.TElMRU.OnItemClick
 0001:00056DA0       Elmru.TElMRU.RebuildMenu
 0001:00057280       Elmru.TElMRU.SetSections
 0001:000572B0       Elmru.TElMRU.TriggerChangeEvent
 0001:000572DC       Elmru.TElMRU.TriggerClickEvent
 0001:00057308       Elmru.TElMRU.TriggerSaveEntryEvent
 0001:0005733C       Elmru.TElMRU.TriggerLoadEntryEvent
 0001:00057370       Elmru.TElMRU.SetAccelDelimiter
 0001:000573B0       Elmru.TElMRU.SectionByName
 0001:0005744C       Elmru.TElMRU.Restore
 0001:0005771C       Elmru.TElMRU.Save
 0001:0005796C       Elmru.TElMRU.SetPopupMenu
 0001:000579AC       Elmru.TElMRU.SetIgnoreDuplicates
 0001:000579D0       Elmru.TElMRU
 0001:00057A0C       Elmru.TElMRU
 0001:00057A9C       Elmru.TElMRU.Notification
 0001:00057AC8       Elmru.TElMRU.SetStorage
 0001:00057B1C       Elmru.TElMRUSection
 0001:00057B58       Elmru.TElMRUSection
 0001:00057BE8       Elmru.TElMRUSection.OnEntryDelete
 0001:00057C04       Elmru.TElMRUSection.SetCaption
 0001:00057C8C       Elmru.TElMRUSection.Add
 0001:00057E50       Elmru.TElMRUSection.Remove
 0001:00057E94       Elmru.TElMRUSection.EntryByName
 0001:00057F28       Elmru.TElMRUSection.SetAutoHide
 0001:00057F6C       Elmru.TElMRUSection.Assign
 0001:0005804C       Elmru.TElMRUSection.Clear
 0001:0005806C       Elmru.Finalization
 0001:0005809C       Elmru.initialization
 0001:0005813C       Elmtree.TElMTree
 0001:000581D4       ElMTree._16389
 0001:0005825C       Elmtree.TElMTree.Iterate
 0001:00058288       ElMTree._16391
 0001:000582B8       Elmtree.TElMTree.GetItem
 0001:00058304       Elmtree.TElMTree.AddItem
 0001:00058390       Elmtree.TElMTree.InsertItem
 0001:0005841C       Elmtree.TElMTree.DeleteItem
 0001:00058498       Elmtree.TElMTree.Clear
 0001:000584D0       Elmtree.TElMTree.MoveTo
 0001:00058520       Elmtree.TElMTree.GetIndex
 0001:00058548       ElMTree._16399
 0001:00058578       Elmtree.TElMTree.GetAbsIndex
 0001:000585C0       Elmtree.TElMTree.SaveToStream
 0001:000585E4       Elmtree.TElMTree.LoadFromStream
 0001:00058608       ElMTree._16403
 0001:0005868C       Elmtree.TElMTree.SaveSubTreeToStream
 0001:000586C0       ElMTree._16405
 0001:00058758       Elmtree.TElMTree.LoadSubTreeFromStream
 0001:0005878C       Elmtree.TElMTree.TriggerItemSaveEvent
 0001:000587C0       Elmtree.TElMTree.TriggerItemLoadEvent
 0001:000587F4       Elmtree.TElMTree.TriggerItemDeleteEvent
 0001:00058828       Elmtree.TElMTree
 0001:000588A4       Elmtree.TElMTree
 0001:000588FC       Elmtree.TElMTree.MoveToIns
 0001:00058950       Elmtree.Finalization
 0001:00058980       Elmtree.initialization
 0001:00058988       Elobjlist.TElObjectList
 0001:00058A70       Elobjlist.TElObjectListItem
 0001:00058B28       Elobjlist.TElHeteroObjectList
 0001:00058BF0       Elobjlist.TElObjectListItem
 0001:00058C40       Elobjlist.TElObjectListItem
 0001:00058C74       Elobjlist.TElObjectListItem.AfterLoad
 0001:00058CBC       Elobjlist.TElObjectListItem.AfterSave
 0001:00058D28       Elobjlist.TElObjectListItem.BeforeLoad
 0001:00058DA0       Elobjlist.TElObjectListItem.BeforeSave
 0001:00058DE8       Elobjlist.TElObjectListItem.GetOwner
 0001:00058E04       Elobjlist.TElHeteroObjectList.BeforeLoad
 0001:00058FCC       Elobjlist.TElHeteroObjectList.BeforeSave
 0001:00059050       Elobjlist.TElObjectList
 0001:000590B0       Elobjlist.TElObjectList.Add
 0001:000590F0       Elobjlist.TElObjectList.AddItem
 0001:0005910C       Elobjlist.TElObjectList.AfterLoad
 0001:00059154       Elobjlist.TElObjectList.AfterSave
 0001:0005919C       Elobjlist.TElObjectList.Assign
 0001:00059234       Elobjlist.TElObjectList.BeforeLoad
 0001:000592C4       Elobjlist.TElObjectList.BeforeSave
 0001:00059338       Elobjlist.TElObjectList.First
 0001:00059354       Elobjlist.TElObjectList.GetItems
 0001:00059378       Elobjlist.TElObjectList.GetOwner
 0001:00059394       Elobjlist.TElObjectList.IndexOf
 0001:000593B8       Elobjlist.TElObjectList.IndexOfBack
 0001:000593E0       Elobjlist.TElObjectList.IndexOfFrom
 0001:00059408       Elobjlist.TElObjectList.Insert
 0001:0005942C       Elobjlist.TElObjectList.Last
 0001:00059448       Elobjlist.TElObjectList.SetItems
 0001:0005946C       Elobjlist.TElObjectList.Sort
 0001:00059490       Elobjlist.Finalization
 0001:000594C0       Elobjlist.initialization
 0001:00059578       Eloneinst.TElOneInstance
 0001:00059718       Eloneinst.TElOneInstance.TriggerExistsEvent
 0001:00059754       Eloneinst.TElOneInstance.WMCopyData
 0001:000597E4       Eloneinst.TElOneInstance.TriggerInstanceRunEvent
 0001:00059810       Eloneinst.TElOneInstance.SetEnabled
 0001:0005989C       Eloneinst.TElOneInstance.DoSetEnabled
 0001:000598E4       Eloneinst.TElOneInstance.CreateMapping
 0001:00059D1C       Eloneinst.TElOneInstance
 0001:00059D6C       Eloneinst.Finalization
 0001:00059DA8       Eloneinst.initialization
 0001:00059E64       Elopts.TElOptions
 0001:00059FEC       Elopts.TElOptions
 0001:0005A05C       Elopts.TElOptions
 0001:0005A0A0       Elopts.TElOptions.Load
 0001:0005A448       Elopts.TElOptions.Save
 0001:0005A7AC       Elopts.TElOptions.SetAutoSave
 0001:0005A7C8       Elopts.Finalization
 0001:0005A7F8       Elopts.initialization
 0001:0005A85C       Elpanel.TElPanelGrabHandle
 0001:0005A99C       Elpanel.TCustomElPanel
 0001:0005ABD8       Elpanel.TElPanel
 0001:0005B7F8       Elpanel.TElPanelGrabHandle.Assign
 0001:0005B88C       Elpanel.TElPanelGrabHandle.SetEnabled
 0001:0005B8EC       Elpanel.TElPanelGrabHandle.SetBevelKind
 0001:0005B92C       Elpanel.TElPanelGrabHandle.SetSize
 0001:0005B99C       Elpanel.TElPanelGrabHandle.SetVisible
 0001:0005BA0C       Elpanel.TCustomElPanel.WMMouseMove
 0001:0005BBDC       Elpanel.TCustomElPanel.WMLButtonUp
 0001:0005BC3C       Elpanel.TCustomElPanel.WMLButtonDown
 0001:0005BC84       Elpanel.TCustomElPanel.Notification
 0001:0005BCD8       Elpanel.TCustomElPanel.SetImageForm
 0001:0005BD74       Elpanel.TCustomElPanel.SetBackground
 0001:0005BDC8       Elpanel.TCustomElPanel.SetBackgroundType
 0001:0005BE30       Elpanel.TCustomElPanel.CreateParams
 0001:0005BE74       Elpanel.TCustomElPanel.Update
 0001:0005BE88       Elpanel.TCustomElPanel.WndProc
 0001:0005BF2C       ElPanel._16409
 0001:0005BF98       ElPanel._16410
 0001:0005C13C       Elpanel.TCustomElPanel.Paint
 0001:0005CF78       Elpanel.TCustomElPanel.Loaded
 0001:0005CFA0       Elpanel.TCustomElPanel.WMEraseBkGnd
 0001:0005D058       Elpanel.TCustomElPanel.ImageFormChange
 0001:0005D070       Elpanel.TCustomElPanel.ImageChange
 0001:0005D0D4       Elpanel.TCustomElPanel.SetResizable
 0001:0005D114       Elpanel.TCustomElPanel.InGrabHandle
 0001:0005D284       Elpanel.TCustomElPanel.WMNCHitTest
 0001:0005D478       Elpanel.TCustomElPanel.SetMovable
 0001:0005D4A4       Elpanel.TCustomElPanel.WMMove
 0001:0005D4C8       Elpanel.TCustomElPanel.TriggerMoveEvent
 0001:0005D4F4       Elpanel.TCustomElPanel.SetTransparent
 0001:0005D55C       Elpanel.TCustomElPanel.SetCaption
 0001:0005D5D4       Elpanel.TCustomElPanel.RedoTmpBmp
 0001:0005D6D0       Elpanel.TCustomElPanel.WMEnterSizeMove
 0001:0005D704       Elpanel.TCustomElPanel.WMExitSizeMove
 0001:0005D7DC       Elpanel.TCustomElPanel.WMSize
 0001:0005D818       Elpanel.TCustomElPanel.SetGradientStartColor
 0001:0005D864       Elpanel.TCustomElPanel.SetGradientEndColor
 0001:0005D8B0       Elpanel.TCustomElPanel.SetGradientSteps
 0001:0005D900       Elpanel.TCustomElPanel.SetLayout
 0001:0005D974       Elpanel.TCustomElPanel.TriggerPaintEvent
 0001:0005D9A0       Elpanel.TCustomElPanel.SetOwnerDraw
 0001:0005D9E4       Elpanel.TCustomElPanel.GetTopGrabHandle
 0001:0005DA00       Elpanel.TCustomElPanel.SetTopGrabHandle
 0001:0005DA24       Elpanel.TCustomElPanel.GetRightGrabHandle
 0001:0005DA40       Elpanel.TCustomElPanel.SetRightGrabHandle
 0001:0005DA64       Elpanel.TCustomElPanel.GetLeftGrabHandle
 0001:0005DA80       Elpanel.TCustomElPanel.SetLeftGrabHandle
 0001:0005DAA4       Elpanel.TCustomElPanel.GetBottomGrabHandle
 0001:0005DAC0       Elpanel.TCustomElPanel.SetBottomGrabHandle
 0001:0005DAE4       Elpanel.TCustomElPanel.SetAlwaysPaintBackground
 0001:0005DB24       Elpanel.TCustomElPanel.AlignControls
 0001:0005DB48       Elpanel.TCustomElPanel.AdjustClientRect
 0001:0005DC18       Elpanel.TCustomElPanel
 0001:0005DCA4       Elpanel.TCustomElPanel
 0001:0005DE18       Elpanel.TCustomElPanel.DoMouseEnter
 0001:0005DE50       Elpanel.TCustomElPanel.DoMouseLeave
 0001:0005DE88       Elpanel.TCustomElPanel.GetCaption
 0001:0005DEAC       Elpanel.TCustomElPanel.SetAlphaLevel
 0001:0005DEEC       Elpanel.TCustomElPanel.CMMouseEnter
 0001:0005DF14       Elpanel.TCustomElPanel.CMMouseLeave
 0001:0005DF3C       Elpanel.TCustomElPanel.WMPaint
 0001:0005E104       Elpanel.TCustomElPanel.IFMRepaintChildren
 0001:0005E134       Elpanel.TCustomElPanel.WMWindowPosChanged
 0001:0005E16C       Elpanel.TCustomElPanel.CreateWnd
 0001:0005E198       Elpanel.TCustomElPanel.DestroyWnd
 0001:0005E1C4       Elpanel.TCustomElPanel.WMThemeChanged
 0001:0005E224       Elpanel.TCustomElPanel.DrawThemedBackground
 0001:0005E230       Elpanel.TCustomElPanel.CreateThemeHandle
 0001:0005E2B8       Elpanel.TCustomElPanel.FreeThemeHandle
 0001:0005E2EC       Elpanel.TCustomElPanel.GetThemedClassName
 0001:0005E320       Elpanel.TCustomElPanel.IsThemeApplied
 0001:0005E354       Elpanel.TCustomElPanel.SetUseXPThemes
 0001:0005E3C0       Elpanel.TCustomElPanel.GetBackgroundClientRect
 0001:0005E3DC       Elpanel.TCustomElPanel.SetTransparentXPThemes
 0001:0005E410       Elpanel.TCustomElPanel.SetSizeGrip
 0001:0005E444       Elpanel.TCustomElPanel.SetBevelInner
 0001:0005E478       Elpanel.TCustomElPanel.SetBevelOuter
 0001:0005E4AC       Elpanel.TCustomElPanel.SetBevelWidth
 0001:0005E4E0       Elpanel.TCustomElPanel.UpdateInterior
 0001:0005E4EC       Elpanel.TCustomElPanel.SetBevelSpaceColor
 0001:0005E538       Elpanel.TCustomElPanel.SetShowFocus
 0001:0005E5AC       Elpanel.TCustomElPanel.WMSetFocus
 0001:0005E5DC       Elpanel.TCustomElPanel.WMKillFocus
 0001:0005E618       Elpanel.TCustomElPanel.CMHintShow
 0001:0005E7C0       Elpanel.TCustomElPanel.SetHint
 0001:0005E8F8       Elpanel.Finalization
 0001:0005E928       Elpanel.initialization
 0001:0005EA04       Elpopbtn.TElSpeedButton
 0001:0005F0D4       Elpopbtn.TCustomElPopupButton
 0001:0005F33C       Elpopbtn.TElPopupButton
 0001:000603F0       Elpopbtn.TElPopupButtonActionLink
 0001:00060508       Elpopbtn.TElGlyphList
 0001:000605C8       Elpopbtn.TElGlyphCache
 0001:0006064C       Elpopbtn.TElButtonGlyph
 0001:000606D4       Elpopbtn.TCustomElGraphicButton
 0001:00060908       Elpopbtn.TElGraphicButton
 0001:00061814       Elpopbtn.TElGraphicButtonActionLink
 0001:00061930       Elpopbtn.GetMenuHandle
 0001:0006198C       Elpopbtn.TElGlyphList
 0001:000619F0       Elpopbtn.TElGlyphList
 0001:00061A30       Elpopbtn.TElGlyphList.AllocateIndex
 0001:00061A98       Elpopbtn.TElGlyphList.AddMasked
 0001:00061B4C       Elpopbtn.TElGlyphList.Delete
 0001:00061B90       Elpopbtn.TElGlyphCache
 0001:00061BE4       Elpopbtn.TElGlyphCache
 0001:00061C20       Elpopbtn.TElGlyphCache.GetList
 0001:00061C9C       Elpopbtn.TElGlyphCache.ReturnList
 0001:00061CD4       Elpopbtn.TElGlyphCache.Empty
 0001:00061CF4       Elpopbtn.CreateBrushPattern
 0001:00061DD8       Elpopbtn.TElButtonGlyph
 0001:00061EB8       Elpopbtn.TElButtonGlyph
 0001:00061F30       Elpopbtn.TElButtonGlyph.Repaint
 0001:00061F98       Elpopbtn.TElButtonGlyph.SetImageIndex
 0001:00061FDC       Elpopbtn.TElButtonGlyph.SetImageList
 0001:00062020       Elpopbtn.TElButtonGlyph.IconChanged
 0001:0006206C       Elpopbtn.TElButtonGlyph.GlyphChanged
 0001:000620C0       Elpopbtn.TElButtonGlyph.ResetNumGlyphs
 0001:00062164       Elpopbtn.TElButtonGlyph.SetGlyph
 0001:00062198       Elpopbtn.TElButtonGlyph.SetNumGlyphs
 0001:000621E4       Elpopbtn.TElButtonGlyph.CreateButtonGlyph
 0001:00062828       ElPopBtn._16434
 0001:00062A08       Elpopbtn.TElButtonGlyph.DrawButtonGlyph
 0001:000633AC       Elpopbtn.TElButtonGlyph.DrawButtonText
 0001:00063628       Elpopbtn.TElButtonGlyph.CalcButtonLayout
 0001:00063C74       Elpopbtn.TElButtonGlyph.GetPaintGlyphSize
 0001:00063E80       Elpopbtn.TElButtonGlyph.Draw
 0001:00063F5C       Elpopbtn.TElButtonGlyph.SetUseIcon
 0001:00063F88       Elpopbtn.TElButtonGlyph.GetGlyphSize
 0001:00064050       Elpopbtn.TElButtonGlyph.CalcButtonWidth
 0001:0006447C       Elpopbtn.TElPopupButton.MouseDown
 0001:000644D0       Elpopbtn.TCustomElPopupButton.GetChecked
 0001:000644EC       Elpopbtn.TCustomElPopupButton.SetChecked
 0001:00064508       Elpopbtn.TCustomElPopupButton.SetDefault
 0001:00064570       Elpopbtn.TCustomElPopupButton.SetPopupPlace
 0001:0006458C       Elpopbtn.TCustomElPopupButton.SetDisableAp
 0001:000645A8       ElPopBtn._16449
 0001:00064654       Elpopbtn.TCustomElPopupButton.Paint
 0001:000659D4       Elpopbtn.TCustomElPopupButton.AClick
 0001:00065C04       Elpopbtn.TCustomElPopupButton.CreateParams
 0001:00065C20       Elpopbtn.TCustomElPopupButton.CreateWnd
 0001:00065C44       Elpopbtn.TCustomElPopupButton.CNCommand
 0001:00065C6C       Elpopbtn.TCustomElPopupButton.CMDialogKey
 0001:00065CF8       Elpopbtn.TCustomElPopupButton.CMFocusChanged
 0001:00065D60       Elpopbtn.TCustomElPopupButton.UpdateExclusive
 0001:00065DB0       Elpopbtn.TCustomElPopupButton.GlyphChanged
 0001:00065DEC       Elpopbtn.TCustomElPopupButton.GetPalette
 0001:00065E0C       Elpopbtn.TCustomElPopupButton.GetGlyph
 0001:00065E2C       Elpopbtn.TCustomElPopupButton.SetGlyph
 0001:00065E64       Elpopbtn.TCustomElPopupButton.GetNumGlyphs
 0001:00065E84       Elpopbtn.TCustomElPopupButton.SetNumGlyphs
 0001:00065EF4       Elpopbtn.TCustomElPopupButton.SetDown
 0001:00066008       Elpopbtn.TCustomElPopupButton.SetFlat
 0001:0006604C       Elpopbtn.TCustomElPopupButton.SetGroupIndex
 0001:00066080       Elpopbtn.TCustomElPopupButton.SetLayout
 0001:000660B4       Elpopbtn.TCustomElPopupButton.SetMargin
 0001:000660EC       Elpopbtn.TCustomElPopupButton.SetSpacing
 0001:00066120       Elpopbtn.TCustomElPopupButton.SetAllowAllUp
 0001:00066154       Elpopbtn.TCustomElPopupButton.WMLButtonDblClk
 0001:0006618C       Elpopbtn.TCustomElPopupButton.UpdateTracking
 0001:00066228       Elpopbtn.TCustomElPopupButton.Loaded
 0001:000662BC       Elpopbtn.TCustomElPopupButton.IntEnabledChanged
 0001:00066358       Elpopbtn.TCustomElPopupButton.CMEnabledChanged
 0001:0006637C       Elpopbtn.TCustomElPopupButton.CMButtonPressed
 0001:00066418       Elpopbtn.TCustomElPopupButton.CMFontChanged
 0001:00066430       Elpopbtn.TCustomElPopupButton.CMColorChanged
 0001:0006656C       Elpopbtn.TCustomElPopupButton.CMTextChanged
 0001:00066590       Elpopbtn.TCustomElPopupButton.CMSysColorChange
 0001:000665C8       Elpopbtn.TCustomElPopupButton.CMMouseEnter
 0001:000665EC       Elpopbtn.TCustomElPopupButton.CMMouseLeave
 0001:00066610       Elpopbtn.TCustomElPopupButton.MouseDown
 0001:000668A4       Elpopbtn.TCustomElPopupButton.MouseMove
 0001:00066AB0       Elpopbtn.TCustomElPopupButton.MouseUp
 0001:00066E50       Elpopbtn.TCustomElPopupButton.WMContextMenu
 0001:00066FA4       Elpopbtn.TCustomElPopupButton.WMRButtonUp
 0001:00066FC0       Elpopbtn.TCustomElPopupButton.SetButtonStyle
 0001:00067028       ElPopBtn._16491
 0001:000670C8       ElPopBtn._16492
 0001:000670F0       Elpopbtn.TCustomElPopupButton.WndProc
 0001:00067340       Elpopbtn.TCustomElPopupButton.WMKeyUp
 0001:0006736C       Elpopbtn.TCustomElPopupButton.WMGetDlgCode
 0001:00067394       Elpopbtn.TCustomElPopupButton.WMKeyDown
 0001:000673D0       Elpopbtn.TCustomElPopupButton.SetShowFocus
 0001:00067404       Elpopbtn.TCustomElPopupButton.SetUseArrow
 0001:00067438       Elpopbtn.TCustomElPopupButton.SetShowGlyph
 0001:0006746C       Elpopbtn.TCustomElPopupButton.SetShowText
 0001:000674A0       Elpopbtn.TCustomElPopupButton.SetPullDownMenu
 0001:0006751C       Elpopbtn.TCustomElPopupButton.GetIcon
 0001:0006753C       Elpopbtn.TCustomElPopupButton.SetIcon
 0001:00067560       Elpopbtn.TCustomElPopupButton.SetIsSwitch
 0001:0006758C       Elpopbtn.TCustomElPopupButton.SetSoundMap
 0001:000675F0       Elpopbtn.TCustomElPopupButton.SetShowBorder
 0001:00067624       Elpopbtn.TCustomElPopupButton.ImageFormChange
 0001:0006763C       Elpopbtn.TCustomElPopupButton.SetImageForm
 0001:00067704       Elpopbtn.TCustomElPopupButton.Notification
 0001:000677F0       Elpopbtn.TCustomElPopupButton.GetImageIndex
 0001:00067810       Elpopbtn.TCustomElPopupButton.SetImageIndex
 0001:0006785C       Elpopbtn.TCustomElPopupButton.SetImageList
 0001:00067954       Elpopbtn.TCustomElPopupButton.SetUseIcon
 0001:000679A4       Elpopbtn.TCustomElPopupButton.GetUseImageList
 0001:000679C0       Elpopbtn.TCustomElPopupButton.SetUseImageList
 0001:00067A0C       Elpopbtn.TCustomElPopupButton.SetOldStyled
 0001:00067A54       Elpopbtn.TCustomElPopupButton.ImagesChanged
 0001:00067B70       Elpopbtn.TCustomElPopupButton.SetDownImages
 0001:00067C74       Elpopbtn.TCustomElPopupButton.SetHotImages
 0001:00067D50       Elpopbtn.TCustomElPopupButton.SetDisabledImages
 0001:00067E2C       Elpopbtn.TCustomElPopupButton.CMEnter
 0001:00067E50       Elpopbtn.TCustomElPopupButton.CMExit
 0001:00067E74       Elpopbtn.TCustomElPopupButton.GetActionLinkClass
 0001:00067E8C       Elpopbtn.TCustomElPopupButton.ActionChange
 0001:00067EF0       Elpopbtn.TCustomElPopupButton.SetThinFrame
 0001:00067F6C       Elpopbtn.TCustomElPopupButton.SetShadowsUseCustom
 0001:00067FA0       Elpopbtn.TCustomElPopupButton.SetShadowBtnHighlight
 0001:00067FE0       Elpopbtn.TCustomElPopupButton.SetShadowBtnShadow
 0001:00068020       Elpopbtn.TCustomElPopupButton.SetShadowBtnDkShadow
 0001:00068060       Elpopbtn.TCustomElPopupButton.SetShadowFollowsColor
 0001:00068094       Elpopbtn.TCustomElPopupButton.SetBackgroundDrawBorder
 0001:000680D8       Elpopbtn.TCustomElPopupButton.SetDownBackground
 0001:000680FC       Elpopbtn.TCustomElPopupButton.SetBackground
 0001:00068120       Elpopbtn.TCustomElPopupButton.SetIsHTML
 0001:000681A4       Elpopbtn.TCustomElPopupButton.SetLinkColor
 0001:000681F0       Elpopbtn.TCustomElPopupButton.SetLinkPopupMenu
 0001:00068248       Elpopbtn.TCustomElPopupButton.SetLinkStyle
 0001:00068294       Elpopbtn.TCustomElPopupButton.DoLinkPopup
 0001:00068318       Elpopbtn.TCustomElPopupButton.TriggerImageNeededEvent
 0001:00068390       Elpopbtn.TCustomElPopupButton.TriggerLinkClickEvent
 0001:000683F8       Elpopbtn.TCustomElPopupButton
 0001:00068690       Elpopbtn.TCustomElPopupButton
 0001:0006879C       Elpopbtn.TCustomElPopupButton.SetAdjustSpaceForGlyph
 0001:000687D0       Elpopbtn.TCustomElPopupButton.IFMRepaintChildren
 0001:00068800       Elpopbtn.TCustomElPopupButton.Click
 0001:00068818       Elpopbtn.TCustomElPopupButton.SetDrawDefaultFrame
 0001:00068858       Elpopbtn.TCustomElPopupButton.CreateThemeHandle
 0001:000688B8       Elpopbtn.TCustomElPopupButton.FreeThemeHandle
 0001:000688F4       Elpopbtn.TCustomElPopupButton.GetArrowSize
 0001:00068950       Elpopbtn.TCustomElPopupButton.IntKeyDown
 0001:00068B6C       Elpopbtn.TCustomElPopupButton.IntKeyUp
 0001:00068C64       Elpopbtn.TCustomElPopupButton.IntMouseEnter
 0001:00068DA4       Elpopbtn.TCustomElPopupButton.IntTextChanged
 0001:00068DFC       Elpopbtn.TCustomElPopupButton.IntMouseLeave
 0001:00068ECC       Elpopbtn.TCustomElPopupButton.DoSaveShadows
 0001:00068F00       Elpopbtn.TCustomElPopupButton.SetImageIsAlphaBlended
 0001:00068F34       Elpopbtn.TCustomElPopupButton.SetDrawFocusFrame
 0001:00068F78       Elpopbtn.TCustomElPopupButton.SetCursor
 0001:00069098       Elpopbtn.TCustomElPopupButton.SetChangeDisabledText
 0001:000690D8       Elpopbtn.TCustomElPopupButton.SetAlignment
 0001:0006910C       Elpopbtn.TElSpeedButton.SetPullDownMenu
 0001:0006914C       Elpopbtn.TElSpeedButton.SetTransparent
 0001:00069184       Elpopbtn.TElSpeedButton.Paint
 0001:000695B4       Elpopbtn.TElSpeedButton.MouseDown
 0001:00069648       Elpopbtn.TElSpeedButton.MouseUp
 0001:000696B0       Elpopbtn.TElSpeedButton.TriggerPullDownEvent
 0001:000696DC       Elpopbtn.TElSpeedButton.SetDrawEdge
 0001:00069714       Elpopbtn.TElSpeedButton.WMMouseMove
 0001:000697D0       Elpopbtn.TElSpeedButton.CMMouseLeave
 0001:00069834       Elpopbtn.TElSpeedButton.InCircle
 0001:000698B4       Elpopbtn.TElSpeedButton.SetFlat
 0001:000698EC       Elpopbtn.TElSpeedButton.SetNormalImage
 0001:0006996C       Elpopbtn.TElSpeedButton.SetDisabledImage
 0001:00069A04       Elpopbtn.TElSpeedButton.SetMouseInImage
 0001:00069A9C       Elpopbtn.TElSpeedButton.SetPressedImage
 0001:00069B34       Elpopbtn.TElSpeedButton
 0001:00069BB8       Elpopbtn.TElSpeedButton
 0001:00069CBC       Elpopbtn.TElSpeedButton.SetAutoSize
 0001:00069D50       Elpopbtn.TElSpeedButton.SetTransparentColor
 0001:00069DCC       Elpopbtn.TElSpeedButton.WMEraseBkgnd
 0001:00069DE8       Elpopbtn.TElSpeedButton.StartTimer
 0001:00069E6C       Elpopbtn.TElSpeedButton.OnTimer
 0001:00069E94       Elpopbtn.TElSpeedButton.PullMenu
 0001:00069F4C       Elpopbtn.TElPopupButtonActionLink.SetChecked
 0001:00069FB8       Elpopbtn.TElPopupButtonActionLink.SetImageIndex
 0001:00069FEC       Elpopbtn.TCustomElGraphicButton.GetChecked
 0001:0006A008       Elpopbtn.TCustomElGraphicButton.SetChecked
 0001:0006A024       Elpopbtn.TCustomElGraphicButton.SetPopupPlace
 0001:0006A040       Elpopbtn.TCustomElGraphicButton.SetDisableAp
 0001:0006A05C       Elpopbtn.TCustomElGraphicButton.IsColorStored
 0001:0006A078       Elpopbtn.TCustomElGraphicButton.SetShowBorder
 0001:0006A0AC       Elpopbtn.TCustomElGraphicButton.ImageFormChange
 0001:0006A0C4       Elpopbtn.TCustomElGraphicButton.SetImageForm
 0001:0006A180       ElPopBtn._16594
 0001:0006A22C       Elpopbtn.TCustomElGraphicButton.Paint
 0001:0006B1D8       Elpopbtn.TCustomElGraphicButton.AClick
 0001:0006B2C0       Elpopbtn.TCustomElGraphicButton.CMDialogKey
 0001:0006B348       Elpopbtn.TCustomElGraphicButton.CMDialogChar
 0001:0006B3E0       Elpopbtn.TCustomElGraphicButton.UpdateExclusive
 0001:0006B430       Elpopbtn.TCustomElGraphicButton.GlyphChanged
 0001:0006B46C       Elpopbtn.TCustomElGraphicButton.GetPalette
 0001:0006B48C       Elpopbtn.TCustomElGraphicButton.GetGlyph
 0001:0006B4AC       Elpopbtn.TCustomElGraphicButton.SetGlyph
 0001:0006B4E4       Elpopbtn.TCustomElGraphicButton.GetNumGlyphs
 0001:0006B504       Elpopbtn.TCustomElGraphicButton.SetNumGlyphs
 0001:0006B574       Elpopbtn.TCustomElGraphicButton.SetDown
 0001:0006B688       Elpopbtn.TCustomElGraphicButton.SetFlat
 0001:0006B6CC       Elpopbtn.TCustomElGraphicButton.SetGroupIndex
 0001:0006B700       Elpopbtn.TCustomElGraphicButton.SetLayout
 0001:0006B734       Elpopbtn.TCustomElGraphicButton.SetMargin
 0001:0006B76C       Elpopbtn.TCustomElGraphicButton.SetSpacing
 0001:0006B7A0       Elpopbtn.TCustomElGraphicButton.SetAllowAllUp
 0001:0006B7D4       Elpopbtn.TCustomElGraphicButton.UpdateTracking
 0001:0006B870       Elpopbtn.TCustomElGraphicButton.Loaded
 0001:0006B904       Elpopbtn.TCustomElGraphicButton.CMEnabledChanged
 0001:0006B928       Elpopbtn.TCustomElGraphicButton.CMButtonPressed
 0001:0006B9C4       Elpopbtn.TCustomElGraphicButton.CMFontChanged
 0001:0006B9E8       Elpopbtn.TCustomElGraphicButton.CMColorChanged
 0001:0006BB24       Elpopbtn.TCustomElGraphicButton.CMTextChanged
 0001:0006BB3C       Elpopbtn.TCustomElGraphicButton.CMSysColorChange
 0001:0006BB74       Elpopbtn.TCustomElGraphicButton.CMMouseEnter
 0001:0006BB98       Elpopbtn.TCustomElGraphicButton.CMMouseLeave
 0001:0006BBBC       Elpopbtn.TCustomElGraphicButton.MouseDown
 0001:0006BE50       Elpopbtn.TCustomElGraphicButton.MouseMove
 0001:0006C05C       Elpopbtn.TCustomElGraphicButton.MouseUp
 0001:0006C3FC       Elpopbtn.TCustomElGraphicButton.WndProc
 0001:0006C64C       Elpopbtn.TCustomElGraphicButton.SetUseArrow
 0001:0006C680       Elpopbtn.TCustomElGraphicButton.SetShowGlyph
 0001:0006C6B4       Elpopbtn.TCustomElGraphicButton.SetShowText
 0001:0006C6E8       Elpopbtn.TCustomElGraphicButton.SetPullDownMenu
 0001:0006C764       Elpopbtn.TCustomElGraphicButton.GetIcon
 0001:0006C784       Elpopbtn.TCustomElGraphicButton.SetIcon
 0001:0006C7A8       Elpopbtn.TCustomElGraphicButton.SetIsSwitch
 0001:0006C7D4       Elpopbtn.TCustomElGraphicButton.SetSoundMap
 0001:0006C838       Elpopbtn.TCustomElGraphicButton.Notification
 0001:0006C928       Elpopbtn.TCustomElGraphicButton.GetImageIndex
 0001:0006C948       Elpopbtn.TCustomElGraphicButton.SetImageIndex
 0001:0006C994       Elpopbtn.TCustomElGraphicButton.SetImageList
 0001:0006CA94       Elpopbtn.TCustomElGraphicButton.SetUseIcon
 0001:0006CAE4       Elpopbtn.TCustomElGraphicButton.GetUseImageList
 0001:0006CB00       Elpopbtn.TCustomElGraphicButton.SetUseImageList
 0001:0006CB4C       Elpopbtn.TCustomElGraphicButton.SetOldStyled
 0001:0006CB94       Elpopbtn.TCustomElGraphicButton.ImagesChanged
 0001:0006CCB0       Elpopbtn.TCustomElGraphicButton.SetDownImages
 0001:0006CDB4       Elpopbtn.TCustomElGraphicButton.SetHotImages
 0001:0006CE90       Elpopbtn.TCustomElGraphicButton.SetDisabledImages
 0001:0006CF6C       Elpopbtn.TCustomElGraphicButton.GetActionLinkClass
 0001:0006CF84       Elpopbtn.TCustomElGraphicButton.ActionChange
 0001:0006D0A0       Elpopbtn.TCustomElGraphicButton.SetThinFrame
 0001:0006D10C       Elpopbtn.TCustomElGraphicButton.SetShadowsUseCustom
 0001:0006D140       Elpopbtn.TCustomElGraphicButton.SetShadowBtnHighlight
 0001:0006D180       Elpopbtn.TCustomElGraphicButton.SetShadowBtnShadow
 0001:0006D1C0       Elpopbtn.TCustomElGraphicButton.SetShadowBtnDkShadow
 0001:0006D200       Elpopbtn.TCustomElGraphicButton.SetShadowFollowsColor
 0001:0006D234       Elpopbtn.TCustomElGraphicButton.SetBackgroundDrawBorder
 0001:0006D278       Elpopbtn.TCustomElGraphicButton.SetDownBackground
 0001:0006D29C       Elpopbtn.TCustomElGraphicButton.SetBackground
 0001:0006D2C0       Elpopbtn.TCustomElGraphicButton.SetTextDrawType
 0001:0006D2F4       Elpopbtn.TCustomElGraphicButton.SetTransparent
 0001:0006D360       Elpopbtn.TCustomElGraphicButton
 0001:0006D620       Elpopbtn.TCustomElGraphicButton
 0001:0006D738       Elpopbtn.TCustomElGraphicButton.SetAdjustSpaceForGlyph
 0001:0006D76C       Elpopbtn.TCustomElGraphicButton.SetCaption
 0001:0006D7F8       Elpopbtn.TCustomElGraphicButton.IFMRepaintChildren
 0001:0006D81C       Elpopbtn.TCustomElGraphicButton.SetUseXPThemes
 0001:0006D878       Elpopbtn.TCustomElGraphicButton.CreateThemeHandle
 0001:0006D930       Elpopbtn.TCustomElGraphicButton.FreeThemeHandle
 0001:0006D980       Elpopbtn.TCustomElGraphicButton.WMThemeChanged
 0001:0006D9C8       Elpopbtn.TCustomElGraphicButton.IsThemeApplied
 0001:0006DA08       Elpopbtn.TCustomElGraphicButton.GetThemePartID
 0001:0006DA20       Elpopbtn.TCustomElGraphicButton.GetThemeStateID
 0001:0006DAA0       Elpopbtn.TCustomElGraphicButton.GetThemedClassName
 0001:0006DAD4       Elpopbtn.TCustomElGraphicButton.GetArrowThemePartID
 0001:0006DAEC       Elpopbtn.TCustomElGraphicButton.GetArrowThemeStateID
 0001:0006DB60       Elpopbtn.TCustomElGraphicButton.GetArrowThemedClassName
 0001:0006DB98       Elpopbtn.TCustomElGraphicButton.GetArrowSize
 0001:0006DC44       Elpopbtn.TCustomElGraphicButton.IntEnabledChanged
 0001:0006DCD4       Elpopbtn.TCustomElGraphicButton.IntMouseEnter
 0001:0006DE14       Elpopbtn.TCustomElGraphicButton.IntTextChanged
 0001:0006DE6C       Elpopbtn.TCustomElGraphicButton.IntMouseLeave
 0001:0006DF3C       Elpopbtn.TCustomElGraphicButton.DrawThemedBackground
 0001:0006DF8C       Elpopbtn.TCustomElGraphicButton.WMContextMenu
 0001:0006E0E0       Elpopbtn.TCustomElGraphicButton.WMRButtonUp
 0001:0006E0FC       Elpopbtn.TCustomElGraphicButton.WMWindowPosChanged
 0001:0006E118       Elpopbtn.TCustomElGraphicButton.MeasureButton
 0001:0006E394       Elpopbtn.TCustomElGraphicButton.GetMoneyFlat
 0001:0006E3B0       Elpopbtn.TCustomElGraphicButton.SetMoneyFlat
 0001:0006E3E4       Elpopbtn.TCustomElGraphicButton.SetMoneyFlatDownColor
 0001:0006E424       Elpopbtn.TCustomElGraphicButton.SetMoneyFlatActiveColor
 0001:0006E464       Elpopbtn.TCustomElGraphicButton.SetMoneyFlatInactiveColor
 0001:0006E4A4       Elpopbtn.TCustomElGraphicButton.DoSaveShadows
 0001:0006E4D8       Elpopbtn.TCustomElGraphicButton.Click
 0001:0006E4F0       Elpopbtn.TCustomElGraphicButton.IntWndProc
 0001:0006E524       Elpopbtn.TCustomElGraphicButton.DoPullMenu
 0001:0006E680       Elpopbtn.TCustomElGraphicButton.SetShortcutsEnabled
 0001:0006E6B4       Elpopbtn.TCustomElGraphicButton.Focused
 0001:0006E6C8       Elpopbtn.TCustomElGraphicButton.SetIsHTML
 0001:0006E74C       Elpopbtn.TCustomElGraphicButton.SetLinkColor
 0001:0006E798       Elpopbtn.TCustomElGraphicButton.SetLinkPopupMenu
 0001:0006E7F0       Elpopbtn.TCustomElGraphicButton.SetLinkStyle
 0001:0006E83C       Elpopbtn.TCustomElGraphicButton.DoLinkPopup
 0001:0006E8C0       Elpopbtn.TCustomElGraphicButton.TriggerImageNeededEvent
 0001:0006E938       Elpopbtn.TCustomElGraphicButton.TriggerLinkClickEvent
 0001:0006E9A0       Elpopbtn.TCustomElGraphicButton.SetImageIsAlphaBlended
 0001:0006E9D4       Elpopbtn.TCustomElGraphicButton.CMHintShow
 0001:0006EB7C       Elpopbtn.TCustomElGraphicButton.SetHint
 0001:0006ECB4       Elpopbtn.TCustomElGraphicButton.SetCursor
 0001:0006EDD4       Elpopbtn.TCustomElGraphicButton.SetChangeDisabledText
 0001:0006EE14       Elpopbtn.TCustomElGraphicButton.SetAlignment
 0001:0006EE48       Elpopbtn.TElGraphicButtonActionLink.SetImageIndex
 0001:0006EE74       Elpopbtn.TElGraphicButtonActionLink.AssignClient
 0001:0006EEA4       Elpopbtn.TElGraphicButtonActionLink.IsCheckedLinked
 0001:0006EEF4       Elpopbtn.TElGraphicButtonActionLink.IsImageIndexLinked
 0001:0006EF08       Elpopbtn.TElGraphicButtonActionLink.SetChecked
 0001:0006EF74       Elpopbtn.TElGraphicButtonActionLink.SetCaption
 0001:0006EFE4       Elpopbtn.TElGraphicButtonActionLink.SetHint
 0001:0006F054       Elpopbtn.TElGraphicButtonActionLink.IsCaptionLinked
 0001:0006F0D8       Elpopbtn.TElGraphicButtonActionLink.IsHintLinked
 0001:0006F174       Elpopbtn.Finalization
 0001:0006F1B0       Elpopbtn.initialization
 0001:0006F22C       Elproptools.LoadSetProperty
 0001:0006F250       Elproptools.LoadFloatProperty
 0001:0006F308       Elproptools.GetPropertyRecord
 0001:0006F444       Elproptools.HasProperty
 0001:0006F558       Elproptools.LoadObject
 0001:0006F7C4       Elproptools.LoadCollection
 0001:0006F8EC       Elproptools.LoadIntegerProperty
 0001:0006F96C       Elproptools.LoadEnumProperty
 0001:0006F990       Elproptools.LoadStringProperty
 0001:0006FA20       Elproptools.LoadStringList
 0001:0006FA78       Elproptools.StoreStringList
 0001:0006FAD0       Elproptools.StoreObject
 0001:0006FD3C       Elproptools.StoreCollection
 0001:0006FE64       Elproptools.StoreIntegerProperty
 0001:0006FED8       Elproptools.StoreEnumProperty
 0001:0006FEFC       Elproptools.StoreStringProperty
 0001:0006FF78       Elproptools.StoreSetProperty
 0001:0006FF9C       Elproptools.StoreFloatProperty
 0001:0007003C       Elproptools.Finalization
 0001:0007006C       Elproptools.initialization
 0001:00070074       Elqueue.EElQueueError
 0001:0007012C       Elqueue.TElQueue
 0001:000701AC       Elqueue.TElQueue
 0001:000701F0       Elqueue.TElQueue.Add
 0001:00070270       Elqueue.TElQueue.Clear
 0001:00070284       Elqueue.TElQueue.Delete
 0001:00070348       ElQueue._16394
 0001:00070350       Elqueue.TElQueue.Error
 0001:00070390       Elqueue.TElQueue.Exchange
 0001:0007044C       Elqueue.TElQueue.First
 0001:0007046C       Elqueue.TElQueue.Get
 0001:000704DC       Elqueue.TElQueue.IndexOf
 0001:00070528       Elqueue.TElQueue.Last
 0001:0007055C       Elqueue.TElQueue.SetCapacity
 0001:00070630       Elqueue.TElQueue.SetCount
 0001:000706D8       Elqueue.Finalization
 0001:00070708       Elqueue.initialization
 0001:000707C0       Elregutils.GetLastRegError
 0001:000707FC       ElRegUtils._16389
 0001:00070838       ElRegUtils._16390
 0001:000708C8       Elregutils.IsValidKeyName
 0001:00070958       Elregutils.KeyClear
 0001:00070A4C       Elregutils.KeyHasValue
 0001:00070B40       Elregutils.KeyRenameValue
 0001:00070D8C       Elregutils.KeyDeleteValue
 0001:00070E80       Elregutils.KeySetValue
 0001:00070F80       Elregutils.KeyCreateSubKey
 0001:00071098       Elregutils.KeyDelete
 0001:00071260       Elregutils.CopyKey
 0001:00071804       Elregutils.KeyGetClassName
 0001:00071988       Elregutils.KeyEnumValues
 0001:00071B48       Elregutils.KeyGetValueInfo
 0001:00071DE4       Elregutils.KeyEnumSubKeys
 0001:00071FA4       Elregutils.KeyHasSubKeys
 0001:000720A0       Elregutils.NameToRootType
 0001:000721A4       Elregutils.RootTypeName
 0001:000722B4       Elregutils.RootTypeShortName
 0001:00072394       Elregutils.ValueTypeToString
 0001:00072540       Elregutils.RootTypeToHandle
 0001:000725B0       Elregutils.KeyHasSubKeys0
 0001:00072640       Elregutils.KeyEnumSubKeys0
 0001:000727D0       Elregutils.OpenRegKey
 0001:00072880       Elregutils.Finalization
 0001:000728C4       Elregutils.initialization
 0001:00072C7C       Elscrollbar.TCustomElScrollBar
 0001:00072EB0       Elscrollbar.TElScrollBarStyles
 0001:00073410       Elscrollbar.TElScrollBar
 0001:00073F30       Elscrollbar.TCustomElScrollBar.SetKind
 0001:00073FE0       Elscrollbar.TCustomElScrollBar.DoSetPosition
 0001:00074118       Elscrollbar.TCustomElScrollBar.DoSetMax
 0001:000741FC       Elscrollbar.TCustomElScrollBar.DoSetMin
 0001:000742E0       Elscrollbar.TCustomElScrollBar.DoSetPage
 0001:00074330       Elscrollbar.TCustomElScrollBar.SetPosition
 0001:00074368       Elscrollbar.TCustomElScrollBar.SetMax
 0001:000743A0       Elscrollbar.TCustomElScrollBar.SetMin
 0001:000743D8       Elscrollbar.TCustomElScrollBar.SetFlat
 0001:00074420       Elscrollbar.TCustomElScrollBar.SetActiveFlat
 0001:00074470       Elscrollbar.TCustomElScrollBar.IntMouseButton
 0001:00074B48       Elscrollbar.TCustomElScrollBar.IntMouseMove
 0001:0007505C       Elscrollbar.TCustomElScrollBar.IntMouseEnter
 0001:0007509C       Elscrollbar.TCustomElScrollBar.IntMouseLeave
 0001:000750F4       Elscrollbar.TCustomElScrollBar.IntDoEnter
 0001:0007512C       Elscrollbar.TCustomElScrollBar.IntDoExit
 0001:00075164       Elscrollbar.TCustomElScrollBar.IntColorChanged
 0001:0007518C       Elscrollbar.TCustomElScrollBar.CMMouseEnter
 0001:000751B0       Elscrollbar.TCustomElScrollBar.CMMouseLeave
 0001:000751D4       Elscrollbar.TCustomElScrollBar.CMEnter
 0001:000751F8       Elscrollbar.TCustomElScrollBar.CMExit
 0001:0007521C       Elscrollbar.TCustomElScrollBar.ShadowColor
 0001:000752B4       Elscrollbar.TCustomElScrollBar.LighterColor
 0001:0007534C       ElScrollBar._16422
 0001:000754D0       ElScrollBar._16423
 0001:00075540       ElScrollBar._16424
 0001:00075644       Elscrollbar.TCustomElScrollBar.Paint
 0001:00077FF8       Elscrollbar.TCustomElScrollBar.WMMouseMove
 0001:0007802C       Elscrollbar.TCustomElScrollBar.WMEraseBkgnd
 0001:00078048       Elscrollbar.TCustomElScrollBar.Resize
 0001:00078078       Elscrollbar.TCustomElScrollBar.ShowHintAt
 0001:000782F0       Elscrollbar.TCustomElScrollBar.WMLButtonDown
 0001:00078328       Elscrollbar.TCustomElScrollBar.WMLButtonUp
 0001:00078360       Elscrollbar.TCustomElScrollBar.TriggerChangeEvent
 0001:0007838C       Elscrollbar.TCustomElScrollBar.TriggerScrollEvent
 0001:000783D4       Elscrollbar.TCustomElScrollBar.TriggerScrollHintNeededEvent
 0001:00078410       Elscrollbar.TCustomElScrollBar.WMGetDlgCode
 0001:00078438       Elscrollbar.TCustomElScrollBar.KeyDown
 0001:000785B8       Elscrollbar.TCustomElScrollBar.WMSize
 0001:000785D4       Elscrollbar.TCustomElScrollBar.GetHitTest
 0001:0007892C       Elscrollbar.TCustomElScrollBar.OnScrollTimer
 0001:00078BD0       Elscrollbar.TCustomElScrollBar.GetTopBtns
 0001:00078C10       Elscrollbar.TCustomElScrollBar.GetBottomBtns
 0001:00078C50       Elscrollbar.TCustomElScrollBar.GetThumbPos
 0001:00078C6C       Elscrollbar.TCustomElScrollBar.UpdateThumbPos
 0001:00078D58       Elscrollbar.TCustomElScrollBar.AdjustThumbPos
 0001:00078EB0       Elscrollbar.TCustomElScrollBar.GetButtonSize
 0001:00078F64       Elscrollbar.TCustomElScrollBar.GetAutoThumbSize
 0001:0007910C       Elscrollbar.TCustomElScrollBar.SetButtonSize
 0001:000791B8       Elscrollbar.TCustomElScrollBar.SetThumbMode
 0001:0007925C       Elscrollbar.TCustomElScrollBar.SetThumbSize
 0001:000792BC       Elscrollbar.TCustomElScrollBar.SetMinThumbSize
 0001:00079328       Elscrollbar.TCustomElScrollBar.SetPage
 0001:00079360       Elscrollbar.TCustomElScrollBar.SetSecondaryButtons
 0001:000793B8       Elscrollbar.TCustomElScrollBar.SetSecondBtnKind
 0001:0007940C       Elscrollbar.TCustomElScrollBar.SetOwnerDraw
 0001:00079440       Elscrollbar.TCustomElScrollBar.Loaded
 0001:00079538       Elscrollbar.TCustomElScrollBar.SBMSetScrollInfo
 0001:00079570       Elscrollbar.TCustomElScrollBar.SBMGetScrollInfo
 0001:0007959C       Elscrollbar.TCustomElScrollBar.SetNoDisableButtons
 0001:000795D0       Elscrollbar.TCustomElScrollBar.UpdateScrollingRegion
 0001:00079678       Elscrollbar.TCustomElScrollBar.CreateWnd
 0001:0007969C       Elscrollbar.TCustomElScrollBar.WMPaint
 0001:00079840       Elscrollbar.TCustomElScrollBar.GetIsDesigning
 0001:00079860       Elscrollbar.TCustomElScrollBar.SetIsDesigning
 0001:00079880       Elscrollbar.TCustomElScrollBar.SetBlendBackground
 0001:000798C0       Elscrollbar.TCustomElScrollBar.WMSysColorChange
 0001:000798E4       Elscrollbar.TCustomElScrollBar.SetShowLeftArrows
 0001:0007993C       Elscrollbar.TCustomElScrollBar.SetShowRightArrows
 0001:00079994       Elscrollbar.TCustomElScrollBar.SetUseSystemMetrics
 0001:00079B38       Elscrollbar.TCustomElScrollBar.SetNoSunkenThumb
 0001:00079B78       Elscrollbar.TCustomElScrollBar.ImageFormChange
 0001:00079B90       Elscrollbar.TCustomElScrollBar.SetImageForm
 0001:00079C2C       Elscrollbar.TCustomElScrollBar.Notification
 0001:00079C70       Elscrollbar.TCustomElScrollBar.SetArrowColor
 0001:00079CA4       Elscrollbar.TCustomElScrollBar.SetArrowHotTrackColor
 0001:00079CD8       Elscrollbar.TCustomElScrollBar.SetDrawFrames
 0001:00079D1C       Elscrollbar.TCustomElScrollBar.SetThinFrames
 0001:00079D50       Elscrollbar.TCustomElScrollBar.CMColorChanged
 0001:00079D74       Elscrollbar.TCustomElScrollBar
 0001:00079DEC       Elscrollbar.TCustomElScrollBar
 0001:0007A05C       Elscrollbar.TCustomElScrollBar.EndScroll
 0001:0007A19C       Elscrollbar.TCustomElScrollBar.RightBtnsEnabled
 0001:0007A238       Elscrollbar.TCustomElScrollBar.LeftBtnsEnabled
 0001:0007A284       Elscrollbar.TCustomElScrollBar.SetSysBkColor
 0001:0007A2B8       Elscrollbar.TCustomElScrollBar.RebuildBackground
 0001:0007A334       Elscrollbar.TCustomElScrollBar.SetAltDisablingArrows
 0001:0007A368       Elscrollbar.TCustomElScrollBar.GetThumbSize
 0001:0007A3CC       Elscrollbar.TCustomElScrollBar.SetDrawArrowFrames
 0001:0007A400       Elscrollbar.TCustomElScrollBar.SetDrawBars
 0001:0007A434       Elscrollbar.TCustomElScrollBar.SetBarColor
 0001:0007A468       Elscrollbar.TCustomElScrollBar.SetBarOffset
 0001:0007A49C       Elscrollbar.TCustomElScrollBar.TriggerHitTestEvent
 0001:0007A4E8       Elscrollbar.TCustomElScrollBar.IFMRepaintChildren
 0001:0007A518       Elscrollbar.TCustomElScrollBar.WMWindowPosChanged
 0001:0007A544       Elscrollbar.TCustomElScrollBar.WMMouseWheel
 0001:0007A668       Elscrollbar.TCustomElScrollBar.GetThemedClassName
 0001:0007A6A0       Elscrollbar.TCustomElScrollBar.CMEnabledChanged
 0001:0007A6D0       Elscrollbar.TCustomElScrollBar.GetScrollInfo
 0001:0007A768       Elscrollbar.TCustomElScrollBar.SetScrollInfo
 0001:0007A92C       Elscrollbar.TCustomElScrollBar.CMHintShow
 0001:0007AAD4       Elscrollbar.TCustomElScrollBar.SetHint
 0001:0007AC0C       Elscrollbar.TElScrollBarStyles.SetActiveFlat
 0001:0007AC2C       Elscrollbar.TElScrollBarStyles.GetActiveFlat
 0001:0007AC4C       Elscrollbar.TElScrollBarStyles.SetColor
 0001:0007AC6C       Elscrollbar.TElScrollBarStyles.GetColor
 0001:0007AC88       Elscrollbar.TElScrollBarStyles.SetFlat
 0001:0007ACA8       Elscrollbar.TElScrollBarStyles.GetFlat
 0001:0007ACC8       Elscrollbar.TElScrollBarStyles.SetMinThumbSize
 0001:0007ACE8       Elscrollbar.TElScrollBarStyles.GetMinThumbSize
 0001:0007AD08       Elscrollbar.TElScrollBarStyles.SetOwnerDraw
 0001:0007AD28       Elscrollbar.TElScrollBarStyles.GetOwnerDraw
 0001:0007AD48       Elscrollbar.TElScrollBarStyles.SetSecondaryButtons
 0001:0007AD68       Elscrollbar.TElScrollBarStyles.GetSecondaryButtons
 0001:0007AD88       Elscrollbar.TElScrollBarStyles.SetSecondBtnKind
 0001:0007ADA8       Elscrollbar.TElScrollBarStyles.GetSecondBtnKind
 0001:0007ADC8       Elscrollbar.TElScrollBarStyles.SetShowTrackHint
 0001:0007ADE8       Elscrollbar.TElScrollBarStyles.GetShowTrackHint
 0001:0007AE08       Elscrollbar.TElScrollBarStyles.SetThumbMode
 0001:0007AE28       Elscrollbar.TElScrollBarStyles.GetThumbMode
 0001:0007AE48       Elscrollbar.TElScrollBarStyles.SetThumbSize
 0001:0007AE68       Elscrollbar.TElScrollBarStyles.GetThumbSize
 0001:0007AE88       ElScrollBar._16521
 0001:0007AE90       Elscrollbar.TElScrollBarStyles.Assign
 0001:0007AF8C       Elscrollbar.TElScrollBarStyles.GetBlendBackground
 0001:0007AFAC       Elscrollbar.TElScrollBarStyles.SetBlendBackground
 0001:0007AFCC       Elscrollbar.TElScrollBarStyles.GetUseSystemMetrics
 0001:0007AFEC       Elscrollbar.TElScrollBarStyles.SetUseSystemMetrics
 0001:0007B034       Elscrollbar.TElScrollBarStyles.GetWidth
 0001:0007B070       Elscrollbar.TElScrollBarStyles.SetWidth
 0001:0007B0F4       Elscrollbar.TElScrollBarStyles.GetShowLeftArrows
 0001:0007B114       Elscrollbar.TElScrollBarStyles.SetShowLeftArrows
 0001:0007B134       Elscrollbar.TElScrollBarStyles.GetShowRightArrows
 0001:0007B154       Elscrollbar.TElScrollBarStyles.SetShowRightArrows
 0001:0007B174       Elscrollbar.TElScrollBarStyles.GetNoSunkenThumb
 0001:0007B194       Elscrollbar.TElScrollBarStyles.SetNoSunkenThumb
 0001:0007B1B4       Elscrollbar.TElScrollBarStyles.GetNoDisableButtons
 0001:0007B1D4       Elscrollbar.TElScrollBarStyles.SetNoDisableButtons
 0001:0007B1F4       Elscrollbar.TElScrollBarStyles.GetButtonSize
 0001:0007B214       Elscrollbar.TElScrollBarStyles.SetButtonSize
 0001:0007B234       Elscrollbar.TElScrollBarStyles.GetArrowColor
 0001:0007B254       Elscrollbar.TElScrollBarStyles.SetArrowColor
 0001:0007B274       Elscrollbar.TElScrollBarStyles.GetArrowHotTrackColor
 0001:0007B294       Elscrollbar.TElScrollBarStyles.SetArrowHotTrackColor
 0001:0007B2B4       Elscrollbar.TElScrollBarStyles.GetDrawFrames
 0001:0007B2D4       Elscrollbar.TElScrollBarStyles.SetDrawFrames
 0001:0007B2F4       Elscrollbar.TElScrollBarStyles.GetThinFrames
 0001:0007B314       Elscrollbar.TElScrollBarStyles.SetThinFrames
 0001:0007B334       Elscrollbar.TElScrollBarStyles.GetImageForm
 0001:0007B354       Elscrollbar.TElScrollBarStyles.SetImageForm
 0001:0007B378       Elscrollbar.TElScrollBarStyles
 0001:0007B43C       Elscrollbar.TElScrollBarStyles.SetHintColor
 0001:0007B45C       Elscrollbar.TElScrollBarStyles.GetHintColor
 0001:0007B47C       Elscrollbar.TElScrollBarStyles.SetHintTextColor
 0001:0007B49C       Elscrollbar.TElScrollBarStyles.GetHintTextColor
 0001:0007B4BC       Elscrollbar.TElScrollBarStyles.GetSysBkColor
 0001:0007B4DC       Elscrollbar.TElScrollBarStyles.SetSysBkColor
 0001:0007B4FC       Elscrollbar.TElScrollBarStyles.GetDrawArrowFrames
 0001:0007B51C       Elscrollbar.TElScrollBarStyles.GetDrawBars
 0001:0007B53C       Elscrollbar.TElScrollBarStyles.GetBarColor
 0001:0007B55C       Elscrollbar.TElScrollBarStyles.GetBarOffset
 0001:0007B57C       Elscrollbar.TElScrollBarStyles.SetDrawBars
 0001:0007B59C       Elscrollbar.TElScrollBarStyles.SetBarColor
 0001:0007B5BC       Elscrollbar.TElScrollBarStyles.SetBarOffset
 0001:0007B5DC       Elscrollbar.TElScrollBarStyles.SetDrawArrowFrames
 0001:0007B5FC       Elscrollbar.TElScrollBarStyles.GetUseXPThemes
 0001:0007B61C       Elscrollbar.TElScrollBarStyles.SetUseXPThemes
 0001:0007B640       Elscrollbar.Finalization
 0001:0007B670       Elscrollbar.initialization
 0001:0007B76C       Elsidebar.TElSideBarContainerPanel
 0001:0007B920       Elsidebar.TElSideBarCItem
 0001:0007BAD4       Elsidebar.TElSideBarItem
 0001:0007BB7C       Elsidebar.TElSideBarItems
 0001:0007BC34       Elsidebar.TElSideBarSection
 0001:0007BD50       Elsidebar.TElSideBarSections
 0001:0007BE10       Elsidebar.TElSideBar
 0001:0007CDA4       Elsidebar.TElSideBarContainerPanel
 0001:0007CE2C       Elsidebar.TElSideBarContainerPanel.WMNCHitTest
 0001:0007CE5C       Elsidebar.TElSideBarContainerPanel.CreateParams
 0001:0007CE90       Elsidebar.TElSideBarItem
 0001:0007CF10       Elsidebar.TElSideBarItem
 0001:0007CF58       Elsidebar.TElSideBarItems
 0001:0007CFAC       Elsidebar.TElSideBarItems.GetItems
 0001:0007CFD0       Elsidebar.TElSideBarItems.SetItems
 0001:0007CFF4       Elsidebar.TElSideBarItems.Add
 0001:0007D010       Elsidebar.TElSideBarItems.GetOwner
 0001:0007D02C       Elsidebar.TElSideBarItems.Update
 0001:0007D06C       Elsidebar.TElSideBarSections
 0001:0007D0C0       Elsidebar.TElSideBarSections.GetItems
 0001:0007D0E4       Elsidebar.TElSideBarSections.SetItems
 0001:0007D108       Elsidebar.TElSideBarSections.GetOwner
 0001:0007D124       Elsidebar.TElSideBarSections.Update
 0001:0007D2AC       Elsidebar.TElSideBarSections.Add
 0001:0007D2C8       Elsidebar.TElSideBarSection
 0001:0007D35C       Elsidebar.TElSideBarSection
 0001:0007D3CC       Elsidebar.TElSideBarSection.Assign
 0001:0007D434       Elsidebar.TElSideBarSection.SetItems
 0001:0007D454       Elsidebar.TElSideBarSection.SetContainsControls
 0001:0007D4FC       Elsidebar.TElSideBarSection.AllocatePanel
 0001:0007D5A0       Elsidebar.TElSideBarCItem.SetVisible
 0001:0007D5D0       Elsidebar.TElSideBarCItem.SetEnabled
 0001:0007D600       Elsidebar.TElSideBarCItem.SetImageIndex
 0001:0007D630       Elsidebar.TElSideBarCItem.GetOwner
 0001:0007D64C       Elsidebar.TElSideBarCItem.SetCaption
 0001:0007D6B8       Elsidebar.TElSideBarCItem
 0001:0007D740       Elsidebar.TElSideBarCItem.Assign
 0001:0007D7C4       Elsidebar.TElSideBar
 0001:0007DBA8       Elsidebar.TElSideBar.CreateWnd
 0001:0007DBE0       Elsidebar.TElSideBar
 0001:0007DCA8       Elsidebar.TElSideBar.CreateParams
 0001:0007DCEC       Elsidebar.TElSideBar.SetSections
 0001:0007DD10       Elsidebar.TElSideBar.GetSectionIndex
 0001:0007DD48       Elsidebar.TElSideBar.GetItemIndex
 0001:0007DD80       Elsidebar.TElSideBar.SetSectionIndex
 0001:0007E05C       Elsidebar.TElSideBar.SetSectionsColor
 0001:0007E09C       Elsidebar.TElSideBar.SetWordWrap
 0001:0007E0F0       Elsidebar.TElSideBar.SetSpacing
 0001:0007E13C       Elsidebar.TElSideBar.SetTopSpacing
 0001:0007E188       Elsidebar.TElSideBar.SetScrollDelay
 0001:0007E1B8       ElSideBar._16444
 0001:0007E8E0       ElSideBar._16445
 0001:0007EAA8       ElSideBar._16446
 0001:0007F674       ElSideBar._16447
 0001:0007F928       ElSideBar._16448
 0001:0007FDE8       Elsidebar.TElSideBar.Paint
 0001:00080258       Elsidebar.TElSideBar.TriggerItemChangeEvent
 0001:000802A8       Elsidebar.TElSideBar.TriggerSectionChangeEvent
 0001:000802F8       Elsidebar.TElSideBar.SetSectionTracking
 0001:00080344       Elsidebar.TElSideBar.SetItemTracking
 0001:00080384       Elsidebar.TElSideBar.SetUnderlineTracked
 0001:000803B8       Elsidebar.TElSideBar.SetSoundMap
 0001:0008041C       Elsidebar.TElSideBar.SetSectionImages
 0001:000804B8       Elsidebar.TElSideBar.SetSectionHotImages
 0001:0008056C       Elsidebar.TElSideBar.SetSectionDisabledImages
 0001:00080608       Elsidebar.TElSideBar.SetItemDisabledImages
 0001:000806C8       Elsidebar.TElSideBar.SetItemHotImages
 0001:00080794       Elsidebar.TElSideBar.SetItemImages
 0001:00080854       Elsidebar.TElSideBar.SetSectionsPopupMenu
 0001:000808B8       Elsidebar.TElSideBar.SetItemsPopupMenu
 0001:0008091C       Elsidebar.TElSideBar.Notification
 0001:00080A4C       Elsidebar.TElSideBar.WMPaint
 0001:00080BE8       Elsidebar.TElSideBar.BeginUpdate
 0001:00080C1C       Elsidebar.TElSideBar.EndUpdate
 0001:00080C94       Elsidebar.TElSideBar.GetSectionRect
 0001:00080E10       Elsidebar.TElSideBar.GetItemHeight
 0001:00080E4C       Elsidebar.TElSideBar.GetSectionHeight
 0001:00080EB8       Elsidebar.TElSideBar.GetItemsRect
 0001:00080F18       Elsidebar.TElSideBar.GetTopSectionsRect
 0001:00080FB4       Elsidebar.TElSideBar.GetBottomSectionsRect
 0001:00081064       Elsidebar.TElSideBar.UpdateAllSections
 0001:00081078       Elsidebar.TElSideBar.UpdateSection
 0001:000810D8       Elsidebar.TElSideBar.UpdateTopSections
 0001:00081144       Elsidebar.TElSideBar.UpdateBottomSections
 0001:000811B0       Elsidebar.TElSideBar.DrawFlatBorder
 0001:00081410       Elsidebar.TElSideBar.UpdateFrame
 0001:00081468       Elsidebar.TElSideBar.UpdateBar
 0001:000814AC       Elsidebar.TElSideBar.UpdateItems
 0001:00081528       Elsidebar.TElSideBar.CMMouseEnter
 0001:00081580       Elsidebar.TElSideBar.CMMouseLeave
 0001:00081624       Elsidebar.TElSideBar.CMEnter
 0001:00081660       Elsidebar.TElSideBar.CMExit
 0001:0008169C       Elsidebar.TElSideBar.WMNCPaint
 0001:000816E4       Elsidebar.TElSideBar.SetFlat
 0001:00081718       Elsidebar.TElSideBar.GetHitTest
 0001:00081AF0       Elsidebar.TElSideBar.ItemRemoved
 0001:00081C34       Elsidebar.TElSideBar.ItemAdded
 0001:00081C88       Elsidebar.TElSideBar.UpdateChildControl
 0001:00081D00       Elsidebar.TElSideBar.SectionRemoved
 0001:00081E70       Elsidebar.TElSideBar.SectionAdded
 0001:00082040       Elsidebar.TElSideBar.SetFlatSections
 0001:00082074       Elsidebar.TElSideBar.SetFlatActiveItem
 0001:000820A8       Elsidebar.TElSideBar.SetFlatItems
 0001:000820DC       Elsidebar.TElSideBar.SectionsFontChanged
 0001:000820F4       Elsidebar.TElSideBar.ItemsFontChanged
 0001:00082130       Elsidebar.TElSideBar.SetItemsFont
 0001:00082154       Elsidebar.TElSideBar.GetSectionsFont
 0001:00082170       Elsidebar.TElSideBar.SetSectionsFont
 0001:00082190       Elsidebar.TElSideBar.SetVisibleSections
 0001:000821E8       Elsidebar.TElSideBar.ImagesChanged
 0001:000822B4       Elsidebar.TElSideBar.SetRightAlignedBar
 0001:000822E8       Elsidebar.TElSideBar.SetItemSize
 0001:0008235C       Elsidebar.TElSideBar.SetSectionHeight
 0001:0008239C       Elsidebar.TElSideBar.GetPopupMenu
 0001:00082438       Elsidebar.TElSideBar.WMMouseMove
 0001:0008246C       Elsidebar.TElSideBar.WMLButtonDown
 0001:000824A0       Elsidebar.TElSideBar.WMLButtonUp
 0001:000824D4       Elsidebar.TElSideBar.WMMouseWheel
 0001:00082510       Elsidebar.TElSideBar.UpdateTracks
 0001:0008255C       Elsidebar.TElSideBar.ScrollUp
 0001:000825F0       Elsidebar.TElSideBar.ScrollDown
 0001:000826B4       Elsidebar.TElSideBar.OnScrollTimer
 0001:000828B0       Elsidebar.TElSideBar.UpdateSectionPanels
 0001:00082954       Elsidebar.TElSideBar.WMSize
 0001:000829D4       Elsidebar.TElSideBar.GetMinHeight
 0001:00082A78       Elsidebar.TElSideBar.WMGetMinMaxInfo
 0001:00082AA8       Elsidebar.TElSideBar.GetTopIndex
 0001:00082AE0       Elsidebar.TElSideBar.SetTopIndex
 0001:00082B5C       Elsidebar.TElSideBar.CMHintShow
 0001:00082B88       Elsidebar.TElSideBar.SetActiveSectionStyle
 0001:00082BE8       Elsidebar.TElSideBar.SetActiveItemStyle
 0001:00082C28       Elsidebar.TElSideBar.SetActiveBorderType
 0001:00082C78       Elsidebar.TElSideBar.SetInactiveBorderType
 0001:00082CC8       Elsidebar.TElSideBar.Loaded
 0001:00082DB0       Elsidebar.TElSideBar.SetTrackSectionFontColor
 0001:00082E10       Elsidebar.TElSideBar.SetTrackSectionBkColor
 0001:00082E70       Elsidebar.TElSideBar.SetTrackItemFontColor
 0001:00082EDC       Elsidebar.TElSideBar.SetTrackItemBkColor
 0001:00082F48       Elsidebar.TElSideBar.CMControlChange
 0001:00082F6C       Elsidebar.TElSideBar.CMDialogChar
 0001:00083100       Elsidebar.TElSideBar.KeyDown
 0001:000834DC       Elsidebar.TElSideBar.WMGetDlgCode
 0001:00083504       Elsidebar.TElSideBar.GetChildren
 0001:00083570       Elsidebar.TElSideBar.ShowControl
 0001:000835F0       Elsidebar.TElSideBar.GetChildOwner
 0001:00083608       Elsidebar.TElSideBar.AlignControls
 0001:00083654       Elsidebar.TElSideBar.OnDelayTimer
 0001:0008369C       Elsidebar.TElSideBar.StartDelayTimer
 0001:000836F0       Elsidebar.TElSideBar.StopDelayTimer
 0001:00083718       Elsidebar.TElSideBar.SetItemIndex
 0001:000837F4       Elsidebar.TElSideBarCItem.GetBar
 0001:00083810       Elsidebar.TElSideBarCItem.GetDisplayName
 0001:00083830       Elsidebar.TElSideBar.SetKeepSelection
 0001:0008386C       Elsidebar.TElSideBar.IntKeyDown
 0001:00083880       Elsidebar.TElSideBar.IntMouseDown
 0001:00083BC8       Elsidebar.TElSideBar.IntMouseUp
 0001:00083FA8       Elsidebar.TElSideBar.IntMouseMove
 0001:00084A54       Elsidebar.TElSideBar.IntMouseWheel
 0001:00084AAC       Elsidebar.TElSideBar.IntHintShow
 0001:00084D24       Elsidebar.TElSideBar.ConstrainedResize
 0001:00084D58       Elsidebar.TElSideBar.SetBorderSides
 0001:00084D98       Elsidebar.TElSideBar.WMNCCalcSize
 0001:00084E24       Elsidebar.TElSideBar.SetIconLocation
 0001:00084E58       Elsidebar.TElSideBar.DestroyWnd
 0001:00084E6C       Elsidebar.TElSideBar.WMEraseBkgnd
 0001:00084E88       Elsidebar.TElSideBar.GetThemedClassName
 0001:00084EBC       Elsidebar.TElSideBar.GetBackgroundClientRect
 0001:00084EF0       Elsidebar.TElSideBar.SetLineBorderActiveColor
 0001:00084F58       Elsidebar.TElSideBar.SetLineBorderInactiveColor
 0001:00084FC0       Elsidebar.Finalization
 0001:00084FF0       Elsidebar.initialization
 0001:00084FF8       Elsndmap.TElSoundMap
 0001:000851B0       Elsndmap.TElSoundMap.Loaded
 0001:000851D8       Elsndmap.TElSoundMap.GetSchemes
 0001:000852B0       Elsndmap.TElSoundMap.GetEventKeys
 0001:00085390       Elsndmap.TElSoundMap.GetEventLabels
 0001:000854B0       Elsndmap.TElSoundMap.SetEventLabels
 0001:000855C4       Elsndmap.TElSoundMap.GetEventValues
 0001:00085704       Elsndmap.TElSoundMap.SetEventValues
 0001:00085838       Elsndmap.TElSoundMap.GetEnabled
 0001:00085988       Elsndmap.TElSoundMap.SetEnabled
 0001:00085ACC       Elsndmap.TElSoundMap.Play
 0001:00085B70       Elsndmap.TElSoundMap.Add
 0001:00085CC4       Elsndmap.TElSoundMap.Delete
 0001:00085E38       Elsndmap.TElSoundMap.SetApplicationKey
 0001:00085EF0       Elsndmap.TElSoundMap.SetScheme
 0001:00085FA8       Elsndmap.TElSoundMap.SetApplicationName
 0001:00086098       Elsndmap.TElSoundMap.SetStorage
 0001:000860D0       Elsndmap.TElSoundMap.SetStoragePath
 0001:00086150       Elsndmap.TElSoundMap.Notification
 0001:0008618C       Elsndmap.TElSoundMap
 0001:000861E0       Elsndmap.TElSoundMap
 0001:000862B8       Elsndmap.Finalization
 0001:000862E8       Elsndmap.initialization
 0001:000862F0       Elspin.TElSpinEditError
 0001:0008637C       Elspin.TElSpinEdit
 0001:00087150       Elspin.TElFloatSpinEdit
 0001:00087F08       Elspin.TElSpinEdit.GetPopupMenu
 0001:00087F6C       Elspin.TElSpinEdit.SetIncrement
 0001:00087F9C       Elspin.TElSpinEdit.SetValue
 0001:000880D0       Elspin.TElSpinEdit.SetMaxValue
 0001:00088138       Elspin.TElSpinEdit.SetMinValue
 0001:00088198       Elspin.TElSpinEdit.SetAllowEdit
 0001:000881D8       Elspin.TElSpinEdit.WMKeyDown
 0001:00088224       Elspin.TElSpinEdit.CreateParams
 0001:00088264       Elspin.TElSpinEdit.CreateWnd
 0001:00088278       Elspin.TElSpinEdit.SetEditRect
 0001:000882F4       Elspin.TElSpinEdit.CMEnter
 0001:00088310       Elspin.TElSpinEdit.CMExit
 0001:000884B8       Elspin.TElSpinEdit.Change
 0001:000886C4       Elspin.TElSpinEdit.KeyPress
 0001:00088710       Elspin.TElSpinEdit.WMCreate
 0001:000887A8       Elspin.TElSpinEdit.KeyDown
 0001:00088A18       Elspin.TElSpinEdit.Click
 0001:00088A40       Elspin.TElSpinEdit.SetFlat
 0001:00088AEC       Elspin.TElSpinEdit.CMMouseEnter
 0001:00088B40       Elspin.TElSpinEdit.CMMouseLeave
 0001:00088BA4       Elspin.TElSpinEdit.WMSetFocus
 0001:00088BEC       Elspin.TElSpinEdit.WMKillFocus
 0001:00088C40       Elspin.TElSpinEdit.WMMouseWheel
 0001:00088CD4       Elspin.TElSpinEdit.CMEnabledChanged
 0001:00088D10       Elspin.TElSpinEdit.WMCut
 0001:00088D38       Elspin.TElSpinEdit.WMPaste
 0001:00088D60       Elspin.TElSpinEdit.Loaded
 0001:00088E78       Elspin.TElSpinEdit.WMSize
 0001:00088E94       Elspin.TElSpinEdit.WMMButtonDown
 0001:00088ECC       Elspin.TElSpinEdit.CMFontChanged
 0001:00088EE8       Elspin.TElSpinEdit.WMContextMenu
 0001:00088F4C       Elspin.TElSpinEdit.SpinUpClick
 0001:00089044       Elspin.TElSpinEdit.SpinDownClick
 0001:0008913C       Elspin.TElSpinEdit.SpinDrag
 0001:00089178       Elspin.TElSpinEdit.SpinStart
 0001:0008919C       Elspin.TElSpinEdit.SetModified
 0001:000891DC       Elspin.TElSpinEdit
 0001:00089228       Elspin.TElSpinEdit
 0001:000893F4       Elspin.TElSpinEdit.SetButtonWidth
 0001:00089458       Elspin.TElSpinEdit.SetUseButtonWidth
 0001:000894C8       Elspin.TElSpinEdit.GetButtonType
 0001:000894EC       Elspin.TElSpinEdit.SetButtonType
 0001:00089510       Elspin.TElSpinEdit.GetButtonDirection
 0001:00089534       Elspin.TElSpinEdit.SetButtonDirection
 0001:00089558       Elspin.TElSpinEdit.SetValueUndefined
 0001:00089630       Elspin.TElSpinEdit.SetReadOnly
 0001:00089688       Elspin.TElSpinEdit.GetUseXPThemes
 0001:000896AC       Elspin.TElSpinEdit.SetUseXPThemes
 0001:000896DC       Elspin.TElSpinEdit.SetButtonThinFrame
 0001:00089750       Elspin.TElSpinEdit.SetLineBorderActiveColor
 0001:000897C4       Elspin.TElSpinEdit.SetLineBorderInactiveColor
 0001:00089838       Elspin.TElSpinEdit.SetButtonFlat
 0001:00089878       Elspin.TElFloatSpinEdit
 0001:00089A50       Elspin.TElFloatSpinEdit
 0001:00089A9C       Elspin.TElFloatSpinEdit.Change
 0001:00089CB8       Elspin.TElFloatSpinEdit.Click
 0001:00089CE0       Elspin.TElFloatSpinEdit.CMEnabledChanged
 0001:00089D1C       Elspin.TElFloatSpinEdit.CMEnter
 0001:00089D38       Elspin.TElFloatSpinEdit.CMExit
 0001:00089F10       Elspin.TElFloatSpinEdit.CMFontChanged
 0001:00089F2C       Elspin.TElFloatSpinEdit.CMMouseEnter
 0001:00089F80       Elspin.TElFloatSpinEdit.CMMouseLeave
 0001:00089FE4       Elspin.TElFloatSpinEdit.CreateParams
 0001:0008A024       Elspin.TElFloatSpinEdit.CreateWnd
 0001:0008A038       Elspin.TElFloatSpinEdit.GetButtonDirection
 0001:0008A05C       Elspin.TElFloatSpinEdit.GetButtonType
 0001:0008A080       Elspin.TElFloatSpinEdit.GetPopupMenu
 0001:0008A0E4       Elspin.TElFloatSpinEdit.KeyDown
 0001:0008A2B4       Elspin.TElFloatSpinEdit.KeyPress
 0001:0008A300       Elspin.TElFloatSpinEdit.Loaded
 0001:0008A458       Elspin.TElFloatSpinEdit.SetAllowEdit
 0001:0008A498       Elspin.TElFloatSpinEdit.SetButtonDirection
 0001:0008A4BC       Elspin.TElFloatSpinEdit.SetButtonType
 0001:0008A4E0       Elspin.TElFloatSpinEdit.SetButtonWidth
 0001:0008A544       Elspin.TElFloatSpinEdit.SetFlat
 0001:0008A5F0       Elspin.TElFloatSpinEdit.SetIncrement
 0001:0008A62C       Elspin.TElFloatSpinEdit.SetMaxValue
 0001:0008A6A8       Elspin.TElFloatSpinEdit.SetMinValue
 0001:0008A71C       Elspin.TElFloatSpinEdit.SetModified
 0001:0008A75C       Elspin.TElFloatSpinEdit.SetReadOnly
 0001:0008A7D4       Elspin.TElFloatSpinEdit.SetUseButtonWidth
 0001:0008A844       Elspin.TElFloatSpinEdit.SetValue
 0001:0008A9BC       Elspin.TElFloatSpinEdit.SetValueUndefined
 0001:0008AA9C       Elspin.TElFloatSpinEdit.SpinDownClick
 0001:0008AB88       Elspin.TElFloatSpinEdit.SpinDrag
 0001:0008ABC0       Elspin.TElFloatSpinEdit.SpinStart
 0001:0008ABEC       Elspin.TElFloatSpinEdit.SpinUpClick
 0001:0008ACD8       Elspin.TElFloatSpinEdit.WMContextMenu
 0001:0008AD3C       Elspin.TElFloatSpinEdit.WMCreate
 0001:0008ADD8       Elspin.TElFloatSpinEdit.WMCut
 0001:0008AE00       Elspin.TElFloatSpinEdit.WMKeyDown
 0001:0008AE44       Elspin.TElFloatSpinEdit.WMKillFocus
 0001:0008AE98       Elspin.TElFloatSpinEdit.WMMButtonDown
 0001:0008AED0       Elspin.TElFloatSpinEdit.WMMouseWheel
 0001:0008AF68       Elspin.TElFloatSpinEdit.WMPaste
 0001:0008AF90       Elspin.TElFloatSpinEdit.WMSetFocus
 0001:0008AFD8       Elspin.TElFloatSpinEdit.WMSize
 0001:0008AFF4       Elspin.TElFloatSpinEdit.GetUseXPThemes
 0001:0008B018       Elspin.TElFloatSpinEdit.SetUseXPThemes
 0001:0008B048       Elspin.TElFloatSpinEdit.SetButtonThinFrame
 0001:0008B0BC       Elspin.TElFloatSpinEdit.SetLineBorderActiveColor
 0001:0008B130       Elspin.TElFloatSpinEdit.SetLineBorderInactiveColor
 0001:0008B1A4       Elspin.TElFloatSpinEdit.SetEditRect
 0001:0008B220       Elspin.Finalization
 0001:0008B250       Elspin.initialization
 0001:0008B2A0       Elsplit.TElSplitter
 0001:0008BAD8       Elsplit.TElSplitter.SetMinSizeTopLeft
 0001:0008BB04       Elsplit.TElSplitter.TriggerPositionChangedEvent
 0001:0008BB30       Elsplit.TElSplitter.TriggerPositionChangingEvent
 0001:0008BB6C       Elsplit.TElSplitter.SetControlTopLeft
 0001:0008BC28       Elsplit.TElSplitter.SetControlBottomRight
 0001:0008BCE4       Elsplit.TElSplitter.Notification
 0001:0008BD3C       Elsplit.TElSplitter.MouseDown
 0001:0008BEA8       Elsplit.TElSplitter.MouseMove
 0001:0008BFAC       Elsplit.TElSplitter.MouseUp
 0001:0008C0A8       Elsplit.TElSplitter.StopSizing
 0001:0008C288       Elsplit.TElSplitter.AllocateLineDC
 0001:0008C2B0       Elsplit.TElSplitter.ReleaseLineDC
 0001:0008C2D4       Elsplit.TElSplitter.DrawLine
 0001:0008C368       Elsplit.TElSplitter.UpdateAutoVis
 0001:0008C3FC       Elsplit.TElSplitter.SetAutoHide
 0001:0008C444       Elsplit.TElSplitter.AfterMessage
 0001:0008C478       Elsplit.TElSplitter.Loaded
 0001:0008C4CC       Elsplit.TElSplitter
 0001:0008C530       Elsplit.TElSplitter
 0001:0008C698       Elsplit.TElSplitter.WMCancelMode
 0001:0008C6C4       ElSplit._16409
 0001:0008C744       ElSplit._16410
 0001:0008CBC0       Elsplit.TElSplitter.Paint
 0001:0008CC88       Elsplit.TElSplitter.GetLeftSnapButtonRect
 0001:0008CEB0       Elsplit.TElSplitter.StopMode
 0001:0008CF3C       Elsplit.TElSplitter.SetSnapBottomRight
 0001:0008CF60       Elsplit.TElSplitter.SetSnapTopLeft
 0001:0008CF84       Elsplit.TElSplitter.UpdateShowSnapButton
 0001:0008CFB8       Elsplit.TElSplitter.SetShowSnapButton
 0001:0008CFDC       Elsplit.TElSplitter.Snap
 0001:0008D118       Elsplit.TElSplitter.DoSizing
 0001:0008D3DC       Elsplit.TElSplitter.WMSetCursor
 0001:0008D4D8       Elsplit.TElSplitter.SetSnapButtonArrowColor
 0001:0008D518       Elsplit.TElSplitter.SetSnapButtonColor
 0001:0008D558       Elsplit.TElSplitter.SetSnapButtonDotColor
 0001:0008D598       Elsplit.TElSplitter.RecalcCurPos
 0001:0008D678       Elsplit.TElSplitter.RequestAlign
 0001:0008D6C4       Elsplit.TElSplitter.SetUseXPThemes
 0001:0008D728       Elsplit.TElSplitter.CreateArrowThemeHandle
 0001:0008D780       Elsplit.TElSplitter.FreeArrowThemeHandle
 0001:0008D7B4       Elsplit.TElSplitter.GetThemedClassName
 0001:0008D7E8       Elsplit.TElSplitter.GetRightSnapButtonRect
 0001:0008DA0C       Elsplit.TElSplitter.SetInvertSnapButtons
 0001:0008DA40       Elsplit.Finalization
 0001:0008DA70       Elsplit.initialization
 0001:0008DB78       Elstack.TElStack.Empty
 0001:0008DB94       Elstack.TElStack.Get
 0001:0008DBB8       Elstack.TElStack.Put
 0001:0008DBDC       Elstack.TElStack.Destroy
 0001:0008DC20       Elstack.TElStack.Grow
 0001:0008DC78       Elstack.TElStack.SetCapacity
 0001:0008DCFC       Elstack.TElStack.Push
 0001:0008DD3C       Elstack.TElStack.Pop
 0001:0008DDCC       Elstack.TElStack.Clear
 0001:0008DDE8       Elstack.TElStack.GetLast
 0001:0008DE48       Elstack.TElStack.ShiftUp
 0001:0008DF14       Elstack.Finalization
 0001:0008DF44       Elstack.initialization
 0001:0008DFEC       Elstatbar.TElStatusPanel
 0001:0008E23C       Elstatbar.TElStatusPanels
 0001:0008E2F4       Elstatbar.TElStatusBar
 0001:0008EB6C       Elstatbar.ConvertHintTextW
 0001:0008ED34       Elstatbar.TElStatusPanel.CalcAutoSize
 0001:0008EDB0       Elstatbar.TElStatusPanel.CurWidth
 0001:0008EDDC       Elstatbar.TElStatusPanel.SetAlignment
 0001:0008EE0C       Elstatbar.TElStatusPanel.SetBevel
 0001:0008EE3C       Elstatbar.TElStatusPanel.SetStyle
 0001:0008EEA0       Elstatbar.TElStatusPanel.SetText
 0001:0008EF58       Elstatbar.TElStatusPanel.SetWidth
 0001:0008EF90       Elstatbar.TElStatusPanel.SetControl
 0001:0008F0B0       Elstatbar.TElStatusPanel.GetLeft
 0001:0008F0F4       Elstatbar.TElStatusPanel.GetRight
 0001:0008F138       Elstatbar.TElStatusPanel.Assign
 0001:0008F1D0       Elstatbar.TElStatusPanel.SetVisible
 0001:0008F208       Elstatbar.TElStatusPanel.UpdateControl
 0001:0008F2A4       Elstatbar.TElStatusPanel.GetPanelRect
 0001:0008F318       Elstatbar.TElStatusPanel.SaveWidth
 0001:0008F33C       Elstatbar.TElStatusPanel.RestoreWidth
 0001:0008F354       Elstatbar.TElStatusPanel.SetIsHTML
 0001:0008F378       Elstatbar.TElStatusPanel.SetAutoSize
 0001:0008F3CC       Elstatbar.TElStatusPanel
 0001:0008F458       Elstatbar.TElStatusPanel
 0001:0008F494       Elstatbar.TElStatusPanel.GetRealWidth
 0001:0008F548       Elstatbar.TElStatusPanels.GetItems
 0001:0008F56C       Elstatbar.TElStatusPanels.SetItems
 0001:0008F590       Elstatbar.TElStatusPanels
 0001:0008F5E4       Elstatbar.TElStatusPanels.Add
 0001:0008F618       Elstatbar.TElStatusPanels.GetOwner
 0001:0008F634       Elstatbar.TElStatusPanels.Update
 0001:0008F6E4       Elstatbar.TElStatusBar.SetPanels
 0001:0008F708       Elstatbar.TElStatusBar.SetSimpleText
 0001:0008F778       Elstatbar.TElStatusBar.SetSimplePanel
 0001:0008F84C       Elstatbar.TElStatusBar.SetSizeGrip
 0001:0008F928       Elstatbar.TElStatusBar.Paint
 0001:000900C4       Elstatbar.TElStatusBar.TriggerPanelResizeEvent
 0001:000900F8       Elstatbar.TElStatusBar.TriggerPanelDrawEvent
 0001:0009012C       Elstatbar.TElStatusBar.DrawPanel
 0001:000904B0       Elstatbar.TElStatusBar.UpdatePanels
 0001:00090520       Elstatbar.TElStatusBar.Notification
 0001:000905E8       Elstatbar.TElStatusBar.WMERASEBKGND
 0001:00090604       Elstatbar.TElStatusBar.WMLButtonDown
 0001:00090638       Elstatbar.TElStatusBar.WMLButtonUp
 0001:0009066C       Elstatbar.TElStatusBar.PanelAtPoint
 0001:00090700       Elstatbar.TElStatusBar.WMSize
 0001:0009073C       Elstatbar.TElStatusBar.TriggerPanelClickEvent
 0001:00090770       Elstatbar.TElStatusBar.TriggerPanelDblClickEvent
 0001:000907A4       Elstatbar.TElStatusBar.WMMouseMove
 0001:000907D8       Elstatbar.TElStatusBar.DrawDragLine
 0001:0009082C       Elstatbar.TElStatusBar.WMLButtonDblClk
 0001:00090878       ElStatBar._16442
 0001:000908B8       Elstatbar.TElStatusBar.WMNCHitTest
 0001:00090950       Elstatbar.TElStatusBar.Save
 0001:00090B04       Elstatbar.TElStatusBar.Restore
 0001:00090CE4       Elstatbar.TElStatusBar.CMMouseLeave
 0001:00090D3C       Elstatbar.TElStatusBar.CMHintShow
 0001:00090D68       Elstatbar.TElStatusBar.SetBevel
 0001:00090D94       Elstatbar.TElStatusBar
 0001:00090DEC       Elstatbar.TElStatusBar
 0001:00090EDC       Elstatbar.TElStatusBar.SetSimpleTextIsHTML
 0001:00090F08       Elstatbar.TElStatusBar.TriggerImageNeededEvent
 0001:00090F78       Elstatbar.TElStatusBar.GetThemedClassName
 0001:00090FAC       Elstatbar.TElStatusBar.IntHintShow
 0001:000911C0       Elstatbar.TElStatusBar.IntLButtonDown
 0001:00091324       Elstatbar.TElStatusBar.IntLButtonUp
 0001:0009142C       Elstatbar.TElStatusBar.IntMouseMove
 0001:00091610       Elstatbar.TElStatusBar.InitDragLine
 0001:0009161C       Elstatbar.TElStatusBar.DeinitDragLine
 0001:00091628       Elstatbar.TElStatusBar.Resize
 0001:0009163C       Elstatbar.TElStatusBar.SetHint
 0001:00091774       Elstatbar.TElStatusBar.Loaded
 0001:00091794       Elstatbar.Finalization
 0001:000917C4       Elstatbar.initialization
 0001:000917CC       Elstrarray.TElStringArray
 0001:0009197C       ElStrArray._16387
 0001:00091A28       ElStrArray._16388
 0001:00091B44       Elstrarray.TElStringArray.Clear
 0001:00091B7C       Elstrarray.TElStringArray.Changed
 0001:00091BA8       Elstrarray.TElStringArray.Changing
 0001:00091BD4       Elstrarray.TElStringArray.OnItemDelete
 0001:00091C10       Elstrarray.TElStringArray.Delete
 0001:00091C44       Elstrarray.TElStringArray.AddStringEntry
 0001:00091CC4       Elstrarray.TElStringArray.InsertItem
 0001:00091D34       Elstrarray.TElStringArray.Add
 0001:00091DE0       Elstrarray.TElStringArray.Insert
 0001:00091E84       Elstrarray.TElStringArray.IndexOf
 0001:00091ED0       Elstrarray.TElStringArray.IIndexOf
 0001:00091F48       Elstrarray.TElStringArray.Find
 0001:00091FEC       Elstrarray.TElStringArray.SetSorted
 0001:00092024       Elstrarray.TElStringArray.TriggerChangingEvent
 0001:00092048       Elstrarray.TElStringArray.TriggerChangeEvent
 0001:0009206C       Elstrarray.TElStringArray.QuickSort
 0001:00092134       Elstrarray.TElStringArray.Put
 0001:000922A8       Elstrarray.TElStringArray.PutStringEntry
 0001:00092434       Elstrarray.TElStringArray.PutObject
 0001:000924C4       Elstrarray.TElStringArray.SetUpdateState
 0001:000924F4       Elstrarray.TElStringArray.GetCount
 0001:00092510       Elstrarray.TElStringArray.Get
 0001:000925A4       Elstrarray.TElStringArray.GetObject
 0001:00092630       Elstrarray.TElStringArray.Sort
 0001:00092680       Elstrarray.TElStringArray.Exchange
 0001:00092734       Elstrarray.TElStringArray.ExchangeItems
 0001:00092758       Elstrarray.TElStringArray.SaveToBinaryStream
 0001:00092824       Elstrarray.TElStringArray.LoadFromBinaryStream
 0001:00092908       Elstrarray.TElStringArray
 0001:00092970       Elstrarray.TElStringArray
 0001:000929AC       Elstrarray.Finalization
 0001:000929DC       Elstrarray.initialization
 0001:000929E4       Elstrtoken.EElStrTokenizerError
 0001:00092A7C       Elstrtoken.TElStringTokenizer
 0001:00092BC4       ElStrToken._16389
 0001:00092BCC       ElStrToken._16391
 0001:00092C20       Elstrtoken.TElStringTokenizer.SetSourceString
 0001:00092C84       Elstrtoken.TElStringTokenizer.IntHasMoreTokens
 0001:00092CD4       Elstrtoken.TElStringTokenizer.HasMoreTokens
 0001:00092D48       Elstrtoken.TElStringTokenizer.NextToken
 0001:00092D6C       Elstrtoken.TElStringTokenizer.IntNextToken
 0001:00092F18       Elstrtoken.TElStringTokenizer.CountTokens
 0001:00092F58       Elstrtoken.TElStringTokenizer.NextTokenDelim
 0001:00092FB8       Elstrtoken.TElStringTokenizer.FindAll
 0001:0009301C       Elstrtoken.TElStringTokenizer
 0001:00093064       Elstrtoken.TElStringTokenizer
 0001:000930E4       Elstrtoken.TElStringTokenizer
 0001:00093178       Elstrtoken.TElStringTokenizer
 0001:00093230       Elstrtoken.Finalization
 0001:00093260       Elstrtoken.initialization
 0001:000933A4       ElStrUtils._16405
 0001:000933AC       Elstrutils.IntToStrFmt
 0001:0009353C       Elstrutils.FloatToStrFmt
 0001:000935FC       Elstrutils.IntToStrPad
 0001:0009364C       Elstrutils.CenterStr
 0001:00093754       Elstrutils.OEMToStr
 0001:000937D0       Elstrutils.StrToOEM
 0001:0009384C       Elstrutils.MessageRes
 0001:000938D8       Elstrutils.replace
 0001:00093974       Elstrutils.ExtractWord
 0001:00093B30       Elstrutils.FstNonSpace
 0001:00093BC4       Elstrutils.NextWordBegin
 0001:00093C58       Elstrutils.LastPos
 0001:00093D38       Elstrutils.LineIsEmpty
 0001:00093D88       Elstrutils.CompleteLine
 0001:00093E50       Elstrutils.PrefixLine
 0001:00093EDC       Elstrutils.MakeString
 0001:00093F9C       Elstrutils.H2D
 0001:000941B0       Elstrutils.H2DDef
 0001:000941FC       Elstrutils.Bin2Int
 0001:000942CC       Elstrutils.Bin2IntDef
 0001:0009434C       Elstrutils.Data2Str
 0001:00094434       Elstrutils.Str2Data
 0001:00094644       Elstrutils.IsDigit
 0001:00094668       Elstrutils.IsDigitStr
 0001:000946C0       Elstrutils.IsAlpha
 0001:000946EC       Elstrutils.IsAlphaOrDigit
 0001:0009471C       Elstrutils.IsAlphaStr
 0001:0009476C       Elstrutils.IsIdentStr
 0001:000947D4       Elstrutils.ExtractStr
 0001:0009480C       Elstrutils.LeftBreak
 0001:000948D4       Elstrutils.EscapeURLString
 0001:0009498C       Elstrutils.EscapeString
 0001:00094B20       Elstrutils.UnEscapeString
 0001:00094C68       Elstrutils.StrStartsWith
 0001:00094CAC       Elstrutils.ContainsAt
 0001:00094D40       Elstrutils.FileNameLike
 0001:00094F08       Elstrutils.AnsiSameText
 0001:00094F54       Elstrutils.CurrToPrettyStr
 0001:00094F7C       Elstrutils.PrettyStrToCurr
 0001:00095178       Elstrutils.CurrSign
 0001:000951BC       Elstrutils.StringDup
 0001:0009521C       ElStrUtils._16449
 0001:000952FC       ElStrUtils._16450
 0001:00095564       Elstrutils.uni2uppers
 0001:000955CC       Elstrutils.uni2lowers
 0001:00095634       Elstrutils.uni2upperf
 0001:0009569C       Elstrutils.uni2lowerf
 0001:00095704       Elstrutils.CreateUnicodeHintString
 0001:00095804       Elstrutils.WideStringDup
 0001:00095878       Elstrutils.WidePos
 0001:000958C4       Elstrutils.WideStrScan
 0001:000958E8       Elstrutils.WideStrRScan
 0001:00095910       Elstrutils.WideQuotedStr
 0001:00095AA4       Elstrutils.WideExtractQuotedStr
 0001:00095C50       Elstrutils.WideStrEnd
 0001:00095C68       Elstrutils.WideSameText
 0001:00095CDC       Elstrutils.WideCompareText
 0001:00095D78       Elstrutils.WideExtractStr
 0001:00095DB0       Elstrutils.WideStrCopy
 0001:00095DDC       Elstrutils.WideStrPCopy
 0001:00095E10       Elstrutils.WideStrComp
 0001:00095E38       Elstrutils.WideStrLComp
 0001:00095E64       Elstrutils.WideStrLen
 0001:00095E80       Elstrutils.WideStrPas
 0001:00095ED0       Elstrutils.WideMove
 0001:00095F0C       Elstrutils.FillWord
 0001:00095F2C       Elstrutils.FillWideChar
 0001:00095F4C       Elstrutils.WideStrMove
 0001:00095F88       Elstrutils.WideStrECopy
 0001:00095FB4       Elstrutils.WideStrLCopy
 0001:00095FE8       Elstrutils.WideStrLCat
 0001:00096010       Elstrutils.WideStrCat
 0001:0009603C       Elstrutils.SetWideString
 0001:00096094       Elstrutils.CompareWideStr
 0001:00096130       Elstrutils.SameWideStr
 0001:00096154       Elstrutils.WideLastChar
 0001:0009618C       Elstrutils.WideStrAlloc
 0001:000961A4       Elstrutils.WideStrBufSize
 0001:000961C0       Elstrutils.WideStrNew
 0001:00096200       Elstrutils.WideStrDispose
 0001:0009621C       Elstrutils.WideUpperCase
 0001:00096290       Elstrutils.WideLowerCase
 0001:00096304       Elstrutils.IsWideDelimiter
 0001:00096350       Elstrutils.IsWidePathDelimiter
 0001:00096384       Elstrutils.IncludeWideTrailingDelimiter
 0001:00096410       Elstrutils.ExcludeWideTrailingDelimiter
 0001:0009645C       Elstrutils.GetWideCharRangeString
 0001:000964E4       Elstrutils.GetWideStringOf
 0001:00096520       Elstrutils.WideStringReplace
 0001:000966A4       Elstrutils.WideReplace
 0001:00096740       Elstrutils.WideStrPos
 0001:00096798       Elstrutils.WideCopy
 0001:000967F4       Elstrutils.WideInsert
 0001:00096848       Elstrutils.WideDelete
 0001:0009686C       Elstrutils.WideMakeString
 0001:00096914       Elstrutils.WideLastPos
 0001:000969F4       Elstrutils.TStrDelete
 0001:00096A60       Elstrutils.TStrExtractStr
 0001:00096AD4       Elstrutils.SetTStr
 0001:00096B40       Elstrutils.GetCharRangeString
 0001:00096BB8       Elstrutils.ConvertUTF16toUTF8
 0001:00096DD0       ElStrUtils._16511
 0001:00096F08       Elstrutils.ConvertUTF8toUTF16
 0001:0009715C       Elstrutils.isLegalUTF8Sequence
 0001:000971D0       Elstrutils.Finalization
 0001:00097200       Elstrutils.initialization
 0001:00097208       Eltimers.TCustomElTimer
 0001:000972A0       Eltimers.TElTimer
 0001:0009732C       Eltimers.TElPoolTimer
 0001:000973C0       Eltimers.TElTimerPoolItem
 0001:00097514       Eltimers.TElTimerPoolItems
 0001:000975D0       Eltimers.TElTimerPool
 0001:000976D0       Eltimers.TCustomElTimer
 0001:0009771C       Eltimers.TCustomElTimer.DoTick
 0001:00097744       Eltimers.TCustomElTimer.DoTimer
 0001:00097768       Eltimers.TCustomElTimer.SetEnabled
 0001:0009778C       Eltimers.TCustomElTimer.SetInterval
 0001:000977D4       Eltimers.TElTimer
 0001:00097818       Eltimers.TElTimer
 0001:00097854       Eltimers.TElTimer.SetEnabled
 0001:000978F4       Eltimers.TElTimer.WndProc
 0001:00097940       ElTimers._16407
 0001:00097960       Eltimers.TElTimerPool
 0001:000979E4       Eltimers.TElTimerPool
 0001:00097A40       Eltimers.TElTimerPool.SetPrecise
 0001:00097AE4       Eltimers.TElTimerPool.EnableTimer
 0001:00097BCC       Eltimers.TElTimerPool.SetItems
 0001:00097BEC       Eltimers.TElTimerPool.Tick
 0001:00097C38       Eltimers.TElTimerPool.WndProc
 0001:00097D60       Eltimers.TElTimerPool.Loaded
 0001:00097DBC       Eltimers.TElTimerPoolItem
 0001:00097E30       Eltimers.TElTimerPoolItem
 0001:00097E78       Eltimers.TElTimerPoolItem.Assign
 0001:00097EF0       Eltimers.TElTimerPoolItem.GetEnabled
 0001:00097F0C       Eltimers.TElTimerPoolItem.GetInterval
 0001:00097F28       Eltimers.TElTimerPoolItem.GetOneTime
 0001:00097F44       Eltimers.TElTimerPoolItem.GetOnTimer
 0001:00097F68       Eltimers.TElTimerPoolItem.GetTag
 0001:00097F84       Eltimers.TElTimerPoolItem.SetEnabled
 0001:00097FA4       Eltimers.TElTimerPoolItem.SetInterval
 0001:00097FC4       Eltimers.TElTimerPoolItem.SetOneTime
 0001:00097FE0       Eltimers.TElTimerPoolItem.SetOnTimer
 0001:00098010       Eltimers.TElTimerPoolItem.SetTag
 0001:0009802C       Eltimers.TElTimerPoolItems
 0001:00098080       Eltimers.TElTimerPoolItems.Add
 0001:0009809C       Eltimers.TElTimerPoolItems.GetItem
 0001:000980C0       Eltimers.TElTimerPoolItems.GetOwner
 0001:000980DC       Eltimers.TElTimerPoolItems.SetItem
 0001:00098100       Eltimers.TElTimerPoolItems.Update
 0001:00098128       Eltimers.TElPoolTimer.SetEnabled
 0001:00098184       Eltimers.TElPoolTimer.Tick
 0001:000981F4       Eltimers.Finalization
 0001:00098224       Eltimers.initialization
 0001:00098CB8       Eltoolbar.TCustomElToolButton
 0001:00098EC4       Eltoolbar.TElToolButton
 0001:00099028       Eltoolbar.TElToolBar
 0001:00099890       Eltoolbar.TElToolButtonActionLink
 0001:000999A4       Eltoolbar.TCustomElToolButton.GlyphChanged
 0001:00099A34       Eltoolbar.TCustomElToolButton.LargeGlyphChanged
 0001:00099AC4       Eltoolbar.TCustomElToolButton
 0001:00099B14       Eltoolbar.TCustomElToolButton
 0001:00099BD0       Eltoolbar.TCustomElToolButton.MouseMove
 0001:00099BF8       Eltoolbar.TCustomElToolButton.MouseDown
 0001:00099C24       Eltoolbar.TCustomElToolButton.Paint
 0001:00099E50       Eltoolbar.TCustomElToolButton.SetParent
 0001:00099EC4       Eltoolbar.TCustomElToolButton.SetUseArrow
 0001:00099F1C       Eltoolbar.TCustomElToolButton.SetFlat
 0001:00099F4C       Eltoolbar.TCustomElToolButton.SetWrap
 0001:00099FA4       Eltoolbar.TCustomElToolButton.SetButtonType
 0001:0009A08C       Eltoolbar.TCustomElToolButton.GetLargeGlyph
 0001:0009A0AC       Eltoolbar.TCustomElToolButton.SetLargeGlyph
 0001:0009A100       Eltoolbar.TCustomElToolButton.GetNumLargeGlyphs
 0001:0009A120       Eltoolbar.TCustomElToolButton.SetNumLargeGlyphs
 0001:0009A1A4       Eltoolbar.TCustomElToolButton.GetGlyph
 0001:0009A1C4       Eltoolbar.TCustomElToolButton.SetGlyph
 0001:0009A208       Eltoolbar.TCustomElToolButton.GetNumGlyphs
 0001:0009A228       Eltoolbar.TCustomElToolButton.SetNumGlyphs
 0001:0009A29C       Eltoolbar.TCustomElToolButton.SwitchGlyphs
 0001:0009A33C       Eltoolbar.TCustomElToolButton.CMEnabledChanged
 0001:0009A370       Eltoolbar.TCustomElToolButton.GetThemePartID
 0001:0009A408       Eltoolbar.TCustomElToolButton.GetThemeStateID
 0001:0009A4C0       Eltoolbar.TCustomElToolButton.GetThemedClassName
 0001:0009A4F4       Eltoolbar.TCustomElToolButton.GetArrowThemePartID
 0001:0009A50C       Eltoolbar.TCustomElToolButton.GetArrowThemeStateID
 0001:0009A574       Eltoolbar.TCustomElToolButton.GetArrowThemedClassName
 0001:0009A5A8       Eltoolbar.TCustomElToolButton.DrawThemedBackground
 0001:0009A5F8       Eltoolbar.TCustomElToolButton.DefineProperties
 0001:0009A64C       Eltoolbar.TCustomElToolButton.ReadButtonID
 0001:0009A670       Eltoolbar.TCustomElToolButton.WriteButtonID
 0001:0009A6AC       Eltoolbar.TCustomElToolButton.CMTextChanged
 0001:0009A6F4       Eltoolbar.TCustomElToolButton.ImagesChanged
 0001:0009A748       Eltoolbar.TCustomElToolButton.SetLayout
 0001:0009A7A0       Eltoolbar.TCustomElToolButton.SetMargin
 0001:0009A7F8       Eltoolbar.TCustomElToolButton.SetShowGlyph
 0001:0009A850       Eltoolbar.TCustomElToolButton.SetShowText
 0001:0009A8A8       Eltoolbar.TCustomElToolButton.SetSpacing
 0001:0009A900       Eltoolbar.TCustomElToolButton.GetActionLinkClass
 0001:0009A918       Eltoolbar.TCustomElToolButton.CMVisibleChanged
 0001:0009A994       Eltoolbar.TCustomElToolButton.Loaded
 0001:0009A9A8       Eltoolbar.TCustomElToolButton.SetOwnerSettings
 0001:0009A9D4       Eltoolbar.TCustomElToolButton.SetImageIndex
 0001:0009AA48       Eltoolbar.TElToolBar.SetButtonImageForm
 0001:0009AAB8       Eltoolbar.TElToolBar.SetBtnWidth
 0001:0009AAF8       Eltoolbar.TElToolBar.SetBtnHeight
 0001:0009AB38       Eltoolbar.TElToolBar.SetBtnOffsHorz
 0001:0009AB78       Eltoolbar.TElToolBar.SetBtnOffsVert
 0001:0009ABB8       Eltoolbar.TElToolBar.SetAutoWrap
 0001:0009ABF8       Eltoolbar.TElToolBar.UpdateButtons
 0001:0009AE04       Eltoolbar.TElToolBar.AlignControls
 0001:0009AE8C       Eltoolbar.TElToolBar.AlignButtons
 0001:0009B740       Eltoolbar.TElToolBar.SetShowGlyph
 0001:0009B78C       Eltoolbar.TElToolBar.SetShowCaption
 0001:0009B7E4       Eltoolbar.TElToolBar.SetLargeSize
 0001:0009B87C       Eltoolbar.TElToolBar.SetLargeBtnWidth
 0001:0009B8E0       Eltoolbar.TElToolBar.SetLargeBtnHeight
 0001:0009B944       Eltoolbar.TElToolBar.SetGlyphLayout
 0001:0009B990       Eltoolbar.TElToolBar.SetSpacing
 0001:0009B9DC       Eltoolbar.TElToolBar.SetMargin
 0001:0009BA28       Eltoolbar.TElToolBar.SetFlat
 0001:0009BA74       Eltoolbar.TElToolBar.GetToolButton
 0001:0009BAB0       Eltoolbar.TElToolBar.SetToolButton
 0001:0009BAE8       Eltoolbar.TElToolBar.GetButtonCount
 0001:0009BB1C       Eltoolbar.TElToolBar.Loaded
 0001:0009BBFC       Eltoolbar.TElToolBar.CMControlListChange
 0001:0009BC2C       Eltoolbar.TElToolBar.CMControlChange
 0001:0009BCBC       Eltoolbar.TElToolBar.WMSize
 0001:0009BD54       Eltoolbar.TElToolBar.SetAutoSize
 0001:0009BD94       Eltoolbar.TElToolBar.AddButton
 0001:0009BEB4       Eltoolbar.TElToolBar.SetMinSize
 0001:0009BEF4       Eltoolbar.TElToolBar.SetButtonColor
 0001:0009BF34       Eltoolbar.TElToolBar.SetOrientation
 0001:0009BF74       Eltoolbar.TElToolBar.Paint
 0001:0009BF94       Eltoolbar.TElToolBar.SetUseLargeGlyphs
 0001:0009BFEC       Eltoolbar.TElToolBar.BeginUpdate
 0001:0009C02C       Eltoolbar.TElToolBar.EndUpdate
 0001:0009C090       Eltoolbar.TElToolBar.SetImages
 0001:0009C1CC       Eltoolbar.TElToolBar.SetHotImages
 0001:0009C290       Eltoolbar.TElToolBar.SetDisabledImages
 0001:0009C354       Eltoolbar.TElToolBar.Notification
 0001:0009C428       Eltoolbar.TElToolBar.SetUseImageList
 0001:0009C4FC       Eltoolbar.TElToolBar.SetTransparentButtons
 0001:0009C584       Eltoolbar.TElToolBar.SetMoreMenuActive
 0001:0009C594       Eltoolbar.TElToolBar.SetShowMoreMenu
 0001:0009C5B0       Eltoolbar.TElToolBar.WMNCCalcSize
 0001:0009C5CC       Eltoolbar.TElToolBar.WMNCPaint
 0001:0009C5E8       Eltoolbar.TElToolBar.WMNCHitTest
 0001:0009C604       Eltoolbar.TElToolBar.OnMoreItemClick
 0001:0009C614       Eltoolbar.TElToolBar.PutMoreItemsToBar
 0001:0009C640       Eltoolbar.TElToolBar.StartMoreMenu
 0001:0009C64C       Eltoolbar.TElToolBar.WMNCLButtonDown
 0001:0009C668       Eltoolbar.TElToolBar.RedrawMoreBtn
 0001:0009C6EC       Eltoolbar.TElToolBar.GetRealClientWidth
 0001:0009C720       Eltoolbar.TElToolBar.GetRealClientHeight
 0001:0009C754       Eltoolbar.TElToolBar.GetMoreBtnRect
 0001:0009C864       Eltoolbar.TElToolBar.WMWindowPosChanged
 0001:0009C880       Eltoolbar.TElToolBar
 0001:0009C8CC       Eltoolbar.TElToolBar
 0001:0009CA68       Eltoolbar.TElToolBar.SetThinButtons
 0001:0009CAE0       Eltoolbar.TElToolBar.DrawThemedBackground
 0001:0009CAF4       Eltoolbar.TElToolBar.GetThemedClassName
 0001:0009CB28       Eltoolbar.TElToolBar.WMEraseBkGnd
 0001:0009CBC0       Eltoolbar.TElToolBar.GetFreeButtonID
 0001:0009CBEC       Eltoolbar.TElToolBar.GetButtonByID
 0001:0009CC54       Eltoolbar.TElToolBar.Save
 0001:0009CFF8       ElToolbar._16502
 0001:0009D094       Eltoolbar.TElToolBar.Restore
 0001:0009D500       Eltoolbar.TElToolBar.Setup
 0001:0009D5D0       Eltoolbar.TElToolBar.OrderedControls
 0001:0009D7C4       Eltoolbar.TElToolBar.SetAdjustButtonWidth
 0001:0009D804       Eltoolbar.TElToolBar.GetEffectiveButtonWidth
 0001:0009D8D4       Eltoolbar.TElToolBar.SetAdjustButtonHeight
 0001:0009D914       Eltoolbar.TElToolBar.GetEffectiveButtonHeight
 0001:0009D9E0       Eltoolbar.TElToolBar.CMMouseEnter
 0001:0009DA10       Eltoolbar.TElToolBar.WMMouseLeave
 0001:0009DA70       Eltoolbar.TElToolBar.CMMouseLeave
 0001:0009DA98       Eltoolbar.TElToolBar.WMMouseMove
 0001:0009DAD4       Eltoolbar.TElToolBar.StartLeaveTracking
 0001:0009DB60       Eltoolbar.TElToolBar.GetButtonClass
 0001:0009DB78       Eltoolbar.TElToolBar.SetFocusedButton
 0001:0009DBA4       Eltoolbar.TElToolBar.CMEnabledChanged
 0001:0009DBFC       Eltoolbar.TElToolBar.SetTransparent
 0001:0009DC3C       Eltoolbar.TElToolBar.SetUseXPThemes
 0001:0009DCD8       Eltoolbar.TElToolBar.GetNextButton
 0001:0009DDC0       Eltoolbar.TElToolBar.DoEnter
 0001:0009DDFC       Eltoolbar.TElToolBar.SetParent
 0001:0009DE60       Eltoolbar.TElToolBar.CMFontChanged
 0001:0009DE88       Eltoolbar.TElToolBar.SetImageIsAlphaBlended
 0001:0009DEF8       Eltoolbar.TElToolButtonActionLink.IsVisibleLinked
 0001:0009DF14       Eltoolbar.TElToolButtonActionLink.SetVisible
 0001:0009DFC8       Eltoolbar.Finalization
 0001:0009E00C       Eltoolbar.initialization
 0001:0009E0B4       Eltools.TDirectMemoryStream
 0001:0009E134       Eltools.TNamedFileStream
 0001:0009E244       ElTools._16404
 0001:0009E3E0       Eltools.PlaySound
 0001:0009E404       Eltools.swapInt16
 0001:0009E428       Eltools.swapInt32
 0001:0009E474       Eltools.SwapDouble
 0001:0009E4B0       Eltools.GetSysStartDayOfWeek
 0001:0009E52C       Eltools.GetTime
 0001:0009E554       Eltools.GetCommonAppDataFolder
 0001:0009E638       Eltools.GetUserAppDataFolder
 0001:0009E71C       Eltools.GetUserLocalAppDataFolder
 0001:0009E7D4       Eltools.GetSpecialFolder
 0001:0009E8B4       Eltools.IncludeTrailingBackslash2
 0001:0009E908       Eltools.GetTempFile
 0001:0009EA54       Eltools.TNamedFileStream
 0001:0009EAB0       ElTools._16418
 0001:0009EBD0       Eltools.TimeInMask
 0001:0009ECF4       Eltools.GetSystemDir
 0001:0009ED84       Eltools.GetShortPath
 0001:0009EDF4       Eltools.GetTempDir
 0001:0009EE70       Eltools.GetWindowsDir
 0001:0009EEE8       ElTools._16424
 0001:0009EF70       ElTools._16425
 0001:0009EFF8       ElTools._16426
 0001:0009F08C       ElTools._16427
 0001:0009F21C       ElTools._16428
 0001:0009F2CC       Eltools.GetFormattedTimeString
 0001:0009FCAC       Eltools.DayNumber
 0001:0009FCF8       Eltools.WeekNumber
 0001:0009FDB4       Eltools.ExtractTime
 0001:0009FDD0       Eltools.ExtractDate
 0001:0009FDF4       Eltools.IncTime
 0001:0009FE5C       Eltools.CenterRects
 0001:0009FEF4       ElTools._16437
 0001:0009FF40       ElTools._16439
 0001:0009FF8C       Eltools.ReadTextFromStream
 0001:000A00D4       Eltools.WriteTextToStream
 0001:000A017C       Eltools.encode_line
 0001:000A0390       Eltools.FileNameValid
 0001:000A0430       Eltools.GetFileSize
 0001:000A0498       Eltools.FileDateTime
 0001:000A04D0       Eltools.CreateFile
 0001:000A0574       Eltools.EnsureDirExists
 0001:000A0688       Eltools.EnsureValidFileName
 0001:000A0734       Eltools.DirExists
 0001:000A080C       Eltools.PurgeDir
 0001:000A0A2C       Eltools.RunProgram
 0001:000A0C08       Eltools.TDirectMemoryStream.SetPointer
 0001:000A0C48       Eltools.MakeReducedDT
 0001:000A0CA4       Eltools.CompareReducedDT
 0001:000A0CD8       Eltools.DateTimeToReduced
 0001:000A0D34       Eltools.ReducedToDateTime
 0001:000A0DB8       ElTools._16457
 0001:000A0F00       Eltools.IsBIn
 0001:000A0F28       Eltools.Sign
 0001:000A0F5C       Eltools.InRangeF
 0001:000A0F88       Eltools.InRange
 0001:000A0FB8       Eltools.Max
 0001:000A0FE4       Eltools.Min
 0001:000A1010       Eltools.SubtractTimes
 0001:000A10DC       Eltools.RangesIntersect
 0001:000A1138       Eltools.WriteStringToStream
 0001:000A11E4       Eltools.ReadStringFromStream
 0001:000A12F4       Eltools.WriteWideStringToStream
 0001:000A13A4       Eltools.ReadWideStringFromStream
 0001:000A14B4       Eltools.WriteFStringToStream
 0001:000A1508       Eltools.ReadFStringFromStream
 0001:000A1564       ElTools._16472
 0001:000A15B0       Eltools.ElDateTimeToSeconds
 0001:000A15F8       Eltools.ElSecondsToDateTime
 0001:000A1680       Eltools.DateToJulianDays
 0001:000A1768       Eltools.JulianDaysToDate
 0001:000A18D4       Eltools.ElDayOfWeek
 0001:000A196C       Eltools.DaysPerMonth
 0001:000A19A4       Eltools.IncDate
 0001:000A1A6C       Eltools.NowToUTC
 0001:000A1A90       ElTools._16482
 0001:000A1B8C       ElTools._16483
 0001:000A1C74       Eltools.UTCToZoneLocal
 0001:000A1D30       Eltools.ZoneLocalToUTC
 0001:000A1DD8       Eltools.ElSystemTimeToTzSpecificLocalTime
 0001:000A1DFC       ElTools._16487
 0001:000A1E10       ElTools._16489
 0001:000A1EE8       Eltools.ZoneIDtoBias
 0001:000A20D0       Eltools.SetPrivilege
 0001:000A2190       ElTools._16493
 0001:000A21B4       ElTools._16494
 0001:000A236C       Eltools.WindowExists
 0001:000A2438       Eltools.TopWindowExists
 0001:000A253C       Eltools.AppendSlash
 0001:000A2558       Eltools.GetModulePath
 0001:000A25E4       Eltools.GetComputerName
 0001:000A2624       Eltools.RectToString
 0001:000A26DC       Eltools.StringToRect
 0001:000A28A8       Eltools.ValFloat
 0001:000A29F0       Eltools.StrFloat
 0001:000A2A88       ElTools._16504
 0001:000A2AE4       ElTools._16505
 0001:000A2B0C       ElTools._16506
 0001:000A2B54       ElTools._16507
 0001:000A2B6C       ElTools._16508
 0001:000A2BDC       ElTools._16510
 0001:000A2BEC       Eltools.XAllocateHWND
 0001:000A2CC0       Eltools.XDeallocateHWND
 0001:000A2CEC       Eltools.GetKeysState
 0001:000A2D1C       Eltools.GetShiftState
 0001:000A2D64       Eltools.Finalization
 0001:000A2DDC       Eltools.initialization
 0001:000A2EF4       Eltray.TElTrayIcon
 0001:000A33F0       Eltray.TElTrayIcon.SetAnimated
 0001:000A34F0       Eltray.TElTrayIcon.SetDesignActive
 0001:000A3548       Eltray.TElTrayIcon.SetIcons
 0001:000A35E0       Eltray.TElTrayIcon.FindExtForm
 0001:000A37BC       Eltray.TElTrayIcon.SetExtForm
 0001:000A39A4       Eltray.TElTrayIcon.SetInterval
 0001:000A39E4       Eltray.TElTrayIcon.SetPopupMenu
 0001:000A3AE8       Eltray.TElTrayIcon.Notification
 0001:000A3BDC       Eltray.TElTrayIcon.WndProc
 0001:000A4648       Eltray.TElTrayIcon.TriggerClickEvent
 0001:000A4690       Eltray.TElTrayIcon.TriggerDblClickEvent
 0001:000A46BC       Eltray.TElTrayIcon.TriggerMouseDownEvent
 0001:000A4704       Eltray.TElTrayIcon.TriggerMouseUpEvent
 0001:000A474C       Eltray.TElTrayIcon.TriggerMouseMoveEvent
 0001:000A4790       Eltray.TElTrayIcon.DoSetEnabled
 0001:000A4874       Eltray.TElTrayIcon.SetStaticIcon
 0001:000A48B8       Eltray.TElTrayIcon.OnImagesChange
 0001:000A4938       ElTray._16409
 0001:000A4990       Eltray.TElTrayIcon.OnHintTimer
 0001:000A4B98       Eltray.TElTrayIcon.OnClickTimer
 0001:000A4BE8       Eltray.TElTrayIcon.OnTimer
 0001:000A4C60       Eltray.TElTrayIcon.UpdateIconData
 0001:000A4E88       Eltray.TElTrayIcon.DoDblClick
 0001:000A4F3C       Eltray.TElTrayIcon.DoPopupMenu
 0001:000A50BC       Eltray.TElTrayIcon.SetHint
 0001:000A5128       ElTray._16417
 0001:000A5188       ElTray._16418
 0001:000A51B8       ElTray._16419
 0001:000A51D4       Eltray.TElTrayIcon.ShowExtForm
 0001:000A5538       Eltray.TElTrayIcon.Loaded
 0001:000A5630       Eltray.TElTrayIcon.TriggerQueryEndSessionEvent
 0001:000A5664       Eltray.TElTrayIcon.SetExtendedHintDelay
 0001:000A5694       Eltray.TElTrayIcon.SetHideTaskBarIcon
 0001:000A56F0       Eltray.TElTrayIcon.PopupMenuProc
 0001:000A57C8       Eltray.TElTrayIcon.HookWndProc
 0001:000A5844       Eltray.TElTrayIcon.DoHideTaskBarIcon
 0001:000A586C       Eltray.TElTrayIcon.DoShowTaskBarIcon
 0001:000A5888       Eltray.TElTrayIcon.TriggerBeforeExtendedHintShowEvent
 0001:000A58C0       Eltray.TElTrayIcon
 0001:000A59D8       Eltray.TElTrayIcon
 0001:000A5B8C       Eltray.TElTrayIcon.TriggerDblClickExEvent
 0001:000A5BD4       Eltray.TElTrayIcon.SetStaticIcons
 0001:000A5CA8       Eltray.TElTrayIcon.SetUseStaticIcons
 0001:000A5D28       Eltray.TElTrayIcon.GetStaticIconIndex
 0001:000A5D44       Eltray.TElTrayIcon.SetStaticIconIndex
 0001:000A5D90       Eltray.TElTrayIcon.OnStaticIconsChange
 0001:000A5E00       Eltray.TElTrayIcon.UpdateStaticIcon
 0001:000A5E84       Eltray.Finalization
 0001:000A5EB4       Eltray.initialization
 0001:000A5F54       Eltree.EElTreeError
 0001:000A5FD8       Eltree._STExOutOfBounds
 0001:000A5FE0       Eltree._STexInvItem
 0001:000A5FE8       Eltree._STexRecursiveMove
 0001:000A66FC       Eltree.TElTreeInplaceEditor
 0001:000A68E8       Eltree.TElTreeInplaceEditor.GetVisible
 0001:000A68F0       Eltree.TElTreeInplaceEditor.DoStartOperation
 0001:000A68F8       Eltree.TElTreeInplaceManager
 0001:000A69BC       Eltree.TElCellControl
 0001:000A6C18       Eltree.TElCellControl.Assign
 0001:000A6C20       Eltree.TElCellControl.Paint
 0001:000A6C28       Eltree.TElCellCheckBox
 0001:000A6D10       Eltree.TElCellButtonGlyph
 0001:000A6D9C       Eltree.TElCellButton
 0001:000A6E84       Eltree.TElCellProgressBar
 0001:000A6F74       Eltree.TElCellStyle
 0001:000A7008       Eltree.TElTreeItem
 0001:000A70B8       Eltree.TElTreeItems
 0001:000A7DCC       Eltree.TElTreeView
 0001:000A8018       Eltree.TCustomElTree
 0001:000A849C       Eltree.TElTree
 0001:000AB0A4       Eltree.TElTreeDragObject
 0001:000AB15C       ElTree._16480
 0001:000AB1DC       ElTree._16481
 0001:000AB200       ElTree._16482
 0001:000AB388       ElTree._16483
 0001:000AB3B0       ElTree._16484
 0001:000AB4FC       ElTree._16485
 0001:000AB528       ElTree._16486
 0001:000AB598       ElTree._16487
 0001:000AB5CC       ElTree._16488
 0001:000AB6A8       ElTree._16489
 0001:000AB6FC       ElTree._16490
 0001:000AB750       ElTree._16491
 0001:000AB7A8       ElTree._16492
 0001:000AB7E8       ElTree._16493
 0001:000AB820       Eltree.TElTreeDragObject.GetDragCursor
 0001:000AB89C       Eltree.TElTreeDragObject.Finished
 0001:000AB8D0       Eltree.TElTreeDragObject
 0001:000AB904       Eltree.TElCellControl.Update
 0001:000AB92C       Eltree.TElCellControl
 0001:000AB9B4       Eltree.TElCellControl
 0001:000ABA10       Eltree.TElCellControl.SetCaption
 0001:000ABA84       Eltree.TElCellControl.TriggerClickEvent
 0001:000ABAA8       Eltree.TElCellControl.TriggerMouseDownEvent
 0001:000ABAE4       Eltree.TElCellControl.TriggerMouseUpEvent
 0001:000ABB20       Eltree.TElCellControl.TriggerDblClickEvent
 0001:000ABB44       Eltree.TElCellControl.TriggerMouseMoveEvent
 0001:000ABB7C       Eltree.TElCellControl.SetVisible
 0001:000ABBA8       Eltree.TElCellControl.SetEnabled
 0001:000ABBD4       Eltree.TElCellControl.SetPopupMenu
 0001:000ABC28       Eltree.TElCellControl.Notification
 0001:000ABC64       Eltree.TElCellControl.SetBorderWidth
 0001:000ABC90       Eltree.TElCellControl.PassClicks
 0001:000ABCA4       Eltree.TElCellControl.FontChanged
 0001:000ABCBC       Eltree.TElCellControl.SetFont
 0001:000ABCDC       Eltree.TElCellCheckBox.SetState
 0001:000ABD18       Eltree.TElCellCheckBox.SetAllowGrayed
 0001:000ABD4C       Eltree.TElCellCheckBox.GetChecked
 0001:000ABD68       Eltree.TElCellCheckBox.SetChecked
 0001:000ABD94       Eltree.TElCellCheckBox.SetAlignment
 0001:000ABDC0       Eltree.TElCellCheckBox.Paint
 0001:000AC530       Eltree.TElCellCheckBox.TriggerClickEvent
 0001:000AC594       Eltree.TElCellCheckBox.TriggerMouseDownEvent
 0001:000AC5C0       Eltree.TElCellCheckBox.TriggerMouseUpEvent
 0001:000AC5EC       Eltree.TElCellCheckBox.Assign
 0001:000AC5FC       Eltree.TElCellCheckBox
 0001:000AC648       Eltree.TElCellCheckBox
 0001:000AC67C       Eltree.TElCellButton.GetGlyph
 0001:000AC698       Eltree.TElCellButton.GlyphChanged
 0001:000AC6B0       Eltree.TElCellButton.SetGlyph
 0001:000AC6D8       Eltree.TElCellButton.SetDown
 0001:000AC704       Eltree.TElCellButton.Assign
 0001:000AC764       Eltree.TElCellButton.TriggerMouseDownEvent
 0001:000AC7B8       Eltree.TElCellButton.TriggerMouseUpEvent
 0001:000AC7F8       Eltree.TElCellButton.Paint
 0001:000ACBBC       Eltree.TElCellButton.SetLayout
 0001:000ACBE8       Eltree.TElCellButton.GetUseImageList
 0001:000ACC04       Eltree.TElCellButton.SetUseImageList
 0001:000ACC38       Eltree.TElCellButton.GetImageList
 0001:000ACC54       Eltree.TElCellButton.SetImageList
 0001:000ACCD0       Eltree.TElCellButton.GetImageIndex
 0001:000ACCEC       Eltree.TElCellButton.SetImageIndex
 0001:000ACD2C       Eltree.TElCellButton
 0001:000ACD90       Eltree.TElCellButton
 0001:000ACE0C       Eltree.TElCellProgressBar
 0001:000ACE90       Eltree.TElCellProgressBar
 0001:000ACEC4       Eltree.TElCellProgressBar.Assign
 0001:000ACF74       Eltree.TElCellProgressBar.Paint
 0001:000AD5E0       Eltree.TElCellProgressBar.SetMinValue
 0001:000AD60C       Eltree.TElCellProgressBar.SetMaxValue
 0001:000AD638       Eltree.TElCellProgressBar.SetValue
 0001:000AD67C       Eltree.TElCellProgressBar.SetBarColor
 0001:000AD6A8       Eltree.TElCellProgressBar.SetShowProgressText
 0001:000AD6DC       Eltree.TElCellProgressBar.SetTextAlignment
 0001:000AD710       Eltree.TElCellProgressBar.SetFrameColor
 0001:000AD744       Eltree.TElCellProgressBar.SetColor
 0001:000AD778       Eltree.TElCellProgressBar.PassClicks
 0001:000AD78C       Eltree.TElTreeView
 0001:000AD838       Eltree.TElTreeView
 0001:000AD990       Eltree.TElTreeView.DestroyWnd
 0001:000AD9B0       Eltree.TElTreeView.RedoTmpBmp
 0001:000ADBAC       Eltree.TElTreeView.DoHideLineHint
 0001:000ADC10       Eltree.TElTreeView.TryStartHint
 0001:000AE098       ElTree._16562
 0001:000AE124       Eltree.TElTreeView.GetHintText
 0001:000AE4F8       Eltree.TElTreeView.DoShowLineHint
 0001:000AE9AC       Eltree.TElTreeView.WndProc
 0001:000AEB20       Eltree.TElTreeView.WMGetDlgCode
 0001:000AEB3C       Eltree.TElTreeView.CMMouseWheel
 0001:000AED10       Eltree.TElTreeView.WMMouseWheel
 0001:000AED38       Eltree.TElTreeView.OnHintTimer
 0001:000AEE4C       Eltree.TElTreeView.SetHPosition
 0001:000AEFD0       Eltree.TElTreeView.SetVPosition
 0001:000AF164       Eltree.TElTreeView.DoSetTopIndex
 0001:000AF260       Eltree.TElTreeView.FillVisFwd
 0001:000AF3D4       Eltree.TElTreeView.WMSize
 0001:000AF474       Eltree.TElTreeView.OnHScroll
 0001:000AF648       Eltree.TElTreeView.OnVScroll
 0001:000AF978       ElTree._16578
 0001:000AF9C0       Eltree.TElTreeView.CalcPageUpPos
 0001:000AFA50       ElTree._16580
 0001:000AFA98       Eltree.TElTreeView.CalcPageDownPos
 0001:000AFB24       ElTree._16582
 0001:000AFB60       Eltree.TElTreeView.DefineHRange
 0001:000AFC50       Eltree.TElTreeView.Paint
 0001:000AFC98       ElTree._16585
 0001:000B0380       ElTree._16586
 0001:000B050C       Eltree.TElTreeView.FillDragImage
 0001:000B0828       ElTree._16588
 0001:000B0B48       Eltree.TElTreeView.DrawImages
 0001:000B1008       Eltree.TElTreeView.DrawButtons
 0001:000B155C       Eltree.TElTreeView.DrawCheckBoxes
 0001:000B2130       ElTree._16592
 0001:000B21B0       ElTree._16593
 0001:000B2230       ElTree._16594
 0001:000B2318       ElTree._16595
 0001:000B2364       Eltree.TElTreeView.DrawItemLines
 0001:000B2DF8       Eltree.TElTreeView.DoRedrawItemTree
 0001:000B4A70       Eltree.TElTreeView.DoRedrawItem
 0001:000B70CC       Eltree.TElTreeView.GetVisiblesHeight
 0001:000B7120       Eltree.TElTreeView.RedrawTree
 0001:000B7944       Eltree.TElTreeView.IntMouseMove
 0001:000B8578       Eltree.TElTreeView.IntLButtonDown
 0001:000B8620       Eltree.TElTreeView.IntLButtonUp
 0001:000B8AF4       Eltree.TCustomElTree.TriggerLinkClickEvent
 0001:000B8B78       Eltree.TElTreeView.IntRButtonDown
 0001:000B8BC0       Eltree.TElTreeView.IntRButtonUp
 0001:000B8E50       Eltree.TElTreeView.IntLButtonDblClick
 0001:000B9060       Eltree.TElTreeView.IntRButtonDblClick
 0001:000B9154       Eltree.TElTreeView.WMEraseBkgnd
 0001:000B9170       Eltree.TElTreeView.OnEditTimer
 0001:000B91C8       Eltree.TElTreeView.DoEditItem
 0001:000B97CC       Eltree.TElTreeView.DoEndEdit
 0001:000B97FC       Eltree.TElTreeView.EditOperationCancelled
 0001:000B9814       Eltree.TElTreeView.EditOperationAccepted
 0001:000B98F4       Eltree.TCustomElTree.EditItem
 0001:000B9974       Eltree.TCustomElTree.EndEdit
 0001:000B9998       Eltree.TElTreeView.DoEndDrag
 0001:000B9A00       Eltree.TElTreeView.WMRButtonUp
 0001:000B9A44       Eltree.TElTreeView.WMLButtonUp
 0001:000B9A88       Eltree.TElTreeView.MouseMove
 0001:000B9BC8       Eltree.TElTreeView.WMRButtonDblClk
 0001:000B9C0C       Eltree.TElTreeView.WMLButtonDblClk
 0001:000B9C50       Eltree.TElTreeView.WMLButtonDown
 0001:000B9C90       Eltree.TElTreeView.WMRButtonDown
 0001:000B9D08       Eltree.TElTreeView.WMMouseMove
 0001:000B9D48       Eltree.TElTreeView.DoStartDrag
 0001:000B9E78       Eltree.TElTreeView.OnScrollTimer
 0001:000BA054       Eltree.TElTreeView.DragScroll
 0001:000BA128       Eltree.TElTreeView.DoDragOver
 0001:000BA4D8       Eltree.TElTreeView.GetItemAt
 0001:000BAE2C       Eltree.TElTreeView.GetItemAtY
 0001:000BAEAC       Eltree.TElTreeView.GetItemRect
 0001:000BAF58       Eltree.TElTreeView.ProcessPassedClick
 0001:000BB170       Eltree.TElTreeView.MouseDown
 0001:000BBB50       Eltree.TElTreeView.MouseUp
 0001:000BBCAC       Eltree.TElTreeView.KeyDown
 0001:000BCA78       Eltree.TElTreeView.KeyPress
 0001:000BCAC0       Eltree.TElTreeView.SetFocus
 0001:000BCB0C       Eltree.TElTreeView.DoSetSelected
 0001:000BCD78       Eltree.TElTreeView.GetVisCount
 0001:000BCDBC       Eltree.TElTreeView.CMMouseLeave
 0001:000BCE74       Eltree.TElTreeView.CMHintShow
 0001:000BD0EC       Eltree.TElTreeView.CMSysColorChange
 0001:000BD130       Eltree.TElTreeView.OnDropTargetDrag
 0001:000BD1C4       Eltree.TElTreeView.OnDropTargetDrop
 0001:000BD228       Eltree.TElTreeView.WMSetFocus
 0001:000BD2A0       Eltree.TElTreeView.WMKillFocus
 0001:000BD34C       Eltree.TElTreeView.GetDragImages
 0001:000BD390       Eltree.TElTreeView.DoEnter
 0001:000BD3A4       Eltree.TElTreeView.DoExit
 0001:000BD3D0       Eltree.TElTreeView.UpdateView
 0001:000BD4D4       Eltree.TElTreeView.DoPaintBkgnd
 0001:000BD6FC       Eltree.TElTreeView.WMPaint
 0001:000BD9D0       Eltree.TElTreeView.GetVisCount2
 0001:000BDA08       Eltree.TElTreeView.OnDragExpandTimer
 0001:000BDAB0       Eltree.TElTreeView.ProcessSearch
 0001:000BDC74       Eltree.TElTreeView.StartClearSearchTimeoutThread
 0001:000BDCD8       Eltree.TElTreeView.StopClearSearchTimeoutThread
 0001:000BDD18       Eltree.TElTreeView.SearchTextTimeout
 0001:000BDD40       Eltree.TElTreeView.FitMostChildren
 0001:000BDE88       ElTree._16661
 0001:000BDEE0       ElTree._16662
 0001:000BDF68       ElTree._16663
 0001:000BE000       Eltree.TElTreeView.FindNewFocused
 0001:000BE460       Eltree.TElTreeView.DrawMouseSelectFrame
 0001:000BE680       Eltree.TElTreeView.AllocateMouseSelectFrame
 0001:000BE694       Eltree.TElTreeView.DeallocateMouseSelectFrame
 0001:000BE6A8       Eltree.TElTreeView.SelectMouseSelectItems
 0001:000BE9F0       Eltree.TElTreeView.WMCancelMode
 0001:000BEA20       Eltree.TElTreeView.CancelMouseSel
 0001:000BEA5C       Eltree.TElTreeView.WMWindowPosChanged
 0001:000BEA88       Eltree.TElTreeView.IFMRepaintChildren
 0001:000BEAB8       Eltree.TElTreeView.CMDeactivate
 0001:000BEAF0       Eltree.TElTreeView.CMDrag
 0001:000BED24       Eltree.TElTreeView.InitiateEditOp
 0001:000BEF1C       Eltree.TElTreeView.IsControlCell
 0001:000BF014       Eltree.TElTreeItem
 0001:000BF0EC       Eltree.TElTreeItem
 0001:000BF19C       Eltree.TElTreeItem.CreateStyles
 0001:000BF1E0       Eltree.TElTreeItem.OnStyleDelete
 0001:000BF1FC       ElTree._16681
 0001:000BF2BC       Eltree.TElTreeItem.ReadData
 0001:000BFCDC       Eltree.TElTreeItem.WriteData
 0001:000C01CC       Eltree.TElTreeItem.Assign
 0001:000C0648       Eltree.TElTreeItem.SetUseBkColor
 0001:000C0694       Eltree.TElTreeItem.SetColor
 0001:000C06E0       Eltree.TElTreeItem.GetParent
 0001:000C0710       Eltree.TElTreeItem.EditText
 0001:000C0738       Eltree.TElTreeItem.GetFullNameEx
 0001:000C0828       Eltree.TElTreeItem.GetFullName
 0001:000C08F4       Eltree.TElTreeItem.GetChildByIndex
 0001:000C0988       Eltree.TElTreeItem.GetChildrenCount
 0001:000C09EC       Eltree.TElTreeItem.GetNextChild
 0001:000C0A44       Eltree.TElTreeItem.GetPrevChild
 0001:000C0A94       Eltree.TElTreeItem.GetFirstVisibleChild
 0001:000C0B24       Eltree.TElTreeItem.GetFirstChild
 0001:000C0B60       Eltree.TElTreeItem.GetLastChild
 0001:000C0B9C       Eltree.TElTreeItem.GetFirstSibling
 0001:000C0BCC       Eltree.TElTreeItem.GetLastSibling
 0001:000C0BFC       Eltree.TElTreeItem.GetNextSibling
 0001:000C0C30       Eltree.TElTreeItem.GetPrevSibling
 0001:000C0C64       Eltree.TElTreeItem.GetFullExpand
 0001:000C0CB4       Eltree.TElTreeItem.GetSelected
 0001:000C0CD4       Eltree.TElTreeItem.SetSelected
 0001:000C0E28       Eltree.TElTreeItem.SetState
 0001:000C0FD0       Eltree.TElTreeItem.GetState
 0001:000C0FF8       Eltree.TElTreeItem.IsExpanded
 0001:000C1018       Eltree.TElTreeItem.Expand
 0001:000C1178       ElTree._16709
 0001:000C11BC       Eltree.TElTreeItem.Collapse
 0001:000C13E8       Eltree.TElTreeItem.GetChildIndex
 0001:000C1420       Eltree.TElTreeItem.GetIndex
 0001:000C1454       Eltree.TElTreeItem.GetVisIndex
 0001:000C1478       Eltree.TElTreeItem.GetAbsIndex
 0001:000C149C       Eltree.TElTreeItem.RemoveChild
 0001:000C1534       Eltree.TElTreeItem.RemoveSubChild
 0001:000C18DC       Eltree.TElTreeItem.DeleteChild
 0001:000C1D00       Eltree.TElTreeItem.GetLastSubItem
 0001:000C1D40       Eltree.TElTreeItem.AddChild
 0001:000C1E48       Eltree.TElTreeItem.AddExistingChild
 0001:000C1F38       Eltree.TElTreeItem.AddLastChild
 0001:000C1FC4       Eltree.TElTreeItem.InsertChild
 0001:000C2190       Eltree.TElTreeItem.MoveTo
 0001:000C21EC       Eltree.TElTreeItem.MoveToIns
 0001:000C2524       Eltree.TElTreeItem.RedrawItemPart
 0001:000C25F8       Eltree.TElTreeItem.RedrawItem
 0001:000C26C4       Eltree.TElTreeItem.SetText
 0001:000C2900       Eltree.TElTreeItem.GetLevel
 0001:000C2934       Eltree.TElTreeItem.IsUnder
 0001:000C2990       Eltree.TElTreeItem.SetExpanded
 0001:000C29E4       Eltree.TElTreeItem.MakeFullyExpanded
 0001:000C2A9C       Eltree.TElTreeItem.SetParentStyle
 0001:000C2B5C       Eltree.TElTreeItem.SetParentColors
 0001:000C2B9C       Eltree.TElTreeItem.GetHasChildren
 0001:000C2BCC       Eltree.TElTreeItem.Clear
 0001:000C2CD4       Eltree.TElTreeItem.ClearSubChild
 0001:000C2DC4       Eltree.TElTreeItem.ExchangeItems
 0001:000C2E1C       ElTree._16738
 0001:000C2EE0       Eltree.TElTreeItem.NormalizeSorts
 0001:000C2F0C       Eltree.TElTreeItem.Sort
 0001:000C30D0       Eltree.TElTreeItem.AddSortData
 0001:000C3804       Eltree.TElTreeItem.ReleaseSortData
 0001:000C3858       Eltree.TElTreeItem.QuickSort
 0001:000C3B5C       Eltree.TElTreeItem.OnColTextChange
 0001:000C3D1C       Eltree.TElTreeItem.SetImageIndex
 0001:000C3DE0       Eltree.TElTreeItem.SetStImageIndex
 0001:000C3EA8       Eltree.TElTreeItem.SetImageIndex2
 0001:000C3F70       Eltree.TElTreeItem.SetStImageIndex2
 0001:000C403C       Eltree.TElTreeItem.SetForceButtons
 0001:000C40D4       Eltree.TElTreeItem.GetCount
 0001:000C4100       Eltree.TElTreeItem.GetItems
 0001:000C4134       Eltree.TElTreeItem.Delete
 0001:000C414C       Eltree.TElTreeItem.IsVisible
 0001:000C41B4       Eltree.TElTreeItem.GetNextVisible
 0001:000C41F0       Eltree.TElTreeItem.GetPrevVisible
 0001:000C422C       Eltree.TElTreeItem.GetPrev
 0001:000C4278       Eltree.TElTreeItem.GetNext
 0001:000C42D4       Eltree.TElTreeItem.MoveToItem
 0001:000C4454       Eltree.TElTreeItem.SetUseStyles
 0001:000C4570       Eltree.TElTreeItem.UpdateItem
 0001:000C45D4       Eltree.TElTreeItem.GetStyles
 0001:000C4620       Eltree.TElTreeItem.SetStyles
 0001:000C467C       Eltree.TElTreeItem.AddStyle
 0001:000C4774       Eltree.TElTreeItem.RemoveStyle
 0001:000C47C8       Eltree.TElTreeItem.GetStylesCount
 0001:000C480C       Eltree.TElTreeItem.SetCheckBoxState
 0001:000C48F0       Eltree.TElTreeItem.GetChecked
 0001:000C490C       Eltree.TElTreeItem.SetChecked
 0001:000C4A68       Eltree.TElTreeItem.SetShowCheckBox
 0001:000C4B54       Eltree.TElTreeItem.SetCheckBoxType
 0001:000C4C38       Eltree.TElTreeItem.SetCheckBoxEnabled
 0001:000C4D3C       Eltree.TElTreeItem.SetSuppressButtons
 0001:000C4E24       Eltree.TElTreeItem.SetEnabled
 0001:000C4E70       Eltree.TElTreeItem.SetHidden
 0001:000C4F9C       Eltree.TElTreeItem.GetFullyVisible
 0001:000C4FF0       Eltree.TElTreeItem.SetFullyVisible
 0001:000C5038       Eltree.TElTreeItem.GetHasVisibleChildren
 0001:000C50C8       Eltree.TElTreeItem.SetOwnerHeight
 0001:000C51A8       ElTree._16779
 0001:000C5250       Eltree.TElTreeItem.GetHeight
 0001:000C53B0       Eltree.TElTreeItem.SetHeight
 0001:000C5464       ElTree._16782
 0001:000C54B4       Eltree.TElTreeItem.SetSuppressLines
 0001:000C55B8       Eltree.TElTreeItem.SetRowBkColor
 0001:000C5604       Eltree.TElTreeItem.GetOwnerHeight
 0001:000C564C       Eltree.TElTreeItem.SetMultiline
 0001:000C5770       Eltree.TElTreeItem.ReRenderMainText
 0001:000C5930       Eltree.TElTreeItem.ReRenderAllTexts
 0001:000C5B30       Eltree.TElTreeItem.OnHTMLDataDestroy
 0001:000C5B78       Eltree.TElTreeItem.SetIsHTML
 0001:000C5D44       Eltree.TElTreeItem.GetAncestor
 0001:000C5D74       Eltree.TElTreeItem.CalcSubItemsHeight
 0001:000C5E00       Eltree.TElTreeItem.SetStrikedOutLine
 0001:000C5E44       Eltree.TElTreeItem.SetStrikedLineColor
 0001:000C5E80       Eltree.TElTreeItem.GetStrikedOutLine
 0001:000C5EA0       Eltree.TElTreeItem.SetDrawHLine
 0001:000C5EEC       Eltree.TElTreeItem.SetAllowEdit
 0001:000C5F30       Eltree.TElTreeItem.NewStaticData
 0001:000C6034       Eltree.TElTreeItem.DisposeStaticData
 0001:000C60B0       Eltree.TElTreeItem.FillStaticData
 0001:000C60BC       Eltree.TElTreeItem.GetText
 0001:000C6104       Eltree.TElTreeItem.GetColText
 0001:000C6130       Eltree.TElTreeItem.GetHint
 0001:000C6174       Eltree.TElTreeItem.SetHint
 0001:000C61D4       Eltree.TElTreeItem.GetMainStyle
 0001:000C6200       Eltree.TElTreeItem.SetBorderStyle
 0001:000C622C       Eltree.TElTreeItem.GetWidth
 0001:000C625C       Eltree.TElTreeItem.GetDrawHLine
 0001:000C6280       Eltree.TElTreeItem.GetAllowEdit
 0001:000C62A4       Eltree.TElTreeItem.GetParentStyle
 0001:000C62C4       Eltree.TElTreeItem.GetUseStyles
 0001:000C62E8       Eltree.TElTreeItem.GetUseBkColor
 0001:000C630C       Eltree.TElTreeItem.GetParentColors
 0001:000C632C       Eltree.TElTreeItem.GetForceButtons
 0001:000C634C       Eltree.TElTreeItem.GetSuppressButtons
 0001:000C6394       Eltree.TElTreeItem.GetSuppressLines
 0001:000C63B4       Eltree.TElTreeItem.GetIsHTML
 0001:000C63D8       Eltree.TElTreeItem.GetMultiline
 0001:000C63FC       Eltree.TElTreeItem.GetShowCheckBox
 0001:000C6420       Eltree.TElTreeItem.GetCheckBoxEnabled
 0001:000C6444       Eltree.TElTreeItem.GetEnabled
 0001:000C6468       Eltree.TElTreeItem.GetHidden
 0001:000C648C       Eltree.TElTreeItem.SetIndentAdjust
 0001:000C6538       Eltree.TElTreeItem.DisplayRect
 0001:000C65AC       Eltree.TElTreeItem.EndEdit
 0001:000C65CC       Eltree.TElTreeItem.HasAsParent
 0001:000C65F0       Eltree.TElTreeItem.IndexOf
 0001:000C6628       Eltree.TElTreeItem.MakeVisible
 0001:000C6640       Eltree.TElTreeItem.GetDropTarget
 0001:000C6664       Eltree.TElTreeItem.GetHintIsHTML
 0001:000C6688       Eltree.TElTreeItem.SetHintIsHTML
 0001:000C66CC       Eltree.TElTreeItem.SetBorderSpaceColor
 0001:000C6708       Eltree.TElTreeItem.SetOverlayIndex
 0001:000C67A4       Eltree.TElTreeItem.SetOverlayIndex2
 0001:000C6844       Eltree.TElTreeItems
 0001:000C6898       Eltree.TElTreeItems
 0001:000C6958       Eltree.TElTreeItems
 0001:000C69B8       Eltree.TElTreeItems.GetVisCount
 0001:000C69D8       ElTree._16839
 0001:000C69F4       Eltree.TElTreeItems.DefineProperties
 0001:000C6A4C       Eltree.TElTreeItems.SetItem
 0001:000C6A74       ElTree._16842
 0001:000C6B9C       Eltree.TElTreeItems.Iterate
 0001:000C6BD0       ElTree._16844
 0001:000C6D7C       Eltree.TElTreeItems.IterateBranch
 0001:000C6E28       ElTree._16846
 0001:000C6FC0       Eltree.TElTreeItems.IterateFrom
 0001:000C7064       ElTree._16848
 0001:000C7180       Eltree.TElTreeItems.IterateBack
 0001:000C71D8       ElTree._16850
 0001:000C7370       Eltree.TElTreeItems.IterateBackFrom
 0001:000C7434       Eltree.TElTreeItems.GetVisItem
 0001:000C753C       Eltree.TElTreeItems.GetItem
 0001:000C7584       Eltree.TElTreeItems.GetVisIndex
 0001:000C767C       Eltree.TElTreeItems.GetAbsIndex
 0001:000C76B8       Eltree.TElTreeItems.DeleteItem
 0001:000C7784       Eltree.TElTreeItems.AllocateStorage
 0001:000C77D0       Eltree.TElTreeItems.RemoveItem
 0001:000C78A8       Eltree.TElTreeItems.AddExistingItem
 0001:000C7A30       Eltree.TElTreeItems.InsertExistingItem
 0001:000C7AF8       Eltree.TElTreeItems.InsertItem
 0001:000C7C70       Eltree.TElTreeItems.AddLastItem
 0001:000C7D54       Eltree.TElTreeItems.AddItem
 0001:000C7E38       Eltree.TElTreeItems.Assign
 0001:000C7F38       Eltree.TElTreeItems.Clear
 0001:000C7FF4       Eltree.TElTreeItems.GetCount
 0001:000C8028       Eltree.TElTreeItems.CreateItem
 0001:000C804C       Eltree.TElTreeItems.ReadData
 0001:000C80F0       Eltree.TElTreeItems.WriteData
 0001:000C8150       Eltree.TElTreeItems.SaveToStream
 0001:000C816C       Eltree.TElTreeItems.LoadFromStream
 0001:000C8188       Eltree.TElTreeItems.SaveToFile
 0001:000C8220       Eltree.TElTreeItems.LoadFromFile
 0001:000C82B4       Eltree.TElTreeItems.Add
 0001:000C8330       Eltree.TElTreeItems.AddChild
 0001:000C8394       Eltree.TElTreeItems.AddChildFirst
 0001:000C83F8       Eltree.TElTreeItems.AddChildObject
 0001:000C8468       Eltree.TElTreeItems.AddChildObjectFirst
 0001:000C84D8       Eltree.TElTreeItems.AddFirst
 0001:000C8558       Eltree.TElTreeItems.AddObject
 0001:000C85E0       Eltree.TElTreeItems.AddObjectFirst
 0001:000C866C       Eltree.TElTreeItems.Insert
 0001:000C86F8       Eltree.TElTreeItems.InsertObject
 0001:000C8790       Eltree.TElTreeItems.Delete
 0001:000C87AC       Eltree.TElTreeItems.GetFirstNode
 0001:000C87CC       Eltree.TElTreeItems.BeginUpdate
 0001:000C87E4       Eltree.TElTreeItems.EndUpdate
 0001:000C87FC       Eltree.TElTreeItems.InsertAfterObject
 0001:000C8894       Eltree.TElTreeItems.InsertAfter
 0001:000C8920       ElTree._16890
 0001:000C89AC       Eltree.TElTreeItems.LookBackForItemEx2
 0001:000C8A34       ElTree._16892
 0001:000C8A50       ElTree._16893
 0001:000C8BE0       Eltree.TElTreeItems.LookForItem
 0001:000C8CCC       ElTree._16895
 0001:000C8D58       Eltree.TElTreeItems.LookForItemEx2
 0001:000C8DE0       ElTree._16897
 0001:000C9014       Eltree.TElTreeItems.LookForItem2
 0001:000C9100       ElTree._16899
 0001:000C9178       Eltree.TElTreeItems.LookForItemEx
 0001:000C9204       Eltree.TElTreeItems.GetRootCount
 0001:000C9224       Eltree.TElTreeItems.GetRootItem
 0001:000C9248       Eltree.TElTreeItems.LoadFromStringList
 0001:000C9318       Eltree.TElTreeItems.LoadFromWideStringList
 0001:000C93D4       Eltree.TElTreeItems.InsertItemFromString
 0001:000C958C       Eltree.TElTreeItems.SaveToStringList
 0001:000C97C4       Eltree.TElTreeItems.SaveToWideStringList
 0001:000C9998       Eltree.TCustomElTree.SetBSVLines
 0001:000C9A04       Eltree.TCustomElTree.AlignPieces
 0001:000C9D80       Eltree.TCustomElTree.GetRoot
 0001:000C9DA0       ElTree._16911
 0001:000C9EE8       ElTree._16912
 0001:000C9F5C       Eltree.TCustomElTree
 0001:000C9FB8       Eltree.TCustomElTree
 0001:000CADCC       Eltree.TCustomElTree
 0001:000CB02C       Eltree.TCustomElTree.SetLinkColor
 0001:000CB06C       Eltree.TCustomElTree.SetLinkStyle
 0001:000CB0AC       Eltree.TCustomElTree.CreateWindowHandle
 0001:000CB0EC       Eltree.TCustomElTree.GetSelCount
 0001:000CB134       Eltree.TCustomElTree.CreateParams
 0001:000CB1D0       Eltree.TCustomElTree.CMCtl3DChanged
 0001:000CB20C       Eltree.TCustomElTree.SetHorzScrollBarStyle
 0001:000CB230       Eltree.TCustomElTree.SetVertScrollBarStyle
 0001:000CB254       Eltree.TCustomElTree.GetItemAt
 0001:000CB2B0       Eltree.TCustomElTree.SetImages
 0001:000CB484       Eltree.TCustomElTree.SetLineStyle
 0001:000CB4FC       Eltree.TCustomElTree.SetShowEmptyImages
 0001:000CB58C       Eltree.TCustomElTree.SetShowEmptyImages2
 0001:000CB61C       Eltree.TCustomElTree.SetRootStyle
 0001:000CB694       Eltree.TCustomElTree.SetImagesStyle
 0001:000CB76C       Eltree.TCustomElTree.ImageListChange
 0001:000CB828       Eltree.TCustomElTree.SetBorderStyle
 0001:000CB85C       Eltree.TCustomElTree.SetButtonStyle
 0001:000CB8D4       Eltree.TCustomElTree.GetUpdating
 0001:000CB8F4       Eltree.TCustomElTree.SetUpdating
 0001:000CBB60       Eltree.TCustomElTree.GetTotalVisCount
 0001:000CBC30       ElTree._16938
 0001:000CBEEC       ElTree._16939
 0001:000CC12C       Eltree.TCustomElTree.UpdateScrollBars
 0001:000CC1C4       Eltree.TCustomElTree.SetHLines
 0001:000CC27C       Eltree.TCustomElTree.SetVLines
 0001:000CC2DC       Eltree.TCustomElTree.OnHeaderSectionResize
 0001:000CC364       ElTree._16944
 0001:000CC570       Eltree.TCustomElTree.OnHeaderSectionLookup
 0001:000CC608       Eltree.TCustomElTree.OnHeaderExpand
 0001:000CC680       Eltree.TCustomElTree.OnHeaderCollapse
 0001:000CC6F8       Eltree.TCustomElTree.OnHeaderSectionLookupDone
 0001:000CC758       Eltree.TCustomElTree.DoHeaderMouseDown
 0001:000CC7C4       Eltree.TCustomElTree.OnHeaderSectionClick
 0001:000CCA70       Eltree.TCustomElTree.OnSignChange
 0001:000CCB38       Eltree.TCustomElTree.OnFontChange
 0001:000CCC4C       Eltree.TCustomElTree.GetHeaderWrapCaptions
 0001:000CCC70       Eltree.TCustomElTree.SetHeaderWrapCaptions
 0001:000CCC94       Eltree.TCustomElTree.SetHeaderHotTrack
 0001:000CCCC4       Eltree.TCustomElTree.SetRowSelect
 0001:000CCD34       Eltree.TCustomElTree.SetMultiSelect
 0001:000CCE1C       Eltree.TCustomElTree.SetMultiSelectLevel
 0001:000CCE9C       Eltree.TCustomElTree.DoSetFocused
 0001:000CCEC8       Eltree.TCustomElTree.DoSetFocusedEx
 0001:000CD158       Eltree.TCustomElTree.DoChanging
 0001:000CD1A8       Eltree.TCustomElTree.SetFocused
 0001:000CD1C8       Eltree.TCustomElTree.GetNextSelected
 0001:000CD274       Eltree.TCustomElTree.AllSelected
 0001:000CD2CC       Eltree.TCustomElTree.EnsureVisible
 0001:000CD390       Eltree.TCustomElTree.EnsureVisibleBottom
 0001:000CD44C       Eltree.TCustomElTree.SetAutoLineHeight
 0001:000CD4D8       Eltree.TCustomElTree.SetItemIndent
 0001:000CD530       Eltree.TCustomElTree.SetLineHeight
 0001:000CD5C0       Eltree.TCustomElTree.DefineLineHeight
 0001:000CD71C       Eltree.TCustomElTree.WMSize
 0001:000CD764       Eltree.TCustomElTree.Resize
 0001:000CD794       Eltree.TCustomElTree.GetItemRect
 0001:000CD7D8       Eltree.TCustomElTree.OnHeaderSectionVisChange
 0001:000CD860       Eltree.TCustomElTree.DoOnColumnResize
 0001:000CD894       Eltree.TCustomElTree.DoColumnClick
 0001:000CD8C8       Eltree.TCustomElTree.DoItemFocused
 0001:000CD908       Eltree.TCustomElTree.DoItemDraw
 0001:000CD95C       Eltree.TCustomElTree.DoShowHint
 0001:000CD9B8       Eltree.TCustomElTree.DoItemChange
 0001:000CD9F4       Eltree.TCustomElTree.DoItemExpanding
 0001:000CDA30       Eltree.TCustomElTree.DoItemCollapsing
 0001:000CDA6C       Eltree.TCustomElTree.DoItemChecked
 0001:000CDAA0       Eltree.TCustomElTree.DoItemExpand
 0001:000CDAD4       Eltree.TCustomElTree.DoItemCollapse
 0001:000CDB08       Eltree.TCustomElTree.DoItemDelete
 0001:000CDB3C       Eltree.TCustomElTree.DoCompareItems
 0001:000CDB88       Eltree.TCustomElTree.OnHeaderSectionChange
 0001:000CDC3C       Eltree.TCustomElTree.CreateHeader
 0001:000CDC60       Eltree.TCustomElTree.SetCanEdit
 0001:000CDC7C       Eltree.TCustomElTree.OnHeaderSectionCreate
 0001:000CDCB8       Eltree.TCustomElTree.Paint
 0001:000CDF88       Eltree.TCustomElTree.GetMoveColumnOnDrag
 0001:000CDFAC       Eltree.TCustomElTree.SetMoveColumnOnDrag
 0001:000CDFE4       Eltree.TCustomElTree.SetHideHorzScrollBar
 0001:000CE060       Eltree.TCustomElTree.SetHideVertScrollBar
 0001:000CE0DC       Eltree.TCustomElTree.SetUnderlineTracked
 0001:000CE13C       Eltree.TCustomElTree.SetCustomCheckboxes
 0001:000CE1BC       Eltree.TCustomElTree.SetCheckBoxGlyph
 0001:000CE228       Eltree.TCustomElTree.SetRadioButtonGlyph
 0001:000CE294       Eltree.TCustomElTree.SetShowRootButtons
 0001:000CE30C       Eltree.TCustomElTree.SetHideFocusRect
 0001:000CE384       Eltree.TCustomElTree.GetLockHeaderHeight
 0001:000CE3A8       Eltree.TCustomElTree.SetLockHeaderHeight
 0001:000CE3D8       Eltree.TCustomElTree.UpdateFrame
 0001:000CE430       ElTree._17006
 0001:000CE554       ElTree._17007
 0001:000CE580       Eltree.TCustomElTree.WMSetFocus
 0001:000CE60C       Eltree.TCustomElTree.WMKillFocus
 0001:000CE668       Eltree.TCustomElTree.AutoSizeColumn
 0001:000CE70C       Eltree.TCustomElTree.CanFocus
 0001:000CE728       Eltree.TCustomElTree.AutoSizeAllColumns
 0001:000CE7B0       Eltree.TCustomElTree.MeasureCell
 0001:000CF830       Eltree.TCustomElTree.MeasureColumnWidth
 0001:000CF948       Eltree.TCustomElTree.HeaderSectionAutoSizeHandler
 0001:000CFA00       Eltree.TCustomElTree.SectionAutoSizeTransfer
 0001:000CFA40       Eltree.TCustomElTree.SectionFilterCallTransfer
 0001:000CFA80       Eltree.TCustomElTree.SetHeaderActiveFilterColor
 0001:000CFAA4       Eltree.TCustomElTree.GetHeaderActiveFilterColor
 0001:000CFAC8       Eltree.TCustomElTree.SetHeaderFilterColor
 0001:000CFAEC       Eltree.TCustomElTree.GetHeaderFilterColor
 0001:000CFB10       Eltree.TCustomElTree.SetHeaderFlat
 0001:000CFB34       Eltree.TCustomElTree.GetHeaderFlat
 0001:000CFB58       Eltree.TCustomElTree.WMEnable
 0001:000CFBA4       Eltree.TCustomElTree.SetFlatFocusedScrollbars
 0001:000CFC04       Eltree.TCustomElTree.BackgroundChange
 0001:000CFC64       Eltree.TCustomElTree.SetBackground
 0001:000CFC88       Eltree.TCustomElTree.SetBackgroundType
 0001:000CFD08       Eltree.TCustomElTree.SetHideSelectTextColor
 0001:000CFD60       Eltree.TCustomElTree.SetFocusedSelectTextColor
 0001:000CFDB8       Eltree.TCustomElTree.SetHideSelectColor
 0001:000CFE10       Eltree.TCustomElTree.SetFocusedSelectColor
 0001:000CFE68       Eltree.TCustomElTree.SetNoBlendSelected
 0001:000CFEAC       Eltree.TCustomElTree.SetRowHotTrack
 0001:000CFF0C       Eltree.TCustomElTree.SetActiveBorderType
 0001:000CFF64       Eltree.TCustomElTree.SetInactiveBorderType
 0001:000CFFBC       Eltree.TCustomElTree.SetGradientStartColor
 0001:000D0020       Eltree.TCustomElTree.SetGradientEndColor
 0001:000D0084       Eltree.TCustomElTree.SetGradientSteps
 0001:000D00EC       Eltree.TCustomElTree.GetHeaderImages
 0001:000D0110       Eltree.TCustomElTree.SetHeaderImages
 0001:000D0148       Eltree.TCustomElTree.TriggerScrollEvent
 0001:000D0184       Eltree.TCustomElTree.DeselectAllEx
 0001:000D026C       Eltree.TCustomElTree.DeselectAll
 0001:000D0354       Eltree.TCustomElTree.SelectAllEx
 0001:000D044C       Eltree.TCustomElTree.SelectAll
 0001:000D0544       Eltree.TCustomElTree.InvertSelectionEx
 0001:000D0640       Eltree.TCustomElTree.InvertSelection
 0001:000D0738       Eltree.TCustomElTree.GetFocused
 0001:000D075C       Eltree.TCustomElTree.GetSelected
 0001:000D0780       Eltree.TCustomElTree.SetSelected
 0001:000D07C8       Eltree.TCustomElTree.GetTopItem
 0001:000D0810       Eltree.TCustomElTree.SetTopItem
 0001:000D088C       Eltree.TCustomElTree.TriggerHeaderColumnMoveEvent
 0001:000D08D0       Eltree.TCustomElTree.TriggerTryEditEvent
 0001:000D0920       Eltree.TCustomElTree.TriggerItemSaveEvent
 0001:000D095C       Eltree.TCustomElTree.TriggerItemLoadEvent
 0001:000D0998       Eltree.TCustomElTree.Save
 0001:000D0D50       Eltree.TCustomElTree.Restore
 0001:000D12D4       Eltree.TCustomElTree.TriggerItemSelectedChangeEvent
 0001:000D1314       Eltree.TCustomElTree.WMEraseBkgnd
 0001:000D1330       Eltree.TCustomElTree.SetShowHeader
 0001:000D1410       Eltree.TCustomElTree.SetMainTreeCol
 0001:000D1490       Eltree.TCustomElTree.DoHeaderResize
 0001:000D1574       Eltree.TCustomElTree.DoHeaderDraw
 0001:000D15C8       Eltree.TCustomElTree.CMFontChanged
 0001:000D1694       Eltree.TCustomElTree.CMColorChanged
 0001:000D16D4       Eltree.TCustomElTree.SetHeaderHeight
 0001:000D1770       Eltree.TCustomElTree.GetHeaderHeight
 0001:000D1790       Eltree.TCustomElTree.SetHeaderSections
 0001:000D17E0       Eltree.TCustomElTree.GetHeaderSections
 0001:000D1804       ElTree._17072
 0001:000D18D4       Eltree.TCustomElTree.SaveStringsToStream
 0001:000D1928       Eltree.TCustomElTree.GetItemAtY
 0001:000D1960       Eltree.TCustomElTree.Focused
 0001:000D197C       Eltree.TCustomElTree.FullCollapse
 0001:000D1A20       Eltree.TCustomElTree.FullExpand
 0001:000D1AC4       Eltree.TCustomElTree.ImageFormChange
 0001:000D1ADC       Eltree.TCustomElTree.SetImageForm
 0001:000D1B78       Eltree.TCustomElTree.SetTextColor
 0001:000D1BEC       Eltree.TCustomElTree.SetBkColor
 0001:000D1C60       Eltree.TCustomElTree.SetItems
 0001:000D1C84       Eltree.TCustomElTree.CreateItemsExt
 0001:000D1CB0       Eltree.TCustomElTree.CreateItems
 0001:000D1CD4       Eltree.TCustomElTree.Notification
 0001:000D1D98       Eltree.TCustomElTree.SelectRangeEx2
 0001:000D1F64       Eltree.TCustomElTree.SelectRangeEx
 0001:000D1F94       Eltree.TCustomElTree.SelectRange2
 0001:000D20FC       Eltree.TCustomElTree.SelectRange
 0001:000D2124       Eltree.TCustomElTree.SetUseStdBars
 0001:000D2158       Eltree.TCustomElTree.SetChStateImage
 0001:000D21B0       Eltree.TCustomElTree.SetHideSelect
 0001:000D2228       Eltree.TCustomElTree.Assign
 0001:000D260C       Eltree.TCustomElTree.Sort
 0001:000D2658       Eltree.TCustomElTree.CMMouseEnter
 0001:000D26C4       Eltree.TCustomElTree.CMMouseLeave
 0001:000D2730       Eltree.TCustomElTree.OnHeaderSectionDelete
 0001:000D2844       Eltree.TCustomElTree.DoGetPicture
 0001:000D2888       Eltree.TCustomElTree.DoGetPicture2
 0001:000D28CC       Eltree.TCustomElTree.GetDraggableSections
 0001:000D28F0       Eltree.TCustomElTree.SetDraggableSections
 0001:000D2928       Eltree.TCustomElTree.OnHeaderSectionMove
 0001:000D2984       Eltree.TCustomElTree.TriggerHotTrackEvent
 0001:000D29C0       Eltree.TCustomElTree.SetSortMode
 0001:000D29EC       Eltree.TCustomElTree.SetSortSection
 0001:000D2A30       Eltree.TCustomElTree.CompareItems
 0001:000D2E84       Eltree.TCustomElTree.SlowCompareItems
 0001:000D37E0       Eltree.TCustomElTree.Update
 0001:000D37F4       Eltree.TCustomElTree.IsEditing
 0001:000D3838       Eltree.TCustomElTree.SetStorage
 0001:000D389C       Eltree.TCustomElTree.GetNodeAt
 0001:000D38C4       Eltree.TCustomElTree.SetShowCheckboxes
 0001:000D3944       Eltree.TCustomElTree.SetPlusPicture
 0001:000D3964       Eltree.TCustomElTree.SetMinusPicture
 0001:000D3984       Eltree.TCustomElTree.SetCustomPlusMinus
 0001:000D3A2C       Eltree.TCustomElTree.SetSelectColumn
 0001:000D3AF4       Eltree.TCustomElTree.TriggerHeaderLookupEvent
 0001:000D3B30       Eltree.TCustomElTree.TriggerHeaderLookupDoneEvent
 0001:000D3BA4       Eltree.TCustomElTree.TriggerHeaderSectionExpandEvent
 0001:000D3BD8       Eltree.TCustomElTree.TriggerHeaderSectionCollapseEvent
 0001:000D3C0C       Eltree.TCustomElTree.ScrollBarMouseDown
 0001:000D3C70       Eltree.TCustomElTree.SBChanged
 0001:000D3CA8       Eltree.TCustomElTree.Loaded
 0001:000D3E5C       Eltree.TCustomElTree.SetDragType
 0001:000D3F40       Eltree.TCustomElTree.TriggerOleTargetDragEvent
 0001:000D3FAC       Eltree.TCustomElTree.TriggerOleTargetDropEvent
 0001:000D4014       Eltree.TCustomElTree.TriggerOleDragStartEvent
 0001:000D4058       Eltree.TCustomElTree.TriggerOleDragFinishEvent
 0001:000D4094       Eltree.TCustomElTree.HeaderResizeTransfer
 0001:000D40C8       Eltree.TCustomElTree.HeaderResizeHandler
 0001:000D40F0       Eltree.TCustomElTree.IsInView
 0001:000D4120       Eltree.TCustomElTree.SectionTypeToSortType
 0001:000D41AC       Eltree.TCustomElTree.GetStickyHeaderSections
 0001:000D41D0       Eltree.TCustomElTree.SetStickyHeaderSections
 0001:000D41F4       Eltree.TCustomElTree.SetBarStyle
 0001:000D42C4       Eltree.TCustomElTree.SetDrawFocusRect
 0001:000D430C       Eltree.TCustomElTree.TriggerMeasureItemPartEvent
 0001:000D4350       Eltree.TCustomElTree.SetHorzDivLinesColor
 0001:000D43B4       Eltree.TCustomElTree.SetLinesColor
 0001:000D4418       Eltree.TCustomElTree.SetLinesStyle
 0001:000D447C       Eltree.TCustomElTree.SetImages2
 0001:000D45F0       Eltree.TCustomElTree.SetRightAlignedTree
 0001:000D4698       Eltree.TCustomElTree.SetFlat
 0001:000D46E0       Eltree.TCustomElTree.DrawFlatBorder
 0001:000D4A20       Eltree.TCustomElTree.DrawFlatBorderEx
 0001:000D4D1C       Eltree.TCustomElTree.WMNCCalcSize
 0001:000D4EA8       Eltree.TCustomElTree.CMEnabledChanged
 0001:000D4EF4       Eltree.TCustomElTree.WMNCHITTEST
 0001:000D4F38       Eltree.TCustomElTree.WMNCPaint
 0001:000D5028       Eltree.TCustomElTree.WMMouseMove
 0001:000D508C       Eltree.TCustomElTree.SetRightAlignedText
 0001:000D50D0       Eltree.TCustomElTree.SetForcedScrollBars
 0001:000D5138       Eltree.TCustomElTree.SetFilteredVisibility
 0001:000D51E0       Eltree.TCustomElTree.TriggerApplyVisFilterEvent
 0001:000D521C       Eltree.TCustomElTree.SetHPosition
 0001:000D5240       Eltree.TCustomElTree.SetVPosition
 0001:000D5264       Eltree.TCustomElTree.ClickTransfer
 0001:000D5298       Eltree.TCustomElTree.DblClickTransfer
 0001:000D52CC       Eltree.TCustomElTree.DropTransfer
 0001:000D5364       Eltree.TCustomElTree.OverTransfer
 0001:000D5408       Eltree.TCustomElTree.DragTransfer
 0001:000D5484       Eltree.TCustomElTree.EnterTransfer
 0001:000D54B8       Eltree.TCustomElTree.ExitTransfer
 0001:000D54EC       Eltree.TCustomElTree.KeyDownTransfer
 0001:000D552C       Eltree.TCustomElTree.KeyPressTransfer
 0001:000D5564       Eltree.TCustomElTree.KeyUpTransfer
 0001:000D55A4       Eltree.TCustomElTree.MouseDownTransfer
 0001:000D5608       Eltree.TCustomElTree.MouseMoveTransfer
 0001:000D5668       Eltree.TCustomElTree.MouseUpTransfer
 0001:000D56CC       Eltree.TCustomElTree.StartDragTransfer
 0001:000D578C       Eltree.TCustomElTree.MeasureSectionTransfer
 0001:000D57CC       Eltree.TCustomElTree.CreateView
 0001:000D57F0       Eltree.TCustomElTree.SetCursor
 0001:000D5834       Eltree.TCustomElTree.GetCursor
 0001:000D5858       Eltree.TCustomElTree.SetScrollInfo
 0001:000D58B8       Eltree.TCustomElTree.GetScrollInfo
 0001:000D5918       Eltree.TCustomElTree.HorzScrollDrawPartTransfer
 0001:000D5978       Eltree.TCustomElTree.HorzScrollHintNeededTransfer
 0001:000D59B8       Eltree.TCustomElTree.VertScrollDrawPartTransfer
 0001:000D5A18       Eltree.TCustomElTree.VertScrollHintNeededHandler
 0001:000D5B90       Eltree.TCustomElTree.VertScrollHintNeededTransfer
 0001:000D5BD0       Eltree.TCustomElTree.CreateWnd
 0001:000D5C44       Eltree.TCustomElTree.AlignControls
 0001:000D5C70       Eltree.TCustomElTree.GetHeaderInvertSortArrows
 0001:000D5C94       Eltree.TCustomElTree.SetHeaderInvertSortArrows
 0001:000D5CB8       Eltree.TCustomElTree.GetDragImages
 0001:000D5CDC       Eltree.TCustomElTree.GetLockedHeaderSection
 0001:000D5D00       Eltree.TCustomElTree.SetLockedHeaderSection
 0001:000D5D24       Eltree.TCustomElTree.ActionChange
 0001:000D5D48       Eltree.TCustomElTree.SetAutoExpand
 0001:000D5D74       Eltree.TCustomElTree.SetMoveFocusOnCollapse
 0001:000D5DA0       Eltree.TCustomElTree.GetDragCursor
 0001:000D5DC4       Eltree.TCustomElTree.SetDragCursor
 0001:000D5DE8       Eltree.TCustomElTree.SetTrackColor
 0001:000D5E3C       Eltree.TCustomElTree.SetTransButtons
 0001:000D5EA0       Eltree.TCustomElTree.SetHeaderColor
 0001:000D5EC4       Eltree.TCustomElTree.GetHeaderColor
 0001:000D5EE4       Eltree.TCustomElTree.SetAdjustMultilineHeight
 0001:000D5FC4       Eltree.TCustomElTree.TriggerImageNeededEvent
 0001:000D6034       Eltree.TCustomElTree.WMVScroll
 0001:000D6148       Eltree.TCustomElTree.WMHScroll
 0001:000D61F4       Eltree.TCustomElTree.TriggerSortBegin
 0001:000D6220       Eltree.TCustomElTree.TriggerSortEnd
 0001:000D624C       Eltree.TCustomElTree.TriggerItemPostDrawEvent
 0001:000D62A0       Eltree.TCustomElTree.SetHeaderImageForm
 0001:000D62C4       Eltree.TCustomElTree.GetHeaderImageForm
 0001:000D62E8       Eltree.TCustomElTree.GetHint
 0001:000D630C       Eltree.TCustomElTree.SetHint
 0001:000D6370       Eltree.TCustomElTree.StartDelayedFocus
 0001:000D63C4       Eltree.TCustomElTree.StopDelayedFocus
 0001:000D63EC       Eltree.TCustomElTree.OnDelayTimer
 0001:000D6434       Eltree.TCustomElTree.DoAfterSelectionChange
 0001:000D6460       Eltree.TCustomElTree.SetDragRectAcceptColor
 0001:000D6508       Eltree.TCustomElTree.SetDragRectDenyColor
 0001:000D65B0       Eltree.TCustomElTree.SetDragTrgDrawMode
 0001:000D65DC       Eltree.TCustomElTree.GetVisibleRowCount
 0001:000D6600       Eltree.TCustomElTree.IndexInView
 0001:000D6630       Eltree.TCustomElTree.GetDropTarget
 0001:000D6654       Eltree.TCustomElTree.DoSetDragTrgDrawMode
 0001:000D66F0       Eltree.TCustomElTree.AllSelectedEx
 0001:000D678C       Eltree.TCustomElTree.GetFireFocusEvents
 0001:000D67BC       Eltree.TCustomElTree.SetFireFocusEvents
 0001:000D67E8       Eltree.TCustomElTree.SetScrollbarOpposite
 0001:000D6828       Eltree.TCustomElTree.SetLineHintTimeout
 0001:000D6854       Eltree.TCustomElTree.SetVerticalLinesLong
 0001:000D6894       Eltree.TCustomElTree.DoEndDrag
 0001:000D68DC       Eltree.TCustomElTree.GetDefaultSectionWidth
 0001:000D6900       Eltree.TCustomElTree.SetDefaultSectionWidth
 0001:000D6924       Eltree.TCustomElTree.UpdateDiffItems
 0001:000D6C14       Eltree.TCustomElTree.SetBorderSides
 0001:000D6C54       Eltree.TCustomElTree.ClearSortList
 0001:000D6CAC       Eltree.TCustomElTree.AddSortSection
 0001:000D6D60       Eltree.TCustomElTree.RemoveSortSection
 0001:000D6E08       Eltree.TCustomElTree.TriggerVirtualTextNeeded
 0001:000D6E54       Eltree.TCustomElTree.SetVirtualityLevel
 0001:000D7028       Eltree.TCustomElTree.TriggerVirtualHintNeeded
 0001:000D706C       Eltree.TCustomElTree.TriggerVirtualValueNeeded
 0001:000D70FC       Eltree.TCustomElTree.TriggerVirtualStyleNeeded
 0001:000D7140       Eltree.TCustomElTree.SetStripedOddColor
 0001:000D7180       Eltree.TCustomElTree.SetStripedEvenColor
 0001:000D71C0       Eltree.TCustomElTree.SetStripedItems
 0001:000D71F4       Eltree.TCustomElTree.TriggerInplaceEditorNeeded
 0001:000D7250       Eltree.TCustomElTree.VertScrollHitTestTransfer
 0001:000D7298       Eltree.TCustomElTree.HorzScrollHitTestTransfer
 0001:000D72E0       Eltree.TCustomElTree.SetVertDivLinesColor
 0001:000D7344       Eltree.TCustomElTree.SetCheckBoxSize
 0001:000D73D0       Eltree.TCustomElTree.GetTrackItem
 0001:000D73F4       Eltree.TCustomElTree.GetDragging
 0001:000D7418       Eltree.TCustomElTree.IFMRepaintChildren
 0001:000D7448       Eltree.TCustomElTree.WMWindowPosChanged
 0001:000D7474       Eltree.TCustomElTree.IFMCanPaintBkgnd
 0001:000D7490       Eltree.TCustomElTree.SetShowLeafButton
 0001:000D7508       Eltree.TCustomElTree.SetLeafPicture
 0001:000D7528       Eltree.TCustomElTree.MouseWheelTransfer
 0001:000D7564       Eltree.TCustomElTree.MouseWheelDownTransfer
 0001:000D759C       Eltree.TCustomElTree.MouseWheelUpTransfer
 0001:000D75D4       Eltree.TCustomElTree.FitMostChildren
 0001:000D75F8       Eltree.TCustomElTree.GetThemedClassName
 0001:000D7630       Eltree.TCustomElTree.SetUseXPThemes
 0001:000D7688       Eltree.TCustomElTree.GetCheckBoxSize
 0001:000D773C       Eltree.TCustomElTree.GetHeaderPopupMenu
 0001:000D775C       Eltree.TCustomElTree.SetHeaderPopupMenu
 0001:000D7780       Eltree.TCustomElTree.ReRenderAllHTMLItems
 0001:000D77E4       Eltree.TCustomElTree.SetHeaderFont
 0001:000D7808       Eltree.TCustomElTree.SetHeaderUseTreeFont
 0001:000D786C       Eltree.TCustomElTree.HeaderFontChanged
 0001:000D78A0       Eltree.TCustomElTree.IsStripedColorStored
 0001:000D78BC       Eltree.TCustomElTree.WMThemeChanged
 0001:000D7934       Eltree.TCustomElTree.SetSortUseCase
 0001:000D7960       Eltree.TCustomElTree.DoEnter
 0001:000D797C       Eltree.TCustomElTree.DoExit
 0001:000D7998       Eltree.TCustomElTree.SetLineBorderActiveColor
 0001:000D7A00       Eltree.TCustomElTree.SetLineBorderInactiveColor
 0001:000D7A68       Eltree.TCustomElTree.SetDblClickMode
 0001:000D7AA8       Eltree.TCustomElTree.SetExpandOnDblClick
 0001:000D7AE4       Eltree.TCustomElTree.OnBeforeHook
 0001:000D7B2C       Eltree.TCustomElTree.SetParent
 0001:000D7BC4       Eltree.TCustomElTree.GetPlusPicture
 0001:000D7C18       Eltree.TCustomElTree.GetLeafPicture
 0001:000D7C6C       Eltree.TCustomElTree.GetMinusPicture
 0001:000D7CC0       Eltree.TCustomElTree.GetCheckBoxGlyph
 0001:000D7D14       Eltree.TCustomElTree.GetRadioButtonGlyph
 0001:000D7D68       Eltree.TCustomElTree.OnCheckSignChange
 0001:000D7E44       Eltree.TCustomElTree.WMUpdateSBFrame
 0001:000D7E70       Eltree.TCustomElTree.SetDoubleBuffered
 0001:000D7ED0       Eltree.TCustomElTree.WMSysColorChange
 0001:000D7F64       Eltree.TElCellStyle
 0001:000D7FC4       Eltree.TElCellStyle
 0001:000D8000       Eltree.TElCellStyle.SetCellBkColor
 0001:000D8050       Eltree.TElCellStyle.SetTextBkColor
 0001:000D80A8       Eltree.TElCellStyle.SetTextColor
 0001:000D8100       Eltree.TElCellStyle.SetTextFlags
 0001:000D8158       Eltree.TElCellStyle.SetPicture
 0001:000D81B0       Eltree.TElCellStyle.SetCellType
 0001:000D81D4       Eltree.TElCellStyle.SetStyle
 0001:000D8224       Eltree.TElCellStyle.SetOwnerColors
 0001:000D8274       Eltree.TElCellStyle.SetFontSize
 0001:000D832C       Eltree.TElCellStyle.SetFontStyles
 0001:000D83E4       Eltree.TElCellStyle.SetFontName
 0001:000D84DC       Eltree.TElCellStyle.Assign
 0001:000D858C       Eltree.TElCellStyle.SetControl
 0001:000D8604       Eltree.TElCellStyle.Update
 0001:000D8624       Eltree.TElCellStyle.SetUseBkColor
 0001:000D8674       Eltree.TElTreeInplaceEditor.SetTree
 0001:000D86E8       Eltree.TElTreeInplaceEditor.Notification
 0001:000D8770       Eltree.TElTreeInplaceEditor.CompleteOperation
 0001:000D87F8       Eltree.TElTreeInplaceEditor.SetEditorParent
 0001:000D8804       Eltree.TElTreeInplaceEditor.StartOperation
 0001:000D8834       Eltree.TElTreeInplaceEditor.TriggerBeforeOperation
 0001:000D8890       Eltree.TElTreeInplaceEditor.TriggerAfterOperation
 0001:000D88C8       Eltree.TElTreeInplaceEditor.TriggerValidateResult
 0001:000D88F4       Eltree.TElTreeInplaceEditor.DoStopOperation
 0001:000D8998       Eltree.TElTreeInplaceManager.RegisterEditor
 0001:000D89D4       Eltree.TElTreeInplaceManager.UnregisterEditor
 0001:000D8A08       Eltree.TElTreeInplaceManager
 0001:000D8A64       Eltree.TElTreeInplaceManager
 0001:000D8AA8       Eltree.TElTreeInplaceManager.GetSuitableEditor
 0001:000D8B10       Eltree.TElTreeInplaceManager.Notification
 0001:000D8B58       Eltree.Finalization
 0001:000D8BB4       Eltree.initialization
 0001:000D8D88       Eltreecombo.TDropdownElTree
 0001:000D90D0       Eltreecombo.TElTreeCombo
 0001:000DBE2C       ElTreeCombo._16390
 0001:000DBF94       ElTreeCombo._16391
 0001:000DBFC4       Eltreecombo.TDropdownElTree.WMNCHitTest
 0001:000DC114       Eltreecombo.TDropdownElTree.CreateParams
 0001:000DC180       Eltreecombo.TDropdownElTree.CanFocus
 0001:000DC194       Eltreecombo.TDropdownElTree.WMMouseActivate
 0001:000DC1B0       Eltreecombo.TDropdownElTree.WMExitSizeMove
 0001:000DC224       Eltreecombo.TDropdownElTree.WMEnterSizeMove
 0001:000DC250       Eltreecombo.TDropdownElTree.WMNCCalcSize
 0001:000DC290       Eltreecombo.TDropdownElTree.WMNCPaint
 0001:000DC3B0       Eltreecombo.TDropdownElTree.UpdateScrollBars
 0001:000DC3DC       Eltreecombo.TDropdownElTree.WMSetFocus
 0001:000DC3F8       Eltreecombo.TDropdownElTree.CMParentFontChanged
 0001:000DC408       Eltreecombo.TElTreeCombo.GetSelection
 0001:000DC424       Eltreecombo.TElTreeCombo.SetSelection
 0001:000DC4EC       Eltreecombo.TElTreeCombo.GetSelectionList
 0001:000DC508       Eltreecombo.TElTreeCombo.SetAutoLineHeight_FTree
 0001:000DC52C       Eltreecombo.TElTreeCombo.GetAutoLineHeight_FTree
 0001:000DC550       Eltreecombo.TElTreeCombo.SetBkColor_FTree
 0001:000DC574       Eltreecombo.TElTreeCombo.GetBkColor_FTree
 0001:000DC598       Eltreecombo.TElTreeCombo.SetChangeStateImage_FTree
 0001:000DC5BC       Eltreecombo.TElTreeCombo.GetChangeStateImage_FTree
 0001:000DC5E0       Eltreecombo.TElTreeCombo.SetCtl3D_FTree
 0001:000DC604       Eltreecombo.TElTreeCombo.GetCtl3D_FTree
 0001:000DC628       Eltreecombo.TElTreeCombo.SetCursor
 0001:000DC64C       Eltreecombo.TElTreeCombo.GetCursor
 0001:000DC670       Eltreecombo.TElTreeCombo.SetDraggableSections
 0001:000DC694       Eltreecombo.TElTreeCombo.GetDraggableSections
 0001:000DC6B8       Eltreecombo.TElTreeCombo.SetFont_FTree
 0001:000DC6DC       Eltreecombo.TElTreeCombo.GetFont_FTree
 0001:000DC6FC       Eltreecombo.TElTreeCombo.SetHeaderHotTrack_FTree
 0001:000DC720       Eltreecombo.TElTreeCombo.GetHeaderHotTrack_FTree
 0001:000DC744       Eltreecombo.TElTreeCombo.SetHeaderImages_FTree
 0001:000DC768       Eltreecombo.TElTreeCombo.GetHeaderImages_FTree
 0001:000DC78C       Eltreecombo.TElTreeCombo.SetHeaderSections_FTree
 0001:000DC7B0       Eltreecombo.TElTreeCombo.GetHeaderSections_FTree
 0001:000DC7D4       Eltreecombo.TElTreeCombo.SetHideHintOnMove_FTree
 0001:000DC7F8       Eltreecombo.TElTreeCombo.GetHideHintOnMove_FTree
 0001:000DC81C       Eltreecombo.TElTreeCombo.SetHideHintOnTimer_FTree
 0001:000DC840       Eltreecombo.TElTreeCombo.GetHideHintOnTimer_FTree
 0001:000DC864       Eltreecombo.TElTreeCombo.SetHideHorzScrollBar_FTree
 0001:000DC888       Eltreecombo.TElTreeCombo.GetHideHorzScrollBar_FTree
 0001:000DC8AC       Eltreecombo.TElTreeCombo.SetHideVertScrollBar_FTree
 0001:000DC8D0       Eltreecombo.TElTreeCombo.GetHideVertScrollBar_FTree
 0001:000DC8F4       Eltreecombo.TElTreeCombo.SetHorizontalLines_FTree
 0001:000DC918       Eltreecombo.TElTreeCombo.GetHorizontalLines_FTree
 0001:000DC93C       Eltreecombo.TElTreeCombo.SetImages_FTree
 0001:000DC960       Eltreecombo.TElTreeCombo.GetImages_FTree
 0001:000DC984       Eltreecombo.TElTreeCombo.SetItems_FTree
 0001:000DC9A8       Eltreecombo.TElTreeCombo.GetItems_FTree
 0001:000DC9CC       Eltreecombo.TElTreeCombo.SetLineHintMode
 0001:000DC9F0       Eltreecombo.TElTreeCombo.GetLineHintMode
 0001:000DCA14       Eltreecombo.TElTreeCombo.SetMainTreeColumn
 0001:000DCA38       Eltreecombo.TElTreeCombo.GetMainTreeColumn
 0001:000DCA5C       Eltreecombo.TElTreeCombo.SetMultiSelect
 0001:000DCA80       Eltreecombo.TElTreeCombo.GetMultiSelect
 0001:000DCAA4       Eltreecombo.TElTreeCombo.SetOwnerDrawByColumn
 0001:000DCAC8       Eltreecombo.TElTreeCombo.GetOwnerDrawByColumn
 0001:000DCAEC       Eltreecombo.TElTreeCombo.SetOwnerDrawMask
 0001:000DCB48       Eltreecombo.TElTreeCombo.GetOwnerDrawMask
 0001:000DCB70       Eltreecombo.TElTreeCombo.SetParentCtl3D
 0001:000DCB94       Eltreecombo.TElTreeCombo.GetParentCtl3D
 0001:000DCBB8       Eltreecombo.TElTreeCombo.SetParentFont
 0001:000DCBDC       Eltreecombo.TElTreeCombo.GetParentFont
 0001:000DCBFC       Eltreecombo.TElTreeCombo.SetParentShowHint
 0001:000DCC20       Eltreecombo.TElTreeCombo.GetParentShowHint
 0001:000DCC44       Eltreecombo.TElTreeCombo.SetRowSelect
 0001:000DCC68       Eltreecombo.TElTreeCombo.GetRowSelect
 0001:000DCC8C       Eltreecombo.TElTreeCombo.SetScrollTracking
 0001:000DCCB0       Eltreecombo.TElTreeCombo.GetScrollTracking
 0001:000DCCD4       Eltreecombo.TElTreeCombo.SetSelectionMode
 0001:000DCCF8       Eltreecombo.TElTreeCombo.GetSelectionMode
 0001:000DCD1C       Eltreecombo.TElTreeCombo.SetShowButtons
 0001:000DCD40       Eltreecombo.TElTreeCombo.GetShowButtons
 0001:000DCD64       Eltreecombo.TElTreeCombo.SetShowColumns
 0001:000DCD88       Eltreecombo.TElTreeCombo.GetShowColumns
 0001:000DCDAC       Eltreecombo.TElTreeCombo.SetShowHint
 0001:000DCDD0       Eltreecombo.TElTreeCombo.GetShowHint
 0001:000DCDF4       Eltreecombo.TElTreeCombo.SetShowImages
 0001:000DCE18       Eltreecombo.TElTreeCombo.GetShowImages
 0001:000DCE3C       Eltreecombo.TElTreeCombo.SetShowLines
 0001:000DCE60       Eltreecombo.TElTreeCombo.GetShowLines
 0001:000DCE84       Eltreecombo.TElTreeCombo.SetShowRoot
 0001:000DCEA8       Eltreecombo.TElTreeCombo.GetShowRoot
 0001:000DCECC       Eltreecombo.TElTreeCombo.SetSortDir
 0001:000DCEF0       Eltreecombo.TElTreeCombo.GetSortDir
 0001:000DCF14       Eltreecombo.TElTreeCombo.SetSortMode
 0001:000DCF38       Eltreecombo.TElTreeCombo.GetSortMode
 0001:000DCF5C       Eltreecombo.TElTreeCombo.SetSortSection
 0001:000DCF80       Eltreecombo.TElTreeCombo.GetSortSection
 0001:000DCFA4       Eltreecombo.TElTreeCombo.SetSortType
 0001:000DCFC8       Eltreecombo.TElTreeCombo.GetSortType
 0001:000DCFEC       Eltreecombo.TElTreeCombo.SetTextColor
 0001:000DD010       Eltreecombo.TElTreeCombo.GetTextColor
 0001:000DD034       Eltreecombo.TElTreeCombo.SetTracking
 0001:000DD058       Eltreecombo.TElTreeCombo.GetTracking
 0001:000DD07C       Eltreecombo.TElTreeCombo.SetVerticalLines
 0001:000DD0A0       Eltreecombo.TElTreeCombo.GetVerticalLines
 0001:000DD0C4       Eltreecombo.TElTreeCombo.CompareItemsTransfer
 0001:000DD108       Eltreecombo.TElTreeCombo.ClickHandler
 0001:000DD14C       Eltreecombo.TElTreeCombo.DblClickHandler
 0001:000DD184       Eltreecombo.TElTreeCombo.HeaderColumnClickTransfer
 0001:000DD1BC       Eltreecombo.TElTreeCombo.HeaderColumnDrawTransfer
 0001:000DD220       Eltreecombo.TElTreeCombo.HeaderColumnMoveTransfer
 0001:000DD268       Eltreecombo.TElTreeCombo.HeaderColumnResizeTransfer
 0001:000DD2A8       Eltreecombo.TElTreeCombo.ItemChangeTransfer
 0001:000DD2E8       Eltreecombo.TElTreeCombo.ItemCollapseTransfer
 0001:000DD320       Eltreecombo.TElTreeCombo.ItemCollapsingTransfer
 0001:000DD360       Eltreecombo.TElTreeCombo.ItemDeletionTransfer
 0001:000DD3C0       Eltreecombo.TElTreeCombo.ItemDrawTransfer
 0001:000DD414       Eltreecombo.TElTreeCombo.ItemExpandTransfer
 0001:000DD44C       Eltreecombo.TElTreeCombo.ItemExpandingTransfer
 0001:000DD48C       Eltreecombo.TElTreeCombo.ItemFocusedTransfer
 0001:000DD4C0       Eltreecombo.TElTreeCombo.ItemPicDrawTransfer
 0001:000DD500       Eltreecombo.TElTreeCombo.KeyDownHandler
 0001:000DD5B4       Eltreecombo.TElTreeCombo.ShowLineHintTransfer
 0001:000DD610       Eltreecombo.TElTreeCombo.StartDrag_FTreeTransfer
 0001:000DD648       Eltreecombo.TElTreeCombo.SetDropped
 0001:000DD9AC       Eltreecombo.TElTreeCombo.TriggerDropEvent
 0001:000DD9E0       Eltreecombo.TElTreeCombo.KeyPress
 0001:000DDA2C       Eltreecombo.TElTreeCombo.ButtonClick
 0001:000DDA5C       Eltreecombo.TElTreeCombo.SetLineHeight_FTree
 0001:000DDA80       Eltreecombo.TElTreeCombo.GetLineHeight_FTree
 0001:000DDAA4       Eltreecombo.TElTreeCombo.GetReadOnly
 0001:000DDAC0       Eltreecombo.TElTreeCombo.SetReadOnly
 0001:000DDBB0       Eltreecombo.TElTreeCombo.CMEnter
 0001:000DDBE4       Eltreecombo.TElTreeCombo.CMExit
 0001:000DDC18       Eltreecombo.TElTreeCombo.ProcessSelect
 0001:000DDC64       Eltreecombo.TElTreeCombo.SetAlwaysKeepSelection_FTree
 0001:000DDC88       Eltreecombo.TElTreeCombo.GetAlwaysKeepSelection_FTree
 0001:000DDCAC       Eltreecombo.TElTreeCombo.SetAutoExpand_FTree
 0001:000DDCD0       Eltreecombo.TElTreeCombo.GetAutoExpand_FTree
 0001:000DDCF4       Eltreecombo.TElTreeCombo.SetAutoLookup_FTree
 0001:000DDD18       Eltreecombo.TElTreeCombo.GetAutoLookup_FTree
 0001:000DDD3C       Eltreecombo.TElTreeCombo.SetBarStyle_FTree
 0001:000DDD60       Eltreecombo.TElTreeCombo.GetBarStyle_FTree
 0001:000DDD84       Eltreecombo.TElTreeCombo.SetCustomPlusMinus_FTree
 0001:000DDDA8       Eltreecombo.TElTreeCombo.GetCustomPlusMinus_FTree
 0001:000DDDCC       Eltreecombo.TElTreeCombo.SetDeselectChildrenOnCollapse_FTree
 0001:000DDDF0       Eltreecombo.TElTreeCombo.GetDeselectChildrenOnCollapse_FTree
 0001:000DDE14       Eltreecombo.TElTreeCombo.SetTreeDragImageMode
 0001:000DDE38       Eltreecombo.TElTreeCombo.GetTreeDragImageMode
 0001:000DDE5C       Eltreecombo.TElTreeCombo.SetTreeDrawFocusRect
 0001:000DDE80       Eltreecombo.TElTreeCombo.GetTreeDrawFocusRect
 0001:000DDEA4       Eltreecombo.TElTreeCombo.SetTreeFullRowSelect
 0001:000DDEC8       Eltreecombo.TElTreeCombo.GetTreeFullRowSelect
 0001:000DDEEC       Eltreecombo.TElTreeCombo.SetTreeImages2
 0001:000DDF10       Eltreecombo.TElTreeCombo.GetTreeImages2
 0001:000DDF34       Eltreecombo.TElTreeCombo.SetMinusPicture_FTree
 0001:000DDF58       Eltreecombo.TElTreeCombo.GetMinusPicture_FTree
 0001:000DDF7C       Eltreecombo.TElTreeCombo.SetPlusPicture_FTree
 0001:000DDFA0       Eltreecombo.TElTreeCombo.GetPlusPicture_FTree
 0001:000DDFC4       Eltreecombo.TElTreeCombo.SetShowCheckboxes_FTree
 0001:000DDFE8       Eltreecombo.TElTreeCombo.GetShowCheckboxes_FTree
 0001:000DE00C       Eltreecombo.TElTreeCombo.SetStickyHeaderSections_FTree
 0001:000DE030       Eltreecombo.TElTreeCombo.GetStickyHeaderSections_FTree
 0001:000DE054       Eltreecombo.TElTreeCombo.SetStoragePath_FTree
 0001:000DE0B0       Eltreecombo.TElTreeCombo.GetStoragePath_FTree
 0001:000DE0D8       Eltreecombo.TElTreeCombo.CellStyleLoad_FTreeTransfer
 0001:000DE118       Eltreecombo.TElTreeCombo.CellStyleSave_FTreeTransfer
 0001:000DE158       Eltreecombo.TElTreeCombo.ComboEditShow_FTreeTransfer
 0001:000DE19C       Eltreecombo.TElTreeCombo.HeaderLookup_FTreeTransfer
 0001:000DE1DC       Eltreecombo.TElTreeCombo.HeaderLookupDone_FTreeTransfer
 0001:000DE250       Eltreecombo.TElTreeCombo.HeaderResize_FTreeTransfer
 0001:000DE284       Eltreecombo.TElTreeCombo.HeaderSectionCollapse_FTreeTransfer
 0001:000DE2BC       Eltreecombo.TElTreeCombo.HeaderSectionExpand_FTreeTransfer
 0001:000DE2F4       Eltreecombo.TElTreeCombo.HotTrack_FTreeTransfer
 0001:000DE334       Eltreecombo.TElTreeCombo.ItemLoad_FTreeTransfer
 0001:000DE374       Eltreecombo.TElTreeCombo.ItemPicDraw2_FTreeTransfer
 0001:000DE3B4       Eltreecombo.TElTreeCombo.ItemSave_FTreeTransfer
 0001:000DE3F4       Eltreecombo.TElTreeCombo.ItemSelectedChange_FTreeTransfer
 0001:000DE42C       Eltreecombo.TElTreeCombo.OleDragFinish_FTreeTransfer
 0001:000DE46C       Eltreecombo.TElTreeCombo.OleDragStart_FTreeTransfer
 0001:000DE4B0       Eltreecombo.TElTreeCombo.OleTargetDrag_FTreeTransfer
 0001:000DE500       Eltreecombo.TElTreeCombo.OleTargetDrop_FTreeTransfer
 0001:000DE54C       Eltreecombo.TElTreeCombo.TryEdit_FTreeTransfer
 0001:000DE594       Eltreecombo.TElTreeCombo.ValidateCombo_FTreeTransfer
 0001:000DE5DC       Eltreecombo.TElTreeCombo.ValidateInplaceEdit_FTreeTransfer
 0001:000DE624       Eltreecombo.TElTreeCombo
 0001:000DE674       Eltreecombo.TElTreeCombo
 0001:000DED00       Eltreecombo.TElTreeCombo.Assign
 0001:000DED50       ElTreeCombo._16571
 0001:000DED78       ElTreeCombo._16572
 0001:000DEE28       Eltreecombo.TElTreeCombo.PrepareSelection
 0001:000DEF78       Eltreecombo.TElTreeCombo.SetDropWidth
 0001:000DEFC4       Eltreecombo.TElTreeCombo.SetDropHeight
 0001:000DF010       Eltreecombo.TElTreeCombo.SetPathSeparator
 0001:000DF034       Eltreecombo.TElTreeCombo.GetPathSeparator
 0001:000DF058       Eltreecombo.TElTreeCombo.TriggerNewTextSelectionEvent
 0001:000DF084       Eltreecombo.TElTreeCombo.KeyDown
 0001:000DF0CC       Eltreecombo.TElTreeCombo.GetDrawFocusRect_FTree
 0001:000DF0F0       Eltreecombo.TElTreeCombo.SetFilteredVisibility_FTree
 0001:000DF114       Eltreecombo.TElTreeCombo.GetFilteredVisibility_FTree
 0001:000DF138       Eltreecombo.TElTreeCombo.SetRightAlignedText_FTree
 0001:000DF15C       Eltreecombo.TElTreeCombo.GetRightAlignedText_FTree
 0001:000DF180       Eltreecombo.TElTreeCombo.SetRightAlignedTree_FTree
 0001:000DF1A4       Eltreecombo.TElTreeCombo.GetRightAlignedTree_FTree
 0001:000DF1C8       Eltreecombo.TElTreeCombo.SetCheckBoxGlyph_FTree
 0001:000DF1EC       Eltreecombo.TElTreeCombo.GetCheckBoxGlyph_FTree
 0001:000DF210       Eltreecombo.TElTreeCombo.SetCustomCheckboxes_FTree
 0001:000DF234       Eltreecombo.TElTreeCombo.GetCustomCheckboxes_FTree
 0001:000DF258       Eltreecombo.TElTreeCombo.SetRadioButtonGlyph_FTree
 0001:000DF27C       Eltreecombo.TElTreeCombo.GetRadioButtonGlyph_FTree
 0001:000DF2A0       Eltreecombo.TElTreeCombo.SetUnderlineTracked_FTree
 0001:000DF2C4       Eltreecombo.TElTreeCombo.GetUnderlineTracked_FTree
 0001:000DF2E8       Eltreecombo.TElTreeCombo.MouseDown
 0001:000DF33C       Eltreecombo.TElTreeCombo.SetDoInplaceEdit
 0001:000DF360       Eltreecombo.TElTreeCombo.GetDoInplaceEdit
 0001:000DF384       Eltreecombo.TElTreeCombo.TreeKeyDownTransfer
 0001:000DF3C4       Eltreecombo.TElTreeCombo.TreeKeyPressTransfer
 0001:000DF3FC       Eltreecombo.TElTreeCombo.TreeKeyUpTransfer
 0001:000DF43C       Eltreecombo.TElTreeCombo.TreeMouseDownTransfer
 0001:000DF484       Eltreecombo.TElTreeCombo.TreeMouseMoveTransfer
 0001:000DF4C8       Eltreecombo.TElTreeCombo.TreeMouseUpTransfer
 0001:000DF510       Eltreecombo.TElTreeCombo.SetShowRootButtons
 0001:000DF534       Eltreecombo.TElTreeCombo.GetShowRootButtons
 0001:000DF558       Eltreecombo.TElTreeCombo.GetTree
 0001:000DF574       Eltreecombo.TElTreeCombo.EditRequestTransfer
 0001:000DF5B4       Eltreecombo.TElTreeCombo.SetTreeFlat
 0001:000DF5D8       Eltreecombo.TElTreeCombo.GetTreeFlat
 0001:000DF5FC       Eltreecombo.TElTreeCombo.SetTreeHeaderActiveFilterColor
 0001:000DF620       Eltreecombo.TElTreeCombo.GetTreeHeaderActiveFilterColor
 0001:000DF644       Eltreecombo.TElTreeCombo.SetTreeHeaderFilterColor
 0001:000DF668       Eltreecombo.TElTreeCombo.GetTreeHeaderFilterColor
 0001:000DF68C       Eltreecombo.TElTreeCombo.SetTreeHeaderFlat
 0001:000DF6B0       Eltreecombo.TElTreeCombo.GetTreeHeaderFlat
 0001:000DF6D4       Eltreecombo.TElTreeCombo.SetAutoResizeColumns
 0001:000DF6F8       Eltreecombo.TElTreeCombo.GetAutoResizeColumns
 0001:000DF71C       Eltreecombo.TElTreeCombo.SetTreeBackground
 0001:000DF740       Eltreecombo.TElTreeCombo.GetTreeBackground
 0001:000DF764       Eltreecombo.TElTreeCombo.SetTreeBackgroundType
 0001:000DF788       Eltreecombo.TElTreeCombo.GetTreeBackgroundType
 0001:000DF7AC       Eltreecombo.TElTreeCombo.SetFlatFocusedScrollbars
 0001:000DF7D0       Eltreecombo.TElTreeCombo.GetFlatFocusedScrollbars
 0001:000DF7F4       Eltreecombo.TElTreeCombo.SetGradientEndColor
 0001:000DF818       Eltreecombo.TElTreeCombo.GetGradientEndColor
 0001:000DF83C       Eltreecombo.TElTreeCombo.SetGradientStartColor
 0001:000DF860       Eltreecombo.TElTreeCombo.GetGradientStartColor
 0001:000DF884       Eltreecombo.TElTreeCombo.SetGradientSteps
 0001:000DF8A8       Eltreecombo.TElTreeCombo.GetGradientSteps
 0001:000DF8CC       Eltreecombo.TElTreeCombo.SetHorzScrollBarStyles
 0001:000DF8F0       Eltreecombo.TElTreeCombo.GetHorzScrollBarStyles
 0001:000DF914       Eltreecombo.TElTreeCombo.SetVertScrollBarStyles
 0001:000DF938       Eltreecombo.TElTreeCombo.GetVertScrollBarStyles
 0001:000DF95C       Eltreecombo.TElTreeCombo.GetForcedScrollBars
 0001:000DF980       Eltreecombo.TElTreeCombo.SetForcedScrollBars
 0001:000DF9A4       Eltreecombo.TElTreeCombo.GetFocusedSelectColor_Tree
 0001:000DF9C8       Eltreecombo.TElTreeCombo.SetFocusedSelectColor_Tree
 0001:000DF9EC       Eltreecombo.TElTreeCombo.GetTreeHeaderHeight
 0001:000DFA10       Eltreecombo.TElTreeCombo.SetTreeHeaderHeight
 0001:000DFA34       Eltreecombo.TElTreeCombo.GetHeaderInvertSortArrows_FTree
 0001:000DFA58       Eltreecombo.TElTreeCombo.SetHeaderInvertSortArrows_FTree
 0001:000DFA7C       Eltreecombo.TElTreeCombo.GetLeftPosition_FTree
 0001:000DFAA0       Eltreecombo.TElTreeCombo.SetLeftPosition_FTree
 0001:000DFAD4       Eltreecombo.TElTreeCombo.GetLinesColor_FTree
 0001:000DFAF8       Eltreecombo.TElTreeCombo.GetLinesStyle_FTree
 0001:000DFB1C       Eltreecombo.TElTreeCombo.SetLinesColor_FTree
 0001:000DFB40       Eltreecombo.TElTreeCombo.SetLinesStyle_FTree
 0001:000DFB64       Eltreecombo.TElTreeCombo.GetLockHeaderHeight_FTree
 0001:000DFB88       Eltreecombo.TElTreeCombo.SetLockHeaderHeight_FTree
 0001:000DFBAC       Eltreecombo.TElTreeCombo.GetMoveColumnOnDrag_FTree
 0001:000DFBD0       Eltreecombo.TElTreeCombo.GetMoveFocusOnCollapse_FTree
 0001:000DFBF4       Eltreecombo.TElTreeCombo.SetMoveColumnOnDrag_FTree
 0001:000DFC18       Eltreecombo.TElTreeCombo.SetMoveFocusOnCollapse_FTree
 0001:000DFC3C       Eltreecombo.TElTreeCombo.GetNoBlendSelected
 0001:000DFC60       Eltreecombo.TElTreeCombo.SetNoBlendSelected
 0001:000DFC84       Eltreecombo.TElTreeCombo.GetScrollBackground
 0001:000DFCA8       Eltreecombo.TElTreeCombo.SetScrollBackground
 0001:000DFCCC       Eltreecombo.TElTreeCombo.GetSelectColumn
 0001:000DFCF0       Eltreecombo.TElTreeCombo.SetSelectColumn
 0001:000DFD14       Eltreecombo.TElTreeCombo.HeaderSectionAutoSize_FTreeTransfer
 0001:000DFD4C       Eltreecombo.TElTreeCombo.HeaderSectionFilterCall_FTreeTransfer
 0001:000DFD84       Eltreecombo.TElTreeCombo.HorzScrollDrawPart_FTreeTransfer
 0001:000DFDE4       Eltreecombo.TElTreeCombo.HorzScrollHintNeeded_FTreeTransfer
 0001:000DFE24       Eltreecombo.TElTreeCombo.VertScrollDrawPart_FTreeTransfer
 0001:000DFE84       Eltreecombo.TElTreeCombo.VertScrollHintNeeded_FTreeTransfer
 0001:000DFEC4       Eltreecombo.TElTreeCombo.TreeResizeTransfer
 0001:000DFEF8       Eltreecombo.TElTreeCombo.ScrollTransfer
 0001:000DFF38       Eltreecombo.TElTreeCombo.GetTreeActiveBorderType
 0001:000DFF5C       Eltreecombo.TElTreeCombo.GetTreeInactiveBorderType
 0001:000DFF80       Eltreecombo.TElTreeCombo.SetTreeActiveBorderType
 0001:000DFFA4       Eltreecombo.TElTreeCombo.SetTreeInactiveBorderType
 0001:000DFFC8       Eltreecombo.TElTreeCombo.SetStorage_FTree
 0001:000DFFEC       Eltreecombo.TElTreeCombo.GetStorage_FTree
 0001:000E0010       Eltreecombo.TElTreeCombo.GetAlwaysKeepFocus
 0001:000E0034       Eltreecombo.TElTreeCombo.SetAlwaysKeepFocus
 0001:000E0058       Eltreecombo.TElTreeCombo.GetAdjustMultilineHeight
 0001:000E007C       Eltreecombo.TElTreeCombo.SetAdjustMultilineHeight
 0001:000E00A0       Eltreecombo.TElTreeCombo.SetBarStyleVerticalLines
 0001:000E00C4       Eltreecombo.TElTreeCombo.GetBarStyleVerticalLines
 0001:000E00E8       Eltreecombo.TElTreeCombo.GetChangeDelay
 0001:000E010C       Eltreecombo.TElTreeCombo.SetChangeDelay
 0001:000E0130       Eltreecombo.TElTreeCombo.GetHorzDivLinesColor
 0001:000E0154       Eltreecombo.TElTreeCombo.SetHorzDivLinesColor
 0001:000E0178       Eltreecombo.TElTreeCombo.GetDragTrgDrawMode
 0001:000E019C       Eltreecombo.TElTreeCombo.SetDragTrgDrawMode
 0001:000E01C0       Eltreecombo.TElTreeCombo.GetDragExpandDelay
 0001:000E01E4       Eltreecombo.TElTreeCombo.SetDragExpandDelay
 0001:000E0208       Eltreecombo.TElTreeCombo.GetDragRectAcceptColor
 0001:000E022C       Eltreecombo.TElTreeCombo.SetDragRectAcceptColor
 0001:000E0250       Eltreecombo.TElTreeCombo.GetDragRectDenyColor
 0001:000E0274       Eltreecombo.TElTreeCombo.SetDragRectDenyColor
 0001:000E0298       Eltreecombo.TElTreeCombo.GetExpandOnDragOver
 0001:000E02BC       Eltreecombo.TElTreeCombo.SetExpandOnDragOver
 0001:000E02E0       Eltreecombo.TElTreeCombo.GetFocusedSelectTextColor
 0001:000E0304       Eltreecombo.TElTreeCombo.SetFocusedSelectTextColor
 0001:000E0328       Eltreecombo.TElTreeCombo.GetHeaderColor
 0001:000E034C       Eltreecombo.TElTreeCombo.SetHeaderColor
 0001:000E0370       Eltreecombo.TElTreeCombo.GetHeaderWrapCaptions
 0001:000E0394       Eltreecombo.TElTreeCombo.SetHeaderWrapCaptions
 0001:000E03B8       Eltreecombo.TElTreeCombo.GetHideFocusRect
 0001:000E03DC       Eltreecombo.TElTreeCombo.SetHideFocusRect
 0001:000E0400       Eltreecombo.TElTreeCombo.GetHideSelectColor
 0001:000E0424       Eltreecombo.TElTreeCombo.SetHideSelectColor
 0001:000E0448       Eltreecombo.TElTreeCombo.GetHideSelectTextColor
 0001:000E046C       Eltreecombo.TElTreeCombo.SetHideSelectTextColor
 0001:000E0490       Eltreecombo.TElTreeCombo.GetHideSelection
 0001:000E04B4       Eltreecombo.TElTreeCombo.SetHideSelection
 0001:000E04D8       Eltreecombo.TElTreeCombo.GetIncrementalSearch
 0001:000E04FC       Eltreecombo.TElTreeCombo.SetIncrementalSearch
 0001:000E0520       Eltreecombo.TElTreeCombo.GetItemIndent
 0001:000E0544       Eltreecombo.TElTreeCombo.SetItemIndent
 0001:000E0568       Eltreecombo.TElTreeCombo.GetLineHintColor
 0001:000E058C       Eltreecombo.TElTreeCombo.SetLineHintColor
 0001:000E05B0       Eltreecombo.TElTreeCombo.GetLineHintTimeout
 0001:000E05D4       Eltreecombo.TElTreeCombo.SetLineHintTimeout
 0001:000E05F8       Eltreecombo.TElTreeCombo.GetLineHintType
 0001:000E061C       Eltreecombo.TElTreeCombo.SetLineHintType
 0001:000E0640       Eltreecombo.TElTreeCombo.GetPlusMinusTransparent
 0001:000E0664       Eltreecombo.TElTreeCombo.SetPlusMinusTransparent
 0001:000E0688       Eltreecombo.TElTreeCombo.GetRightClickSelect
 0001:000E06AC       Eltreecombo.TElTreeCombo.SetRightClickSelect
 0001:000E06D0       Eltreecombo.TElTreeCombo.GetRowHotTrack
 0001:000E06F4       Eltreecombo.TElTreeCombo.SetRowHotTrack
 0001:000E0718       Eltreecombo.TElTreeCombo.GetScrollbarOpposite
 0001:000E073C       Eltreecombo.TElTreeCombo.SetScrollbarOpposite
 0001:000E0760       Eltreecombo.TElTreeCombo.GetTrackColor
 0001:000E0784       Eltreecombo.TElTreeCombo.SetTrackColor
 0001:000E07A8       Eltreecombo.TElTreeCombo.GetUseCustomScrollBars
 0001:000E07CC       Eltreecombo.TElTreeCombo.SetUseCustomScrollBars
 0001:000E07F0       Eltreecombo.TElTreeCombo.GetVerticalLinesLong
 0001:000E0814       Eltreecombo.TElTreeCombo.SetVerticalLinesLong
 0001:000E0838       Eltreecombo.TElTreeCombo.GetUseSystemHintColors
 0001:000E085C       Eltreecombo.TElTreeCombo.SetUseSystemHintColors
 0001:000E0880       Eltreecombo.TElTreeCombo.GetOnHeaderSectionMeasure
 0001:000E08B0       Eltreecombo.TElTreeCombo.SetOnHeaderSectionMeasure
 0001:000E08D8       Eltreecombo.TElTreeCombo.GetOnApplyVisFilter
 0001:000E08E8       Eltreecombo.TElTreeCombo.SetOnApplyVisFilter
 0001:000E08F4       Eltreecombo.TElTreeCombo.GetOnAfterSelectionChange
 0001:000E0924       Eltreecombo.TElTreeCombo.SetOnAfterSelectionChange
 0001:000E094C       Eltreecombo.TElTreeCombo.GetOnItemChecked
 0001:000E097C       Eltreecombo.TElTreeCombo.SetOnItemChecked
 0001:000E09A4       Eltreecombo.TElTreeCombo.GetOnSortBegin
 0001:000E09D4       Eltreecombo.TElTreeCombo.SetOnSortBegin
 0001:000E09FC       Eltreecombo.TElTreeCombo.GetOnSortEnd
 0001:000E0A2C       Eltreecombo.TElTreeCombo.SetOnSortEnd
 0001:000E0A54       Eltreecombo.TElTreeCombo.GetOnHTMLImageNeeded
 0001:000E0A84       Eltreecombo.TElTreeCombo.SetOnHTMLImageNeeded
 0001:000E0AAC       Eltreecombo.TElTreeCombo.GetStripedOddColor
 0001:000E0AD0       Eltreecombo.TElTreeCombo.SetStripedOddColor
 0001:000E0AF4       Eltreecombo.TElTreeCombo.GetStripedEvenColor
 0001:000E0B18       Eltreecombo.TElTreeCombo.SetStripedEvenColor
 0001:000E0B3C       Eltreecombo.TElTreeCombo.GetStripedItems
 0001:000E0B60       Eltreecombo.TElTreeCombo.SetStripedItems
 0001:000E0B84       Eltreecombo.TElTreeCombo.GetHintType
 0001:000E0BA8       Eltreecombo.TElTreeCombo.SetHintType
 0001:000E0BCC       ElTreeCombo._16756
 0001:000E0D20       ElTreeCombo._16757
 0001:000E0D48       Eltreecombo.TElTreeCombo.WMChar
 0001:000E0D88       Eltreecombo.TElTreeCombo.WMKeyDown
 0001:000E0E0C       Eltreecombo.TElTreeCombo.WMKeyUp
 0001:000E0E50       Eltreecombo.TElTreeCombo.WMSysKeyDown
 0001:000E0E94       Eltreecombo.TElTreeCombo.WMSysKeyUp
 0001:000E0ED8       Eltreecombo.TElTreeCombo.WMGetDlgCode
 0001:000E0F0C       Eltreecombo.TElTreeCombo.WMActivateApp
 0001:000E0F40       Eltreecombo.TElTreeCombo.WMKillFocus
 0001:000E0F80       Eltreecombo.TElTreeCombo.CNCommand
 0001:000E0FC4       Eltreecombo.TElTreeCombo.WMLButtonUp
 0001:000E1058       Eltreecombo.TElTreeCombo.WMMButtonDblClk
 0001:000E10E8       Eltreecombo.TElTreeCombo.EMSetReadOnly
 0001:000E1104       Eltreecombo.TElTreeCombo.WMLButtonDown
 0001:000E1198       Eltreecombo.TElTreeCombo.WMContextMenu
 0001:000E12C0       Eltreecombo.TElTreeCombo.WMSetFocus
 0001:000E12F8       Eltreecombo.TElTreeCombo.WMMouseMove
 0001:000E1364       Eltreecombo.TElTreeCombo.WMCancelMode
 0001:000E13B0       Eltreecombo.TElTreeCombo.GetVertDivLinesColor
 0001:000E13D4       Eltreecombo.TElTreeCombo.SetVertDivLinesColor
 0001:000E13F8       Eltreecombo.TElTreeCombo.CMCancelMode
 0001:000E14A0       Eltreecombo.TElTreeCombo.GetHeaderSections
 0001:000E14C4       Eltreecombo.TElTreeCombo.SetHeaderSections
 0001:000E14E8       Eltreecombo.TElTreeCombo.GetHeaderImages
 0001:000E150C       Eltreecombo.TElTreeCombo.SetHeaderImages
 0001:000E1530       Eltreecombo.TElTreeCombo.GetMultiSelectLevel
 0001:000E1554       Eltreecombo.TElTreeCombo.SetMultiSelectLevel
 0001:000E1578       Eltreecombo.TElTreeCombo.GetDragScrollInterval
 0001:000E159C       Eltreecombo.TElTreeCombo.SetDragScrollInterval
 0001:000E15C0       Eltreecombo.TElTreeCombo.GetMouseFrameSelect
 0001:000E15E4       Eltreecombo.TElTreeCombo.SetMouseFrameSelect
 0001:000E1608       Eltreecombo.TElTreeCombo.CreateTree
 0001:000E162C       Eltreecombo.TElTreeCombo.GetShowLeafButton
 0001:000E1650       Eltreecombo.TElTreeCombo.SetShowLeafButton
 0001:000E1674       Eltreecombo.TElTreeCombo.GetLeafPicture
 0001:000E1698       Eltreecombo.TElTreeCombo.SetLeafPicture
 0001:000E16BC       Eltreecombo.TElTreeCombo.GetHeaderFont
 0001:000E16E0       Eltreecombo.TElTreeCombo.SetHeaderFont
 0001:000E1704       Eltreecombo.TElTreeCombo.GetHeaderUseTreeFont
 0001:000E1728       Eltreecombo.TElTreeCombo.SetHeaderUseTreeFont
 0001:000E174C       Eltreecombo.TElTreeCombo.SetSizeableTree
 0001:000E1784       Eltreecombo.TElTreeCombo.SetUseXPThemes
 0001:000E17B4       Eltreecombo.TElTreeCombo.Loaded
 0001:000E17F4       Eltreecombo.TElTreeCombo.IsButtonWidthStored
 0001:000E1820       Eltreecombo.TElTreeCombo.CMFontChanged
 0001:000E185C       ElTreeCombo._16802
 0001:000E1894       ElTreeCombo._16803
 0001:000E18C4       ElTreeCombo._16804
 0001:000E1920       Eltreecombo.Finalization
 0001:000E1950       Eltreecombo.initialization
 0001:000E1958       Elurllabel.TElURLLabel
 0001:000E200C       Elurllabel.TElURLLabel
 0001:000E20D4       Elurllabel.TElURLLabel.Click
 0001:000E20F0       Elurllabel.TElURLLabel.GotoURL
 0001:000E2170       Elurllabel.TElURLLabel.SetVisited
 0001:000E21A8       Elurllabel.TElURLLabel.SetVisitedColor
 0001:000E21F8       Elurllabel.TElURLLabel.CopyURL
 0001:000E2240       Elurllabel.TElURLLabel.OnOpen
 0001:000E2258       Elurllabel.TElURLLabel.OnCopy
 0001:000E2270       ElURLLabel._16395
 0001:000E22C8       Elurllabel.TElURLLabel.GetPopupMenu
 0001:000E235C       Elurllabel.TElURLLabel.CMMouseEnter
 0001:000E23C8       Elurllabel.TElURLLabel.CMMouseLeave
 0001:000E240C       Elurllabel.TElURLLabel.SetHyperLinkStyle
 0001:000E2428       Elurllabel.TElURLLabel.SetHyperLinkColour
 0001:000E2444       Elurllabel.TElURLLabel.CMDialogChar
 0001:000E2508       Elurllabel.TElURLLabel.SetHint
 0001:000E2640       Elurllabel.TElURLLabel.CMHintShow
 0001:000E2820       Elurllabel.Finalization
 0001:000E2850       Elurllabel.initialization
 0001:000E2B70       Elvclutils.GetTimeAMChar
 0001:000E2B9C       Elvclutils.GetTimePMChar
 0001:000E2BC8       Elvclutils.IncColor
 0001:000E2C8C       Elvclutils.GetBValue
 0001:000E2CB0       Elvclutils.GetGValue
 0001:000E2CD4       Elvclutils.GetRValue
 0001:000E2CF4       Elvclutils.RGB
 0001:000E2D28       Elvclutils.InvertColor
 0001:000E2DB0       Elvclutils.GetWorkSpaceRect
 0001:000E2E3C       Elvclutils.GetWorkSpaceTop
 0001:000E2E58       Elvclutils.GetWorkSpaceLeft
 0001:000E2E74       Elvclutils.GetWorkSpaceBottom
 0001:000E2E90       Elvclutils.GetWorkSpaceRight
 0001:000E2EAC       Elvclutils.GetDesktopRect
 0001:000E2EC8       Elvclutils.GetDesktopTop
 0001:000E2EE4       Elvclutils.GetDesktopLeft
 0001:000E2F00       Elvclutils.GetDesktopBottom
 0001:000E2F1C       Elvclutils.GetDesktopRight
 0001:000E2F38       Elvclutils.MinimizeToTray
 0001:000E2F98       Elvclutils.GetSysTrayRect
 0001:000E300C       Elvclutils.GetTaskbarRect
 0001:000E3058       Elvclutils.GetTaskbarEdge
 0001:000E3108       Elvclutils.GetKeybTimes
 0001:000E3158       Elvclutils.GradientFillEx
 0001:000E33EC       Elvclutils.GradientFill
 0001:000E3614       Elvclutils.DrawArrow
 0001:000E3D74       Elvclutils.RectsIntersect
 0001:000E3DBC       Elvclutils.FindVCLChild
 0001:000E3E40       Elvclutils.DrawTransparentBitmapEx
 0001:000E4154       Elvclutils.DrawTypedTextW
 0001:000E4328       Elvclutils.DrawTypedText
 0001:000E44EC       Elvclutils.FillSolidRect2
 0001:000E4548       Elvclutils.FillSolidRect
 0001:000E45B8       ElVCLUtils._16430
 0001:000E4638       Elvclutils.Draw3dRectEx
 0001:000E46D0       Elvclutils.Draw3dBorder
 0001:000E4784       ElVCLUtils._16433
 0001:000E47B4       Elvclutils.RGBtoHLS
 0001:000E494C       ElVCLUtils._16435
 0001:000E49CC       Elvclutils.HLStoRGB
 0001:000E4B4C       ElVCLUtils._16437
 0001:000E4BCC       Elvclutils.DrawButtonFrameEx3
 0001:000E4E18       ElVCLUtils._16439
 0001:000E4E90       Elvclutils.DrawButtonFrameEx
 0001:000E50CC       Elvclutils.DrawButtonFrame
 0001:000E5140       ElVCLUtils._16442
 0001:000E51B8       Elvclutils.DrawButtonFrameEx2
 0001:000E5260       Elvclutils.DrawFlatFrameEx2
 0001:000E5D5C       Elvclutils.DrawFlatFrameEx
 0001:000E5DD0       Elvclutils.DrawFlatFrame
 0001:000E5EC4       Elvclutils.DrawFlatFrame2
 0001:000E5FA8       Elvclutils.TiledPaint
 0001:000E60E0       Elvclutils.HitTest
 0001:000E6260       Elvclutils.GetTopOwnerControl
 0001:000E62A8       Elvclutils.GetOwnerForm
 0001:000E6308       Elvclutils.StartWait
 0001:000E633C       Elvclutils.StopWait
 0001:000E6368       Elvclutils.DrawFlatScrollbarThumb
 0001:000E63BC       Elvclutils.AlphaBlend
 0001:000E6478       ElVCLUtils._16460
 0001:000E6698       Elvclutils.DrawFlatScrollbars
 0001:000E694C       Elvclutils.DrawFlatScrollBarEx
 0001:000E6B60       Elvclutils.DrawFlatScrollBarsEx
 0001:000E6E50       Elvclutils.DrawBevel
 0001:000E6FB0       Elvclutils.AlphaCopyRect
 0001:000E73AC       Elvclutils.AlphaFillRect
 0001:000E74E4       ElVCLUtils._16467
 0001:000E78EC       ElVCLUtils._16469
 0001:000E8180       Elvclutils.DrawTextW
 0001:000E8198       Elvclutils.GetSysColorPen
 0001:000E81A4       ElVCLUtils._16472
 0001:000E821C       Elvclutils.DrawFocus
 0001:000E8288       Elvclutils.Win2KHideUIState
 0001:000E82A4       Elvclutils.ModalFormVisible
 0001:000E82E4       Elvclutils.ShiftStateToKeyData
 0001:000E82FC       Elvclutils.GetShortHintW
 0001:000E8378       Elvclutils.Finalization
 0001:000E83A8       Elvclutils.initialization
 0001:000E83B0       Elimgfrm.TImgFormChangeLink
 0001:000E8448       Elimgfrm.TCustomElImageForm
 0001:000E8554       Elimgfrm.TElImageForm
 0001:000E8770       ElImgFrm._16391
 0001:000E8934       Elimgfrm.TCustomElImageForm.BeforeMessage
 0001:000E8ACC       Elimgfrm.TCustomElImageForm.AfterMessage
 0001:000E8E34       Elimgfrm.TCustomElImageForm.SetGradientStartColor
 0001:000E8E88       Elimgfrm.TCustomElImageForm.SetGradientEndColor
 0001:000E8EDC       Elimgfrm.TCustomElImageForm.SetGradientSteps
 0001:000E8F30       Elimgfrm.TCustomElImageForm.SetBackgroundType
 0001:000E8FB8       ElImgFrm._16398
 0001:000E90D8       ElImgFrm._16399
 0001:000E9104       Elimgfrm.TCustomElImageForm.PaintBkgnd
 0001:000E9420       Elimgfrm.TCustomElImageForm
 0001:000E94E0       Elimgfrm.TCustomElImageForm.CreateHook
 0001:000E9578       Elimgfrm.TCustomElImageForm.CreateRegion
 0001:000E961C       Elimgfrm.TCustomElImageForm
 0001:000E96BC       Elimgfrm.TCustomElImageForm.DestroyHook
 0001:000E96E4       Elimgfrm.TCustomElImageForm.DestroyRegion
 0001:000E9740       Elimgfrm.TCustomElImageForm.GetTransparentColor
 0001:000E97C0       Elimgfrm.TCustomElImageForm.Loaded
 0001:000E97F0       Elimgfrm.TCustomElImageForm.Notification
 0001:000E9864       Elimgfrm.TCustomElImageForm.BkImageChange
 0001:000E98CC       Elimgfrm.TCustomElImageForm.PictureChanged
 0001:000E9964       Elimgfrm.TCustomElImageForm.SetCaptionControl
 0001:000E9988       Elimgfrm.TCustomElImageForm.SetChangeRegion
 0001:000E99D0       Elimgfrm.TCustomElImageForm.SetBkImage
 0001:000E9A14       Elimgfrm.TCustomElImageForm.SetImage
 0001:000E9AF0       Elimgfrm.TCustomElImageForm.SetMoveForm
 0001:000E9B14       Elimgfrm.TCustomElImageForm.RegisterChanges
 0001:000E9B44       Elimgfrm.TCustomElImageForm.UnregisterChanges
 0001:000E9BAC       Elimgfrm.TCustomElImageForm.Change
 0001:000E9BF4       Elimgfrm.TCustomElImageForm.SetControl
 0001:000E9C40       Elimgfrm.TCustomElImageForm.GetRealControl
 0001:000E9C70       Elimgfrm.TCustomElImageForm.SetTransparentColor
 0001:000E9CD0       Elimgfrm.TCustomElImageForm.CreateCacheBackground
 0001:000E9D8C       Elimgfrm.TCustomElImageForm.DisposeCacheBackground
 0001:000E9DB4       Elimgfrm.TImgFormChangeLink
 0001:000E9DFC       Elimgfrm.TImgFormChangeLink.Change
 0001:000E9E24       Elimgfrm.Finalization
 0001:000E9E54       Elimgfrm.initialization
 0001:000E9F8C       Ellabel.TElLabel
 0001:000EA36C       Ellabel.TElLabel
 0001:000EA47C       Ellabel.TElLabel
 0001:000EA4B0       Ellabel.TElLabel.DoDrawText
 0001:000EA5A4       Ellabel.TElLabel.DrawDisabledText
 0001:000EA6B8       Ellabel.TElLabel.DrawEffect
 0001:000EA7F8       Ellabel.TElLabel.DrawExtrusion
 0001:000EAB6C       Ellabel.TElLabel.DrawNormalText
 0001:000EABE0       Ellabel.TElLabel.DrawOutlinedText
 0001:000EAD28       Ellabel.TElLabel.DrawRaisedText
 0001:000EAEA4       Ellabel.TElLabel.DrawShadow
 0001:000EAF34       Ellabel.TElLabel.DrawText
 0001:000EB0DC       Ellabel.TElLabel.Paint
 0001:000EB2D0       Ellabel.TElLabel.AdjustBounds
 0001:000EB3A8       Ellabel.TElLabel.SetAngle
 0001:000EB414       Ellabel.TElLabel.SetDarkColor
 0001:000EB460       Ellabel.TElLabel.SetDepth
 0001:000EB4B4       Ellabel.TElLabel.SetDisabledDarkColor
 0001:000EB4F4       Ellabel.TElLabel.SetDisabledLightColor
 0001:000EB534       Ellabel.TElLabel.SetEffect
 0001:000EB574       Ellabel.TElLabel.SetExtrudePosition
 0001:000EB5C0       Ellabel.TElLabel.SetFarColor
 0001:000EB600       Ellabel.TElLabel.SetLightColor
 0001:000EB64C       Ellabel.TElLabel.SetNearColor
 0001:000EB68C       Ellabel.TElLabel.SetOutlineColor
 0001:000EB6CC       Ellabel.TElLabel.SetShadowColor
 0001:000EB70C       Ellabel.TElLabel.SetStriated
 0001:000EB74C       Ellabel.TElLabel.SetStyle
 0001:000EB78C       Ellabel.TElLabel.SetXOffset
 0001:000EB7CC       Ellabel.TElLabel.SetYOffset
 0001:000EB80C       Ellabel.TElLabel.SetCaption
 0001:000EB890       Ellabel.TElLabel.SetAutoSize
 0001:000EB8BC       Ellabel.TElLabel.CMHintShow
 0001:000EBA64       Ellabel.TElLabel.SetHint
 0001:000EBB9C       Ellabel.TElLabel.SetName
 0001:000EBC74       Ellabel.Finalization
 0001:000EBCA4       Ellabel.initialization
 0001:000EBCAC       Elcombos.TElComboButton
 0001:000EBDE4       Elcombos.TElComboListBox
 0001:000EBF9C       Elcombos.TElComboBox
 0001:000ED190       Elcombos.TElComboButton.CMMouseEnter
 0001:000ED1CC       Elcombos.TElComboButton.CMMouseLeave
 0001:000ED208       Elcombos.TElComboButton
 0001:000ED248       Elcombos.TElComboButton
 0001:000ED2EC       ElCombos._16395
 0001:000ED370       Elcombos.TElComboButton.DrawArrow
 0001:000ED3DC       Elcombos.TElComboButton.GetGlyph
 0001:000ED3FC       Elcombos.TElComboButton.SetGlyph
 0001:000ED434       Elcombos.TElComboButton.GlyphChanged
 0001:000ED44C       Elcombos.TElComboButton.MouseDown
 0001:000ED49C       Elcombos.TElComboButton.MouseUp
 0001:000ED4E8       Elcombos.TElComboButton.Paint
 0001:000ED8E4       Elcombos.TElComboButton.SetDown
 0001:000ED918       Elcombos.TElComboButton.SetFocused
 0001:000ED94C       Elcombos.TElComboButton.SetTransparent
 0001:000ED9AC       Elcombos.TElComboButton.SetDrawFrame
 0001:000ED9E0       Elcombos.TElComboListBox
 0001:000EDA48       Elcombos.TElComboListBox.CreateParams
 0001:000EDA64       Elcombos.TElComboListBox.GetBackground
 0001:000EDA88       Elcombos.TElComboListBox.WMLButtonDown
 0001:000EDAA4       Elcombos.TElComboListBox.DrawItem
 0001:000EDB34       Elcombos.TElComboListBox.MeasureItem
 0001:000EDB84       Elcombos.TElComboListBox.WndProc
 0001:000EDBC8       Elcombos.TElComboListBox.WMLButtonUp
 0001:000EDC30       Elcombos.TElComboListBox.WMMouseActivate
 0001:000EDC4C       Elcombos.TElComboListBox.WMMouseMove
 0001:000EDD84       Elcombos.TElComboListBox.WMRButtonDown
 0001:000EDD94       Elcombos.TElComboListBox.WMRButtonUp
 0001:000EDDA4       Elcombos.TElComboListBox.ResetContent
 0001:000EDE10       Elcombos.TElComboListBox.CNCommand
 0001:000EDE70       Elcombos.TElComboBox.AltButtonClick
 0001:000EDEC0       Elcombos.TElComboBox.ButtonClick
 0001:000EDEE4       Elcombos.TElComboBox.Click
 0001:000EDF10       Elcombos.TElComboBox.CloseUp
 0001:000EDFB4       Elcombos.TElComboBox.CMCancelMode
 0001:000EE00C       Elcombos.TElComboBox.CMEnabledChanged
 0001:000EE05C       Elcombos.TElComboBox.CMFontChanged
 0001:000EE0CC       Elcombos.TElComboBox.WMKeyDown
 0001:000EE154       Elcombos.TElComboBox.CNCommand
 0001:000EE198       Elcombos.TElComboBox.WMLButtonUp
 0001:000EE214       Elcombos.TElComboBox.WMMButtonDblClk
 0001:000EE2A4       Elcombos.TElComboBox.WMLButtonDown
 0001:000EE370       Elcombos.TElComboBox.EMSetReadOnly
 0001:000EE41C       Elcombos.TElComboBox.WMMouseWheel
 0001:000EE4F0       Elcombos.TElComboBox.WMContextMenu
 0001:000EE618       Elcombos.TElComboBox.WMSetCursor
 0001:000EE658       Elcombos.TElComboBox.CMTextChanged
 0001:000EE75C       ElCombos._16440
 0001:000EE8A4       ElCombos._16441
 0001:000EE8CC       ElCombos._16442
 0001:000EE914       Elcombos.TElComboBox
 0001:000EEBD0       Elcombos.TElComboBox.CreateParams
 0001:000EEC10       Elcombos.TElComboBox.WMThemeChanged
 0001:000EEC34       Elcombos.TElComboBox.GetListImageForm
 0001:000EEC58       Elcombos.TElComboBox.SetListImageForm
 0001:000EEC7C       Elcombos.TElComboBox
 0001:000EECE8       Elcombos.TElComboBox.DoDropDown
 0001:000EED14       Elcombos.TElComboBox.DropDown
 0001:000EF0E0       Elcombos.TElComboBox.GetBtnColor
 0001:000EF100       Elcombos.TElComboBox.GetDropDownValue
 0001:000EF1CC       Elcombos.TElComboBox.GetDroppedDown
 0001:000EF1E8       Elcombos.TElComboBox.GetItems
 0001:000EF20C       Elcombos.TElComboBox.GetListColor
 0001:000EF22C       Elcombos.TElComboBox.GetListInvertSelection
 0001:000EF250       Elcombos.TElComboBox.GetSorted
 0001:000EF274       Elcombos.TElComboBox.GetUseBackground
 0001:000EF290       Elcombos.TElComboBox.KeyDown
 0001:000EF440       Elcombos.TElComboBox.ListBoxClick
 0001:000EF4B8       Elcombos.TElComboBox.Loaded
 0001:000EF500       Elcombos.TElComboBox.SetBtnColor
 0001:000EF524       Elcombos.TElComboBox.SetBtnTransparent
 0001:000EF568       Elcombos.TElComboBox.SetDropDownCount
 0001:000EF598       Elcombos.TElComboBox.SetCanDrop
 0001:000EF604       Elcombos.TElComboBox.SetDroppedDown
 0001:000EF62C       Elcombos.TElComboBox.SetEditRect
 0001:000EF7A4       Elcombos.TElComboBox.SetItemIndex
 0001:000EF8D8       Elcombos.TElComboBox.SetItems
 0001:000EF900       Elcombos.TElComboBox.SetListColor
 0001:000EF924       Elcombos.TElComboBox.SetListInvertSelection
 0001:000EF948       Elcombos.TElComboBox.SetSorted
 0001:000EF96C       Elcombos.TElComboBox.SetStyle
 0001:000EF9E4       Elcombos.TElComboBox.ComboWndProc
 0001:000EF9FC       Elcombos.TElComboBox.GetItemHeight
 0001:000EFA20       Elcombos.TElComboBox.SetItemHeight
 0001:000EFA44       Elcombos.TElComboBox.MeasureItem
 0001:000EFA80       Elcombos.TElComboBox.DrawItem
 0001:000EFACC       Elcombos.TElComboBox.Paint
 0001:000EFB5C       Elcombos.TElComboBox.GetEditHandle
 0001:000EFB78       Elcombos.TElComboBox.SetDropDownAlignment
 0001:000EFB9C       Elcombos.TElComboBox.SetUseBackground
 0001:000EFBD8       Elcombos.TElComboBox.GetDroppedIndex
 0001:000EFBFC       Elcombos.TElComboBox.WMKillFocus
 0001:000EFC40       Elcombos.TElComboBox.WMSetFocus
 0001:000EFC88       Elcombos.TElComboBox.SetBtnFlat
 0001:000EFCD4       Elcombos.TElComboBox.GetBtnArrowColor
 0001:000EFCF8       Elcombos.TElComboBox.SetBtnArrowColor
 0001:000EFD38       Elcombos.TElComboBox.GetListSelectedColor
 0001:000EFD5C       Elcombos.TElComboBox.SetListSelectedColor
 0001:000EFD80       Elcombos.TElComboBox.GetAltBtnColor
 0001:000EFDA0       Elcombos.TElComboBox.SetAltBtnColor
 0001:000EFDC4       Elcombos.TElComboBox.GetAltBtnTransparent
 0001:000EFDE8       Elcombos.TElComboBox.SetAltBtnTransparent
 0001:000EFE14       Elcombos.TElComboBox.GetAltBtnFlat
 0001:000EFE38       Elcombos.TElComboBox.SetAltBtnFlat
 0001:000EFE64       Elcombos.TElComboBox.GetAltBtnGlyph
 0001:000EFE88       Elcombos.TElComboBox.SetAltBtnGlyph
 0001:000EFEAC       Elcombos.TElComboBox.SetAltBtnWidth
 0001:000EFF08       Elcombos.TElComboBox.GetAltBtnVisible
 0001:000EFF28       Elcombos.TElComboBox.SetAltBtnVisible
 0001:000EFF78       Elcombos.TElComboBox.SetAltBtnAlign
 0001:000EFFC4       Elcombos.TElComboBox.GetListTransparentSelection
 0001:000EFFE8       Elcombos.TElComboBox.SetListTransparentSelection
 0001:000F000C       Elcombos.TElComboBox.SetDropDownWidth
 0001:000F0040       Elcombos.TElComboBox.GetBtnDrawFrame
 0001:000F0064       Elcombos.TElComboBox.SetBtnDrawFrame
 0001:000F0088       Elcombos.TElComboBox.DoAutoComplete
 0001:000F01DC       Elcombos.TElComboBox.WMChar
 0001:000F0224       Elcombos.TElComboBox.GetAltBtnDrawFrame
 0001:000F0248       Elcombos.TElComboBox.SetAltBtnDrawFrame
 0001:000F026C       Elcombos.TElComboBox.SetReadOnly
 0001:000F02C0       Elcombos.TElComboBox.SetActiveBorderType
 0001:000F02F8       Elcombos.TElComboBox.SetInactiveBorderType
 0001:000F0330       Elcombos.TElComboBox.SetLineBorderActiveColor
 0001:000F0368       Elcombos.TElComboBox.SetLineBorderInactiveColor
 0001:000F03A0       Elcombos.TElComboBox.SetFlat
 0001:000F03D8       Elcombos.TElComboBox.CMDialogKey
 0001:000F0454       Elcombos.TElComboBox.DestroyWnd
 0001:000F047C       Elcombos.TElComboBox.WMGetDlgCode
 0001:000F04AC       Elcombos.TElComboBox.GetShowLineHint
 0001:000F04D0       Elcombos.TElComboBox.SetShowLineHint
 0001:000F04F4       Elcombos.Finalization
 0001:000F0524       Elcombos.initialization
 0001:000F052C       Elclabel.TElCustomLabel
 0001:000F0668       Elclabel.TElCustomLabel.Loaded
 0001:000F0698       Elclabel.Finalization
 0001:000F06C8       Elclabel.initialization
 0001:000F06D0       Elcgcontrol.TElCustomGraphicControl
 0001:000F081C       Elcgcontrol.TElCustomGraphicControl.Loaded
 0001:000F084C       Elcgcontrol.Finalization
 0001:000F087C       Elcgcontrol.initialization
 0001:000F16A4       Elpgctl.TElTabSheet
 0001:000F1E44       Elpgctl.TElPageControl
 0001:000F20D0       Elpgctl.TElTabs
 0001:000F214C       Elpgctl.TElTab
 0001:000F2204       Elpgctl.TElTab.DrawTabEdges
 0001:000F220C       Elpgctl.TElStdTab
 0001:000F22CC       Elpgctl.TElBtnTab
 0001:000F238C       Elpgctl.TElFlatBtnTab
 0001:000F2454       Elpgctl.TElNetTab
 0001:000F2514       Elpgctl.TEl2DFlatTab
 0001:000F25DC       Elpgctl.TElAngledTab
 0001:000F26A4       ElPgCtl._16413
 0001:000F26D8       Elpgctl.TElTabSheet.TriggerShowEvent
 0001:000F2704       Elpgctl.TElTabSheet.TriggerHideEvent
 0001:000F2730       Elpgctl.TElTabSheet.CMShowingChanged
 0001:000F277C       Elpgctl.TElTabSheet
 0001:000F2828       Elpgctl.TElTabSheet.SetTabColor
 0001:000F286C       Elpgctl.TElTabSheet.SetPageControl
 0001:000F2968       Elpgctl.TElTabSheet.SetImageIndex
 0001:000F29BC       Elpgctl.TElTabSheet.SetTabVisible
 0001:000F29F0       Elpgctl.TElTabSheet.SetCaption
 0001:000F2A80       Elpgctl.TElTabSheet.WMPaint
 0001:000F2C18       Elpgctl.TElTabSheet.SetTabShowing
 0001:000F2C54       Elpgctl.TElTabSheet.UpdateTabShowing
 0001:000F2C84       Elpgctl.TElTabSheet.GetPageIndex
 0001:000F2CC4       Elpgctl.TElTabSheet.SetPageIndex
 0001:000F2DC4       Elpgctl.TElTabSheet.Paint
 0001:000F324C       Elpgctl.TElTabSheet.CMEnabledChanged
 0001:000F328C       Elpgctl.TElTabSheet
 0001:000F32E0       Elpgctl.TElTabSheet.GetTabIndex
 0001:000F3350       Elpgctl.TElTabSheet.Notification
 0001:000F33A8       Elpgctl.TElTabSheet.WMEraseBkGnd
 0001:000F356C       Elpgctl.TElTabSheet.SetTabEnabled
 0001:000F35B4       Elpgctl.TElTabSheet.SetTabMenu
 0001:000F35FC       Elpgctl.TElPageControl.CanScrollLeft
 0001:000F3668       Elpgctl.TElPageControl.CanChange
 0001:000F36C8       Elpgctl.TElPageControl.Change
 0001:000F3718       Elpgctl.TElPageControl.ChangeActivePage
 0001:000F38E4       Elpgctl.TElPageControl.CMControlListChange
 0001:000F3914       Elpgctl.TElPageControl.CMDesignHitTest
 0001:000F39B4       Elpgctl.TElPageControl.CMDialogKey
 0001:000F3A3C       Elpgctl.TElPageControl.CMDockClient
 0001:000F3BBC       Elpgctl.TElPageControl.CMDockNotification
 0001:000F3CBC       Elpgctl.TElPageControl.CMFocusChanged
 0001:000F3CE4       Elpgctl.TElPageControl.CMFontChanged
 0001:000F3D94       Elpgctl.TElPageControl.CMColorChanged
 0001:000F3E10       Elpgctl.TElPageControl.CMSysColorChange
 0001:000F3E4C       Elpgctl.TElPageControl.CMUnDockClient
 0001:000F3EA0       Elpgctl.TElPageControl.CreateHandle
 0001:000F3F1C       Elpgctl.TElPageControl.CreateParams
 0001:000F3F44       Elpgctl.TElPageControl.DockOver
 0001:000F3F9C       Elpgctl.TElPageControl.DoAddDockClient
 0001:000F3FCC       Elpgctl.TElPageControl.DoRemoveDockClient
 0001:000F4030       Elpgctl.TElPageControl.GetActivePageIndex
 0001:000F4068       Elpgctl.TElPageControl.GetChildren
 0001:000F40B8       Elpgctl.TElPageControl.GetDockClientFromMousePos
 0001:000F4124       Elpgctl.TElPageControl.GetPageCount
 0001:000F4144       Elpgctl.TElPageControl.GetPageFromDockClient
 0001:000F41BC       Elpgctl.TElPageControl.GetPages
 0001:000F41E4       Elpgctl.TElPageControl.GetSiteInfo
 0001:000F4230       Elpgctl.TElPageControl.GetTabIndex
 0001:000F4324       Elpgctl.TElPageControl.ImageChange
 0001:000F4390       Elpgctl.TElPageControl.ImageFormChange
 0001:000F43D4       Elpgctl.TElPageControl.ImageListChange
 0001:000F43F0       Elpgctl.TElPageControl.InsertPage
 0001:000F4490       Elpgctl.TElPageControl.MakeTabVisible
 0001:000F4598       Elpgctl.TElPageControl.RebuildTabs
 0001:000F4634       Elpgctl.TElPageControl.RedoTmpBmp
 0001:000F4734       Elpgctl.TElPageControl.RemovePage
 0001:000F48AC       Elpgctl.TElPageControl.SetActivePage
 0001:000F49E0       Elpgctl.TElPageControl.SetActivePageIndex
 0001:000F4A24       Elpgctl.TElPageControl.SetActiveTabColor
 0001:000F4A84       Elpgctl.TElPageControl.SetBackground
 0001:000F4AD4       Elpgctl.TElPageControl.SetBackgroundType
 0001:000F4B58       Elpgctl.TElPageControl.SetBorderWidth
 0001:000F4BEC       Elpgctl.TElPageControl.SetChildOrder
 0001:000F4C0C       Elpgctl.TElPageControl.SetDrawFocus
 0001:000F4C40       Elpgctl.TElPageControl.SetFirstTab
 0001:000F4C80       Elpgctl.TElPageControl.SetFlat
 0001:000F4CB4       Elpgctl.TElPageControl.SetGradientEndColor
 0001:000F4D10       Elpgctl.TElPageControl.SetGradientStartColor
 0001:000F4D6C       Elpgctl.TElPageControl.SetGradientSteps
 0001:000F4DD0       Elpgctl.TElPageControl.SetHotTrack
 0001:000F4E04       Elpgctl.TElPageControl.SetImageForm
 0001:000F4EBC       Elpgctl.TElPageControl.SetImages
 0001:000F4F58       Elpgctl.TElPageControl.SetInactiveTabColor
 0001:000F4F98       Elpgctl.TElPageControl.SetMinTabHeight
 0001:000F4FCC       Elpgctl.TElPageControl.SetMinTabWidth
 0001:000F5000       Elpgctl.TElPageControl.SetMultiLine
 0001:000F5098       Elpgctl.TElPageControl.SetRaggedRight
 0001:000F50D8       Elpgctl.TElPageControl.SetScrollOpposite
 0001:000F5118       Elpgctl.TElPageControl.SetShowBorder
 0001:000F51A4       Elpgctl.TElPageControl.SetShowImages
 0001:000F51D8       Elpgctl.TElPageControl.SetShowTabs
 0001:000F520C       Elpgctl.TElPageControl.SetStyle
 0001:000F535C       Elpgctl.TElPageControl.SetTabHeight
 0001:000F5390       Elpgctl.TElPageControl.SetTabIndex
 0001:000F5444       Elpgctl.TElPageControl.SetTabPosition
 0001:000F5478       Elpgctl.TElPageControl.SetTabWidth
 0001:000F54AC       Elpgctl.TElPageControl.ShowControl
 0001:000F54F4       Elpgctl.TElPageControl.TriggerMeasureTabEvent
 0001:000F5544       Elpgctl.TElPageControl.UpdateActivePage
 0001:000F558C       Elpgctl.TElPageControl.UpdateTab
 0001:000F55A8       Elpgctl.TElPageControl.WMEraseBkGnd
 0001:000F55C4       Elpgctl.TElPageControl.WMNCCalcSize
 0001:000F5870       Elpgctl.TElPageControl.WMNCPaint
 0001:000F5C54       Elpgctl.TElPageControl.WMSize
 0001:000F5C90       Elpgctl.TElPageControl
 0001:000F5F50       Elpgctl.TElPageControl
 0001:000F6090       Elpgctl.TElPageControl.FindNextPage
 0001:000F6184       Elpgctl.TElPageControl.Notification
 0001:000F61DC       Elpgctl.TElPageControl.SelectNextPage
 0001:000F6240       Elpgctl.TElPageControl.SetBounds
 0001:000F626C       Elpgctl.TElPageControl.TabFromPoint
 0001:000F6368       Elpgctl.TElPageControl.UpdateTabs
 0001:000F6468       Elpgctl.TElPageControl.CanScrollRight
 0001:000F64FC       Elpgctl.TElPageControl.SetHotTrackFont
 0001:000F6520       Elpgctl.TElPageControl.HotTrackFontChange
 0001:000F6554       Elpgctl.TElPageControl.WMPaint
 0001:000F6748       ElPgCtl._16521
 0001:000F6798       Elpgctl.TElPageControl.Paint
 0001:000F6974       Elpgctl.TElPageControl.WMLButtonDblClk
 0001:000F69C0       Elpgctl.TElPageControl.WMKeyDown
 0001:000F6A5C       Elpgctl.TElPageControl.WMLButtonDown
 0001:000F6AC4       Elpgctl.TElPageControl.WMLButtonUp
 0001:000F6B50       Elpgctl.TElPageControl.SetScrollBtnState
 0001:000F6C30       Elpgctl.TElPageControl.SetTrackTab
 0001:000F6C64       Elpgctl.TElPageControl.WMNCLButtonDown
 0001:000F6EA8       Elpgctl.TElPageControl.WMNCLButtonUp
 0001:000F70EC       Elpgctl.TElPageControl.DoHitTest
 0001:000F72F0       Elpgctl.TElPageControl.WMNCHitTest
 0001:000F7334       Elpgctl.TElPageControl.CMMouseLeave
 0001:000F73BC       Elpgctl.TElPageControl.OnScrollTimer
 0001:000F7440       Elpgctl.TElPageControl.SetTabBkColor
 0001:000F7474       Elpgctl.TElPageControl.HasVisibleTabs
 0001:000F74CC       Elpgctl.TElPageControl.NewPage
 0001:000F74FC       Elpgctl.TElPageControl.Loaded
 0001:000F75A4       Elpgctl.TElPageControl.WMGetDlgCode
 0001:000F75C0       Elpgctl.TElPageControl.CMShowingChanged
 0001:000F75F4       Elpgctl.TElPageControl.Resize
 0001:000F7608       Elpgctl.TElPageControl.UpdateMultilineOrder
 0001:000F76D8       Elpgctl.TElPageControl.TriggerGetImageEvent
 0001:000F7714       Elpgctl.TElPageControl.IFMRepaintChildren
 0001:000F7758       Elpgctl.TElPageControl.WMWindowPosChanged
 0001:000F7784       Elpgctl.TElPageControl.IFMEffectiveSize
 0001:000F77E4       Elpgctl.TElPageControl.IFMCanPaintBkgnd
 0001:000F7800       Elpgctl.TElPageControl.PMRefreshActivePage
 0001:000F7838       Elpgctl.TElPageControl.WMNCRButtonUp
 0001:000F7990       Elpgctl.TElPageControl.SetDraggablePages
 0001:000F79BC       Elpgctl.TElTabs
 0001:000F7A0C       Elpgctl.TElTabs.CalcTabAreaSize
 0001:000F7AE4       Elpgctl.TElTabs.DrawTabs
 0001:000F7C98       Elpgctl.TElTabs.MeasureSheet
 0001:000F8550       Elpgctl.TElTabs.SetTabClass
 0001:000F85A0       Elpgctl.TElTabs.GetRotatedFont
 0001:000F860C       Elpgctl.TElTabs
 0001:000F8648       Elpgctl.TElTabs.DoDrawTabs
 0001:000F9CBC       ElPgCtl._16559
 0001:000F9D44       ElPgCtl._16560
 0001:000FA040       ElPgCtl._16561
 0001:000FA348       Elpgctl.TElTabs.ReorderPages
 0001:000FA3A8       Elpgctl.TElTab
 0001:000FA3F8       Elpgctl.TElTab.GetOuterMargin
 0001:000FA410       Elpgctl.TElTab.GetInnerMargin
 0001:000FA428       Elpgctl.TElTab.DrawTabContents
 0001:000FAA48       Elpgctl.TElTab.DrawSpace
 0001:000FAA60       Elpgctl.TElTab.CanDrawTab
 0001:000FAA7C       Elpgctl.TElTab.AdjustDrawingSize
 0001:000FAA90       Elpgctl.TElTab.GetAscend
 0001:000FAAA8       Elpgctl.TElTab.Draw
 0001:000FABA4       Elpgctl.TElTab.AdjustTabSize
 0001:000FABB4       Elpgctl.TElTab.AdjustFillSize
 0001:000FABEC       Elpgctl.TElTab.DrawTabLine
 0001:000FAC0C       Elpgctl.TElTab.FillSpace
 0001:000FAD10       Elpgctl.TElTab.FillTab
 0001:000FADFC       Elpgctl.TElTab.DrawButtons
 0001:000FB100       Elpgctl.TElTab.GetRowMargin
 0001:000FB118       Elpgctl.TElStdTab.GetOuterMargin
 0001:000FB130       Elpgctl.TElStdTab.CanDrawTab
 0001:000FB14C       Elpgctl.TElStdTab.GetAscend
 0001:000FB164       Elpgctl.TElStdTab.AdjustDrawingSize
 0001:000FB258       Elpgctl.TElStdTab.DrawTabEdges
 0001:000FB9D8       Elpgctl.TElStdTab.AdjustTabSize
 0001:000FBACC       Elpgctl.TElStdTab.DrawTabLine
 0001:000FC304       Elpgctl.TElStdTab.AdjustFillSize
 0001:000FC3D8       Elpgctl.TElStdTab.FillTab
 0001:000FC59C       Elpgctl.TElBtnTab.GetInnerMargin
 0001:000FC5B4       Elpgctl.TElBtnTab.DrawTabEdges
 0001:000FC744       Elpgctl.TElBtnTab.DrawSpace
 0001:000FC7A0       Elpgctl.TElBtnTab.AdjustTabSize
 0001:000FC894       Elpgctl.TElBtnTab.GetRowMargin
 0001:000FC8AC       Elpgctl.TElFlatBtnTab.GetInnerMargin
 0001:000FC8C4       Elpgctl.TElFlatBtnTab.DrawSpace
 0001:000FCB10       Elpgctl.TElFlatBtnTab.DrawTabEdges
 0001:000FCD10       Elpgctl.TElFlatBtnTab.AdjustTabSize
 0001:000FCE04       Elpgctl.TElFlatBtnTab.AdjustFillSize
 0001:000FCE78       Elpgctl.TElFlatBtnTab.GetRowMargin
 0001:000FCE90       Elpgctl.TElNetTab.DrawTabEdges
 0001:000FD2E0       Elpgctl.TElNetTab.AdjustTabSize
 0001:000FD3D4       Elpgctl.TElNetTab.GetInnerMargin
 0001:000FD3EC       Elpgctl.TElNetTab.DrawSpace
 0001:000FD61C       Elpgctl.TElNetTab.CanDrawTab
 0001:000FD638       Elpgctl.TElNetTab.AdjustDrawingSize
 0001:000FD6A8       Elpgctl.TElNetTab.GetOuterMargin
 0001:000FD6C0       Elpgctl.TElNetTab.DrawTabLine
 0001:000FDC80       Elpgctl.TElNetTab.GetAscend
 0001:000FDC98       Elpgctl.TElNetTab.FillSpace
 0001:000FDD04       Elpgctl.TElNetTab.AdjustFillSize
 0001:000FDE14       Elpgctl.TElNetTab.FillTab
 0001:000FDE5C       Elpgctl.TElNetTab.DrawButtons
 0001:000FE01C       Elpgctl.TElPageControl.GetThemedClassName
 0001:000FE048       Elpgctl.TElPageControl.CreateThemeHandle
 0001:000FE0DC       Elpgctl.TElPageControl.FreeThemeHandle
 0001:000FE134       Elpgctl.TElPageControl.WMNCCreate
 0001:000FE168       Elpgctl.TElPageControl.WMNCDestroy
 0001:000FE19C       Elpgctl.TElPageControl.WMSetCursor
 0001:000FE270       Elpgctl.TElPageControl.WMNCMouseMove
 0001:000FE3F0       ElPgCtl._16619
 0001:000FE404       ElPgCtl._16620
 0001:000FE5C4       ElPgCtl._16621
 0001:000FE704       Elpgctl.TElPageControl.OnHintTimer
 0001:000FE980       Elpgctl.TElPageControl.WMMouseMove
 0001:000FE9D0       Elpgctl.TElPageControl.WMThemeChanged
 0001:000FEA48       Elpgctl.TElPageControl.SetSavvyMode
 0001:000FEB20       Elpgctl.TElPageControl.SetFlatTabBorderColor
 0001:000FEB98       Elpgctl.TElPageControl.SetTabBkColorNetStyle
 0001:000FEBE4       Elpgctl.TElPageControl.SetVerticalSideCaptions
 0001:000FEC18       Elpgctl.TElPageControl.CMHintShow
 0001:000FEDD4       Elpgctl.TElPageControl.SetHint
 0001:000FEF0C       Elpgctl.TElPageControl.SetActiveTabFont
 0001:000FEF30       Elpgctl.TElPageControl.SetUseActiveTabFont
 0001:000FEF70       Elpgctl.TElPageControl.ActiveTabFontChange
 0001:000FEFB0       Elpgctl.TElPageControl.TriggerDrawTabEvent
 0001:000FF010       Elpgctl.TElTabSheet.IsThemeApplied
 0001:000FF048       Elpgctl.TElTabSheet.GetBtnTheme
 0001:000FF080       Elpgctl.TElTabSheet.GetScrollTheme
 0001:000FF0B8       Elpgctl.TElTabSheet.GetTabTheme
 0001:000FF0F0       Elpgctl.TElTabSheet.WMNCCalcSize
 0001:000FF1A4       Elpgctl.TElTabSheet.WMNCPaint
 0001:000FF380       Elpgctl.TElTabs.GetBtnTheme
 0001:000FF3B0       Elpgctl.TElTabs.GetScrollTheme
 0001:000FF3E0       Elpgctl.TElTabs.GetTabTheme
 0001:000FF410       Elpgctl.TElTabs.IsThemeApplied
 0001:000FF444       Elpgctl.TElTab.GetBtnTheme
 0001:000FF474       Elpgctl.TElTab.GetScrollTheme
 0001:000FF4A4       Elpgctl.TElTab.GetTabTheme
 0001:000FF4D4       Elpgctl.TElTab.IsThemeApplied
 0001:000FF508       Elpgctl.TElTab.GetTabPosition
 0001:000FF544       Elpgctl.TElTab.GetContentMargin
 0001:000FF55C       Elpgctl.TElTab.FixupTab
 0001:000FF57C       Elpgctl.TElBtnTab.FillTab
 0001:000FF5BC       Elpgctl.TElFlatBtnTab.FillTab
 0001:000FF5FC       Elpgctl.TElTabSheet.WMThemeChanged
 0001:000FF660       Elpgctl.TElTabSheet.GetUseXPThemes
 0001:000FF698       Elpgctl.TElTabSheet.CreateWnd
 0001:000FF6D0       Elpgctl.TElTabSheet.ReadState
 0001:000FF710       Elpgctl.TElTabSheet.CMDialogChar
 0001:000FF7AC       Elpgctl.TElTabSheet.CMHintShow
 0001:000FF954       Elpgctl.TElTabSheet.SetHint
 0001:000FFA8C       Elpgctl.TElTabSheet.SetUseTabColor
 0001:000FFAD0       Elpgctl.TEl2DFlatTab.AdjustDrawingSize
 0001:000FFB40       Elpgctl.TEl2DFlatTab.AdjustFillSize
 0001:000FFC40       Elpgctl.TEl2DFlatTab.AdjustTabSize
 0001:000FFD34       Elpgctl.TEl2DFlatTab.CanDrawTab
 0001:000FFD50       Elpgctl.TEl2DFlatTab.DrawTabEdges
 0001:001000C0       Elpgctl.TEl2DFlatTab.DrawTabLine
 0001:00100614       Elpgctl.TEl2DFlatTab.GetAscend
 0001:0010062C       Elpgctl.TEl2DFlatTab.GetInnerMargin
 0001:00100644       Elpgctl.TEl2DFlatTab.GetOuterMargin
 0001:0010065C       Elpgctl.TEl2DFlatTab.FillTab
 0001:00100820       Elpgctl.TElAngledTab.CanDrawTab
 0001:00100838       Elpgctl.TElAngledTab.DrawTabEdges
 0001:00100CE4       Elpgctl.TElAngledTab.DrawTabLine
 0001:001012F4       Elpgctl.TElAngledTab.AdjustFillSize
 0001:0010139C       Elpgctl.TElAngledTab.AdjustDrawingSize
 0001:00101488       Elpgctl.TElAngledTab.AdjustTabSize
 0001:001014CC       Elpgctl.TElAngledTab.FillTab
 0001:0010188C       Elpgctl.TElAngledTab.GetAscend
 0001:001018A4       Elpgctl.TElAngledTab.GetInnerMargin
 0001:001018BC       Elpgctl.TElAngledTab.GetOuterMargin
 0001:001018D4       Elpgctl.TElAngledTab.GetContentMargin
 0001:001018EC       Elpgctl.TElAngledTab.CreateTabPoints
 0001:00101B60       Elpgctl.TElAngledTab.FixupTab
 0001:00101B94       Elpgctl.Finalization
 0001:00101BC4       Elpgctl.initialization
 0001:00101BCC       ElShutdownWatcher._16385
 0001:00101C30       ElShutdownWatcher._16386
 0001:00101C64       ElShutdownWatcher._16387
 0001:00101CB4       ElShutdownWatcher._16388
 0001:00101D34       ElShutdownWatcher._16389
 0001:00101DD8       Elshutdownwatcher.Finalization
 0001:00101E1C       Elshutdownwatcher.initialization
 0001:00101E7C       Elipedit.TElIPPartEdit
 0001:0010201C       Elipedit.TElIPEdit
 0001:001029C8       Elipedit.TElIPPartEdit.WMChar
 0001:00102A10       Elipedit.TElIPPartEdit.WMGetDlgCode
 0001:00102A38       Elipedit.TElIPPartEdit.WMKeyDown
 0001:00102B40       Elipedit.TElIPPartEdit.WMKillFocus
 0001:00102B94       Elipedit.TElIPPartEdit.WMSetFocus
 0001:00102BE8       Elipedit.TElIPEdit
 0001:00102F24       Elipedit.TElIPEdit
 0001:00102F58       Elipedit.TElIPEdit.DrawFlatBorder
 0001:001031C8       Elipedit.TElIPEdit.Paint
 0001:00103348       Elipedit.TElIPEdit.AdjustEditorPositions
 0001:0010341C       Elipedit.TElIPEdit.CMColorChanged
 0001:00103460       Elipedit.TElIPEdit.CMMouseEnter
 0001:001034C8       Elipedit.TElIPEdit.CMMouseLeave
 0001:00103530       Elipedit.TElIPEdit.CMEnabledChanged
 0001:00103580       Elipedit.TElIPEdit.CMFontChanged
 0001:001035DC       Elipedit.TElIPEdit.CMSysColorChange
 0001:00103630       Elipedit.TElIPEdit.WMEraseBkgnd
 0001:0010364C       Elipedit.TElIPEdit.WMNCPaint
 0001:00103700       ElIPEdit._16406
 0001:00103820       ElIPEdit._16407
 0001:0010384C       Elipedit.TElIPEdit.WMSetFocus
 0001:001038E8       Elipedit.TElIPEdit.WMKillFocus
 0001:00103934       Elipedit.TElIPEdit.WMSize
 0001:0010395C       Elipedit.TElIPEdit.CreateWindowHandle
 0001:001039C4       Elipedit.TElIPEdit.GetPart
 0001:001039E8       Elipedit.TElIPEdit.GetPartCanEdit
 0001:00103A0C       Elipedit.TElIPEdit.FindPart
 0001:00103A50       Elipedit.TElIPEdit.OnEditorChange
 0001:00103C78       Elipedit.TElIPEdit.OnEditorEnter
 0001:00103CA4       Elipedit.TElIPEdit.OnEditorExit
 0001:00103D58       Elipedit.TElIPEdit.OnEditorPoint
 0001:00103D94       Elipedit.TElIPEdit.CreateParams
 0001:00103DFC       Elipedit.TElIPEdit.SetInactiveBorderType
 0001:00103E4C       Elipedit.TElIPEdit.SetActiveBorderType
 0001:00103E9C       Elipedit.TElIPEdit.SetFlat
 0001:00103EF0       Elipedit.TElIPEdit.SetBorderStyle
 0001:00103F30       Elipedit.TElIPEdit.GetIPAddress
 0001:00103F50       Elipedit.TElIPEdit.SetIPAddress
 0001:00103FC8       Elipedit.TElIPEdit.SetIPString
 0001:001040A0       Elipedit.TElIPEdit.GetIPString
 0001:001040CC       Elipedit.TElIPEdit.SetPart
 0001:0010416C       Elipedit.TElIPEdit.SetPartCanEdit
 0001:001041A8       Elipedit.TElIPEdit.SetModified
 0001:001041C4       Elipedit.TElIPEdit.DoMouseEnter
 0001:001041F0       Elipedit.TElIPEdit.DoMouseLeave
 0001:0010421C       Elipedit.TElIPEdit.UpdateFrame
 0001:0010428C       Elipedit.TElIPEdit.OnEditorLeftPoint
 0001:001042C8       Elipedit.TElIPEdit.SetBorderSides
 0001:00104308       Elipedit.TElIPEdit.WMNCCalcSize
 0001:001043B8       Elipedit.TElIPEdit.TriggerChangeEvent
 0001:001043E4       Elipedit.TElIPEdit.ClickHandler
 0001:00104404       Elipedit.TElIPEdit.ContextPopupHandler
 0001:00104434       Elipedit.TElIPEdit.DblClickHandler
 0001:00104454       Elipedit.TElIPEdit.DragDropHandler
 0001:00104484       Elipedit.TElIPEdit.DragOverHandler
 0001:001044BC       Elipedit.TElIPEdit.EndDragHandler
 0001:001044EC       Elipedit.TElIPEdit.KeyDownHandler
 0001:00104518       Elipedit.TElIPEdit.KeyPressHandler
 0001:0010453C       Elipedit.TElIPEdit.KeyUpHandler
 0001:00104568       Elipedit.TElIPEdit.MouseDownHandler
 0001:0010459C       Elipedit.TElIPEdit.MouseEnterHandler
 0001:001045BC       Elipedit.TElIPEdit.MouseLeaveHandler
 0001:001045DC       Elipedit.TElIPEdit.MouseMoveHandler
 0001:0010460C       Elipedit.TElIPEdit.MouseUpHandler
 0001:00104640       Elipedit.TElIPEdit.StartDragHandler
 0001:00104664       Elipedit.TElIPEdit.GetThemedClassName
 0001:00104694       Elipedit.TElIPEdit.Loaded
 0001:001046B4       Elipedit.TElIPEdit.SetLineBorderActiveColor
 0001:0010471C       Elipedit.TElIPEdit.SetLineBorderInactiveColor
 0001:00104784       Elipedit.TElIPEdit.CMHintShow
 0001:0010492C       Elipedit.TElIPEdit.SetHint
 0001:00104A64       Elipedit.TElIPEdit.SetChangeDisabledText
 0001:00104AB4       Elipedit.Finalization
 0001:00104AE4       Elipedit.initialization
 0001:00104AEC       Elhtmlview.TElHTMLView
 0001:001056CC       Elhtmlview.TElHTMLView.OnHScroll
 0001:00105734       Elhtmlview.TElHTMLView.OnVScroll
 0001:0010579C       Elhtmlview.TElHTMLView.SBChanged
 0001:001057C4       Elhtmlview.TElHTMLView.SetVertScrollBarStyles
 0001:001057E8       Elhtmlview.TElHTMLView.SetHorzScrollBarStyles
 0001:0010580C       Elhtmlview.TElHTMLView.SetViewPos
 0001:00105890       Elhtmlview.TElHTMLView.PrepareText
 0001:00105A34       Elhtmlview.TElHTMLView.SetBorderStyle
 0001:00105A68       Elhtmlview.TElHTMLView.UpdateFrame
 0001:00105AD8       Elhtmlview.TElHTMLView.CMFontChanged
 0001:00105B38       Elhtmlview.TElHTMLView.CMSysColorChange
 0001:00105B64       Elhtmlview.TElHTMLView.SetWordWrap
 0001:00105BBC       ElHTMLView._16399
 0001:00105D4C       ElHTMLView._16400
 0001:00105EDC       Elhtmlview.TElHTMLView.AdjustScrollBars
 0001:001061CC       Elhtmlview.TElHTMLView.Paint
 0001:001066AC       Elhtmlview.TElHTMLView.CMMouseEnter
 0001:00106708       Elhtmlview.TElHTMLView.CMMouseLeave
 0001:00106778       Elhtmlview.TElHTMLView.SetActiveBorderType
 0001:001067C8       Elhtmlview.TElHTMLView.SetInactiveBorderType
 0001:00106818       Elhtmlview.TElHTMLView.SetFlat
 0001:0010684C       Elhtmlview.TElHTMLView.SetImageForm
 0001:001068F0       Elhtmlview.TElHTMLView.SetGradientStartColor
 0001:00106944       Elhtmlview.TElHTMLView.SetGradientEndColor
 0001:00106998       Elhtmlview.TElHTMLView.SetGradientSteps
 0001:001069F0       Elhtmlview.TElHTMLView.SetBackground
 0001:00106A40       Elhtmlview.TElHTMLView.SetBackgroundType
 0001:00106AB0       Elhtmlview.TElHTMLView.ImageFormChange
 0001:00106AD0       Elhtmlview.TElHTMLView.ImageChange
 0001:00106B30       Elhtmlview.TElHTMLView.CreateParams
 0001:00106BBC       Elhtmlview.TElHTMLView.SetTransparent
 0001:00106C2C       Elhtmlview.TElHTMLView.DrawFlatBorder
 0001:00106F6C       Elhtmlview.TElHTMLView.DrawFlatBorderEx
 0001:00107268       Elhtmlview.TElHTMLView.RedoTmpBmp
 0001:00107378       Elhtmlview.TElHTMLView.Notification
 0001:001073D0       Elhtmlview.TElHTMLView.WMSetFocus
 0001:0010740C       Elhtmlview.TElHTMLView.WMKillFocus
 0001:00107454       Elhtmlview.TElHTMLView.CMTextChanged
 0001:001074F8       Elhtmlview.TElHTMLView.CreateWindowHandle
 0001:00107540       Elhtmlview.TElHTMLView.SetLinkColor
 0001:00107578       Elhtmlview.TElHTMLView.SetLinkStyle
 0001:001075B0       Elhtmlview.TElHTMLView.SetHighlightColor
 0001:001075EC       Elhtmlview.TElHTMLView.SetHighlightBkColor
 0001:00107628       Elhtmlview.TElHTMLView.TriggerLinkClickEvent
 0001:001076A8       Elhtmlview.TElHTMLView.TriggerImageNeededEvent
 0001:00107718       Elhtmlview.TElHTMLView.Click
 0001:001077F8       Elhtmlview.TElHTMLView.MouseMove
 0001:001078D4       Elhtmlview.TElHTMLView.SetCursor
 0001:001079CC       ElHTMLView._16438
 0001:00107B30       ElHTMLView._16439
 0001:00107B60       ElHTMLView._16440
 0001:00107B84       Elhtmlview.TElHTMLView.KeyDown
 0001:00107E28       Elhtmlview.TElHTMLView.WMGetDlgCode
 0001:00107E44       Elhtmlview.TElHTMLView.WMPaint
 0001:00108000       Elhtmlview.TElHTMLView.WMEraseBkgnd
 0001:0010801C       Elhtmlview.TElHTMLView.WMMouseWheel
 0001:001080DC       Elhtmlview.TElHTMLView.MouseDown
 0001:00108230       Elhtmlview.TElHTMLView.SetLinkPopupMenu
 0001:00108288       Elhtmlview.TElHTMLView.SetUseCustomScrollBars
 0001:001082C4       Elhtmlview.TElHTMLView.CMEnabledChanged
 0001:00108310       Elhtmlview.TElHTMLView.WMNCPaint
 0001:001083A4       Elhtmlview.TElHTMLView.WMNCCalcSize
 0001:00108530       Elhtmlview.TElHTMLView.WMNCHitTest
 0001:00108588       Elhtmlview.TElHTMLView.WMVScroll
 0001:001086F4       Elhtmlview.TElHTMLView.WMHScroll
 0001:00108840       Elhtmlview.TElHTMLView.CMMouseWheel
 0001:00108900       Elhtmlview.TElHTMLView.SetFlatFocusedScrollBars
 0001:00108954       Elhtmlview.TElHTMLView.Loaded
 0001:001089D4       Elhtmlview.TElHTMLView.WMSize
 0001:00108A20       Elhtmlview.TElHTMLView
 0001:00108AD4       Elhtmlview.TElHTMLView
 0001:00108E40       Elhtmlview.TElHTMLView.SetBorderSides
 0001:00108E80       Elhtmlview.TElHTMLView.SetCaption
 0001:00108EF8       Elhtmlview.TElHTMLView.IFMRepaintChildren
 0001:00108F28       Elhtmlview.TElHTMLView.WMWindowPosChanged
 0001:00108F54       Elhtmlview.TElHTMLView.SetUseXPThemes
 0001:00108F98       Elhtmlview.TElHTMLView.GetThemedClassName
 0001:00108FCC       Elhtmlview.TElHTMLView.WMRButtonUp
 0001:00108FE8       Elhtmlview.TElHTMLView.DoLinkPopup
 0001:0010906C       Elhtmlview.TElHTMLView.WMContextMenu
 0001:0010919C       Elhtmlview.TElHTMLView.SetLineBorderActiveColor
 0001:00109204       Elhtmlview.TElHTMLView.SetLineBorderInactiveColor
 0001:0010926C       Elhtmlview.TElHTMLView.WMSysColorChange
 0001:001092D8       Elhtmlview.TElHTMLView.SetViewRect
 0001:0010937C       Elhtmlview.TElHTMLView.SetMargin
 0001:001093E8       Elhtmlview.TElHTMLView.CMHintShow
 0001:00109590       Elhtmlview.TElHTMLView.SetHint
 0001:001096C8       Elhtmlview.Finalization
 0001:001096F8       Elhtmlview.initialization
 0001:00109700       Htmllbx.TCustomElHTMLListBox
 0001:001099D0       Htmllbx.TCustomElHTMLComboBox
 0001:00109C78       Htmllbx.TElHTMLListBox
 0001:00109E28       Htmllbx.TElHTMLComboBox
 0001:00109FE8       Htmllbx.TCustomElHTMLListBox.MeasureItem
 0001:0010A1C0       Htmllbx.TCustomElHTMLListBox.DrawItem
 0001:0010A4F4       Htmllbx.TCustomElHTMLListBox.TriggerLinkClickEvent
 0001:0010A560       Htmllbx.TCustomElHTMLListBox.TriggerImageNeededEvent
 0001:0010A5D0       Htmllbx.TCustomElHTMLListBox.Loaded
 0001:0010A5F8       Htmllbx.TCustomElHTMLListBox
 0001:0010A638       Htmllbx.TCustomElHTMLListBox
 0001:0010A6B8       Htmllbx.TCustomElHTMLListBox.SetIsHTML
 0001:0010A714       Htmllbx.TCustomElHTMLListBox.CMMouseLeave
 0001:0010A744       Htmllbx.TCustomElHTMLListBox.MouseDown
 0001:0010A958       Htmllbx.TCustomElHTMLListBox.MouseMove
 0001:0010AB78       Htmllbx.TCustomElHTMLListBox.SetCursor
 0001:0010ABF0       Htmllbx.TCustomElHTMLListBox.GetItemWidth
 0001:0010AD44       Htmllbx.TCustomElHTMLListBox.CreateHintWindow
 0001:0010AD94       Htmllbx.TCustomElHTMLListBox.SetStyle
 0001:0010ADDC       Htmllbx.TCustomElHTMLComboBox.MeasureItem
 0001:0010AFD4       Htmllbx.TCustomElHTMLComboBox.DrawItem
 0001:0010B2F8       Htmllbx.TCustomElHTMLComboBox.TriggerLinkClickEvent
 0001:0010B364       Htmllbx.TCustomElHTMLComboBox.TriggerImageNeededEvent
 0001:0010B3D4       Htmllbx.TCustomElHTMLComboBox.Loaded
 0001:0010B42C       Htmllbx.TCustomElHTMLComboBox
 0001:0010B46C       Htmllbx.TCustomElHTMLComboBox
 0001:0010B4E4       Htmllbx.TCustomElHTMLComboBox.SetIsHTML
 0001:0010B568       Htmllbx.TCustomElHTMLComboBox.SetStyle
 0001:0010B5DC       Htmllbx.Finalization
 0001:0010B60C       Htmllbx.initialization
 0001:0010B730       Htmlrender.TElHTMLItem
 0001:0010B7DC       Htmlrender.TElHTMLBreakItem
 0001:0010B874       Htmlrender.TElHTMLData
 0001:0010B908       Htmlrender.TElHTMLRender
 0001:0010B994       HTMLRender._16397
 0001:0010BA3C       HTMLRender._16398
 0001:0010BAF8       HTMLRender._16399
 0001:0010BB4C       Htmlrender.TElHTMLItem
 0001:0010BBA4       Htmlrender.TElHTMLItem
 0001:0010BBD8       Htmlrender.TElHTMLItem.GetHeight
 0001:0010BD34       Htmlrender.TElHTMLItem.GetWidth
 0001:0010BF94       Htmlrender.TElHTMLItem.Assign
 0001:0010C020       Htmlrender.TElHTMLItem.GetIsLink
 0001:0010C040       Htmlrender.TElHTMLItem.SetIsLink
 0001:0010C068       Htmlrender.TElHTMLItem.GetIsSub
 0001:0010C088       Htmlrender.TElHTMLItem.SetIsSub
 0001:0010C0B0       Htmlrender.TElHTMLItem.GetIsSuper
 0001:0010C0D0       Htmlrender.TElHTMLItem.SetIsSuper
 0001:0010C0F8       Htmlrender.TElHTMLBreakItem.GetHeight
 0001:0010C23C       Htmlrender.TElHTMLBreakItem.GetWidth
 0001:0010C350       Htmlrender.TElHTMLBreakItem.Assign
 0001:0010C3A4       Htmlrender.TElHTMLBreakItem.AssignBreakProps
 0001:0010C3E0       Htmlrender.TElHTMLData
 0001:0010C4A4       Htmlrender.TElHTMLData
 0001:0010C4E8       Htmlrender.TElHTMLData.ClearArray
 0001:0010C53C       Htmlrender.TElHTMLData.LineCount
 0001:0010C5A0       Htmlrender.TElHTMLRender.DestroyData
 0001:0010C5CC       Htmlrender.TElHTMLRender.CreateData
 0001:0010C5F4       Htmlrender.TElHTMLRender.SetData
 0001:0010C630       Htmlrender.TElHTMLRender.PrepareText
 0001:0010C694       HTMLRender._16423
 0001:0010C6B8       HTMLRender._16424
 0001:0010C710       HTMLRender._16425
 0001:0010C75C       HTMLRender._16426
 0001:0010C7A4       HTMLRender._16427
 0001:0010C84C       HTMLRender._16428
 0001:0010C8EC       HTMLRender._16429
 0001:0010CAC4       HTMLRender._16430
 0001:0010CAFC       HTMLRender._16431
 0001:0010CB7C       HTMLRender._16432
 0001:0010CC4C       HTMLRender._16433
 0001:0010CD0C       HTMLRender._16434
 0001:0010E19C       HTMLRender._16435
 0001:0010E210       Htmlrender.TElHTMLRender.PrepareToData
 0001:0010EA70       Htmlrender.TElHTMLRender.DrawText
 0001:0010EAB8       Htmlrender.TElHTMLRender.DrawTextEx
 0001:0010F310       Htmlrender.TElHTMLRender.IsCursorOverLink
 0001:0010F388       Htmlrender.TElHTMLRender.TriggerImageNeededEvent
 0001:0010F3F4       Htmlrender.TElHTMLRender.GetTextSize
 0001:0010F48C       HTMLRender._16442
 0001:0010F60C       Htmlrender.TElHTMLRender.CalcTokenSizes
 0001:0010F670       Htmlrender.TElHTMLRender.SelectLinkAt
 0001:0010F6C8       Htmlrender.TElHTMLRender.FindItemAt
 0001:0010F91C       Htmlrender.TElHTMLRender.SelectPrevLink
 0001:0010F98C       Htmlrender.TElHTMLRender.SelectNextLink
 0001:0010FA08       Htmlrender.TElHTMLRender
 0001:0010FAF8       Htmlrender.TElHTMLRender
 0001:0010FB74       Htmlrender.Finalization
 0001:0010FBA4       Htmlrender.initialization
 0001:0010FBDC       Elhtmlhint.TElHTMLHint
 0001:0010FD54       Elhtmlhint.TElHTMLHintWindow
 0001:0010FED8       Elhtmlhint.TElHTMLHint
 0001:0010FF40       Elhtmlhint.TElHTMLHint.SetEnabled
 0001:0010FFD4       Elhtmlhint.TElHTMLHint.SetOnImageNeeded
 0001:00110004       Elhtmlhint.TElHTMLHint.SetOnHide
 0001:00110034       Elhtmlhint.TElHTMLHint.SetOnShow
 0001:00110064       Elhtmlhint.TElHTMLHint.SetFontName
 0001:001100A0       Elhtmlhint.TElHTMLHintWindow
 0001:001100D4       Elhtmlhint.TElHTMLHintWindow
 0001:00110270       Elhtmlhint.TElHTMLHintWindow.OnShow
 0001:00110294       Elhtmlhint.TElHTMLHintWindow.TriggerImageNeededEvent
 0001:001102FC       Elhtmlhint.TElHTMLHintWindow.OnHide
 0001:00110320       Elhtmlhint.TElHTMLHintWindow.WMShowWindow
 0001:0011034C       Elhtmlhint.TElHTMLHintWindow.WMWindowPosChanged
 0001:00110380       Elhtmlhint.TElHTMLHintWindow.SetupRightCaption
 0001:001105D0       Elhtmlhint.TElHTMLHintWindow.CalcHintRect
 0001:00110660       Elhtmlhint.TElHTMLHintWindow.ActivateHint
 0001:001106A4       Elhtmlhint.Finalization
 0001:001106E0       Elhtmlhint.initialization
 0001:001108E0       Eltrayinfo.TTrayInfoForm
 0001:00110B28       Eltrayinfo.TElTrayInfo
 0001:00110BD4       Eltrayinfo.TElTrayInfo
 0001:00110C48       Eltrayinfo.TElTrayInfo.SetColor
 0001:00110C6C       Eltrayinfo.TElTrayInfo.SetShowTime
 0001:00110C90       Eltrayinfo.TElTrayInfo.SetInfoType
 0001:00110CD4       Eltrayinfo.TElTrayInfo.SetMessage
 0001:00110D54       ElTrayInfo._16395
 0001:00110DA8       ElTrayInfo._16396
 0001:00110DD8       ElTrayInfo._16397
 0001:00110DF4       Eltrayinfo.TElTrayInfo.Show
 0001:001111BC       Eltrayinfo.TElTrayInfo.Hide
 0001:001111DC       Eltrayinfo.TElTrayInfo.AdjustFormIcon
 0001:001112CC       Eltrayinfo.TElTrayInfo.SuggestedHeight
 0001:00111344       Eltrayinfo.TElTrayInfo.SuggestedWidth
 0001:0011138C       Eltrayinfo.TElTrayInfo.AdjustFormSize
 0001:00111424       Eltrayinfo.TElTrayInfo.Notification
 0001:001114B0       Eltrayinfo.TElTrayInfo.SetIsHTML
 0001:001114F4       Eltrayinfo.TElTrayInfo.ShowHandler
 0001:0011151C       Eltrayinfo.TElTrayInfo.HideHandler
 0001:00111544       Eltrayinfo.TElTrayInfo.ClickHandler
 0001:0011156C       Eltrayinfo.TElTrayInfo.DblClickHandler
 0001:00111594       Eltrayinfo.TElTrayInfo
 0001:001115F8       Eltrayinfo.TTrayInfoForm.TimerTimer
 0001:00111610       Eltrayinfo.TTrayInfoForm.Notification
 0001:0011166C       Eltrayinfo.TTrayInfoForm.CreateParams
 0001:001116A8       Eltrayinfo.TTrayInfoForm.ClickHandler
 0001:001116DC       Eltrayinfo.TTrayInfoForm.DblClickHandler
 0001:00111710       Eltrayinfo.TTrayInfoForm.ShowHandler
 0001:00111744       Eltrayinfo.TTrayInfoForm.HideHandler
 0001:00111778       Eltrayinfo.TTrayInfoForm.WMMouseActivate
 0001:00111794       Eltrayinfo.Finalization
 0001:001117C4       Eltrayinfo.initialization
 0001:001118D0       Elspinbtn.TElSpinButton
 0001:00112298       Elspinbtn.TElSpinButton
 0001:0011234C       Elspinbtn.TElSpinButton
 0001:001123B4       Elspinbtn.TElSpinButton.Paint
 0001:00112B3C       Elspinbtn.TElSpinButton.StopDragging
 0001:00112B64       Elspinbtn.TElSpinButton.OnTimer
 0001:00112C84       Elspinbtn.TElSpinButton.MouseDown
 0001:00112FC8       Elspinbtn.TElSpinButton.MouseUp
 0001:001130B0       Elspinbtn.TElSpinButton.GetPopupMenu
 0001:0011311C       Elspinbtn.TElSpinButton.WMMouseWheel
 0001:00113154       Elspinbtn.TElSpinButton.MouseMove
 0001:00113368       Elspinbtn.TElSpinButton.CMExit
 0001:0011338C       Elspinbtn.TElSpinButton.IntMouseMove
 0001:00113588       Elspinbtn.TElSpinButton.WMMouseMove
 0001:001135BC       Elspinbtn.TElSpinButton.SetUseDrag
 0001:001135E8       Elspinbtn.TElSpinButton.SetFlat
 0001:0011361C       Elspinbtn.TElSpinButton.CMEnabledChanged
 0001:00113640       Elspinbtn.TElSpinButton.SetButtonDirection
 0001:0011367C       Elspinbtn.TElSpinButton.SetButtonType
 0001:001136B8       Elspinbtn.TElSpinButton.WMContextMenu
 0001:00113710       Elspinbtn.TElSpinButton.CMMouseLeave
 0001:00113760       Elspinbtn.TElSpinButton.GetThemedClassName
 0001:00113790       Elspinbtn.TElSpinButton.SetUpArrowEnabled
 0001:001137D0       Elspinbtn.TElSpinButton.SetDownArrowEnabled
 0001:00113810       Elspinbtn.TElSpinButton.SetMoneyFlat
 0001:00113844       Elspinbtn.TElSpinButton.SetMoneyFlatActiveColor
 0001:00113884       Elspinbtn.TElSpinButton.SetMoneyFlatDownColor
 0001:001138C4       Elspinbtn.TElSpinButton.SetMoneyFlatInactiveColor
 0001:00113904       Elspinbtn.TElSpinButton.GetMoneyFlat
 0001:00113920       Elspinbtn.TElSpinButton.SetOldStyled
 0001:00113954       Elspinbtn.TElSpinButton.CMHintShow
 0001:00113AFC       Elspinbtn.TElSpinButton.SetHint
 0001:00113C34       Elspinbtn.Finalization
 0001:00113C64       Elspinbtn.initialization
 0001:00113CF0       Elcalendardefs.TElHoliday
 0001:00113E74       Elcalendardefs.TElHolidays
 0001:00113F28       Elcalendardefs.TElHoliday.Assign
 0001:00113FBC       Elcalendardefs.TElHoliday
 0001:0011404C       Elcalendardefs.TElHoliday
 0001:00114080       Elcalendardefs.TElHoliday.SetFixedDate
 0001:001140B0       Elcalendardefs.TElHoliday.SetDay
 0001:0011414C       Elcalendardefs.TElHoliday.SetDayOfWeek
 0001:001141D4       Elcalendardefs.TElHoliday.SetMonth
 0001:0011425C       Elcalendardefs.TElHoliday.SetIsRest
 0001:0011428C       Elcalendardefs.TElHoliday.SaveToStream
 0001:0011430C       Elcalendardefs.TElHoliday.LoadFromStream
 0001:0011438C       Elcalendardefs.TElHolidays.GetItems
 0001:001143B0       Elcalendardefs.TElHolidays.SetItems
 0001:001143D4       Elcalendardefs.TElHolidays.GetOwner
 0001:001143F0       Elcalendardefs.TElHolidays.Update
 0001:00114438       Elcalendardefs.TElHolidays.Add
 0001:00114454       Elcalendardefs.TElHolidays.SaveToStream
 0001:001144B4       Elcalendardefs.TElHolidays.LoadFromStream
 0001:00114510       Elcalendardefs.TElHolidays
 0001:00114564       Elcalendardefs.Finalization
 0001:00114594       Elcalendardefs.initialization
 0001:001145C8       Elcurredit.TElCurrPartEdit
 0001:001147B8       Elcurredit.TElCurrencyEdit
 0001:001155B4       ElCurrEdit._16389
 0001:001156D4       ElCurrEdit._16390
 0001:00115700       ElCurrEdit._16391
 0001:00115850       ElCurrEdit._16392
 0001:00115878       ElCurrEdit._16393
 0001:001159E0       ElCurrEdit._16394
 0001:00115A10       Elcurredit.TElCurrPartEdit.WMChar
 0001:00115B68       Elcurredit.TElCurrPartEdit.WMGetDlgCode
 0001:00115B9C       Elcurredit.TElCurrPartEdit.WMKeyDown
 0001:00115CC4       Elcurredit.TElCurrPartEdit.CreateWindowHandle
 0001:00115D08       Elcurredit.TElCurrPartEdit.WMKillFocus
 0001:00115D5C       Elcurredit.TElCurrPartEdit.WMSetFocus
 0001:00115DB0       Elcurredit.TElCurrencyEdit.SetAbsValue
 0001:00115E00       Elcurredit.TElCurrencyEdit.UpdateParts
 0001:00115ED0       Elcurredit.TElCurrencyEdit
 0001:00116328       Elcurredit.TElCurrencyEdit
 0001:0011637C       Elcurredit.TElCurrencyEdit.DrawFlatBorder
 0001:001165BC       ElCurrEdit._16406
 0001:00116628       Elcurredit.TElCurrencyEdit.Paint
 0001:001168EC       Elcurredit.TElCurrencyEdit.AdjustEditorPositions
 0001:00116A8C       Elcurredit.TElCurrencyEdit.CMColorChanged
 0001:00116AD0       Elcurredit.TElCurrencyEdit.CMMouseEnter
 0001:00116B38       Elcurredit.TElCurrencyEdit.CMMouseLeave
 0001:00116BA0       Elcurredit.TElCurrencyEdit.CMEnabledChanged
 0001:00116BF0       Elcurredit.TElCurrencyEdit.CMFontChanged
 0001:00116C24       Elcurredit.TElCurrencyEdit.CMSysColorChange
 0001:00116C78       Elcurredit.TElCurrencyEdit.WMEraseBkgnd
 0001:00116C94       Elcurredit.TElCurrencyEdit.WMNCPaint
 0001:00116D38       Elcurredit.TElCurrencyEdit.WMSetFocus
 0001:00116DD4       Elcurredit.TElCurrencyEdit.WMKillFocus
 0001:00116E20       Elcurredit.TElCurrencyEdit.WMSize
 0001:00116E48       Elcurredit.TElCurrencyEdit.CreateWindowHandle
 0001:00116EB8       Elcurredit.TElCurrencyEdit.FindPart
 0001:00116F00       Elcurredit.TElCurrencyEdit.OnEditorChange
 0001:00117240       Elcurredit.TElCurrencyEdit.OnEditorEnter
 0001:00117250       Elcurredit.TElCurrencyEdit.OnEditorExit
 0001:001173EC       Elcurredit.TElCurrencyEdit.OnEditorKeyDown
 0001:00117418       Elcurredit.TElCurrencyEdit.OnEditorPoint
 0001:00117448       Elcurredit.TElCurrencyEdit.CreateParams
 0001:001174B0       Elcurredit.TElCurrencyEdit.SetInactiveBorderType
 0001:00117500       Elcurredit.TElCurrencyEdit.SetActiveBorderType
 0001:00117550       Elcurredit.TElCurrencyEdit.SetFlat
 0001:001175A4       Elcurredit.TElCurrencyEdit.SetBorderStyle
 0001:001175E4       Elcurredit.TElCurrencyEdit.SetModified
 0001:0011761C       Elcurredit.TElCurrencyEdit.DoMouseEnter
 0001:00117648       Elcurredit.TElCurrencyEdit.DoMouseLeave
 0001:00117674       Elcurredit.TElCurrencyEdit.UpdateFrame
 0001:001176F0       Elcurredit.TElCurrencyEdit.OnEditorLeftPoint
 0001:00117720       Elcurredit.TElCurrencyEdit.UpdatePartsWidth
 0001:001178E0       Elcurredit.TElCurrencyEdit.Loaded
 0001:001178FC       Elcurredit.TElCurrencyEdit.FracValue
 0001:001179E0       Elcurredit.TElCurrencyEdit.SetDecimalPlaces
 0001:00117A1C       Elcurredit.TElCurrencyEdit.SetUseSystemDecimalPlaces
 0001:00117A5C       Elcurredit.TElCurrencyEdit.StoreDecimalPlaces
 0001:00117A7C       Elcurredit.TElCurrencyEdit.DoOnChange
 0001:00117AA8       Elcurredit.TElCurrencyEdit.SetCurrencySymbol
 0001:00117AF8       Elcurredit.TElCurrencyEdit.SetUseSystemCurrencySymbol
 0001:00117C1C       Elcurredit.TElCurrencyEdit.StoreCurrencySymbol
 0001:00117C3C       Elcurredit.TElCurrencyEdit.SetCurrencySymbolPosition
 0001:00117C7C       Elcurredit.TElCurrencyEdit.CMWinIniChange
 0001:00117CF4       Elcurredit.TElCurrencyEdit.GetButtonCaption
 0001:00117D24       Elcurredit.TElCurrencyEdit.GetButtonColor
 0001:00117D4C       Elcurredit.TElCurrencyEdit.GetButtonDown
 0001:00117D78       Elcurredit.TElCurrencyEdit.GetButtonEnabled
 0001:00117DA0       Elcurredit.TElCurrencyEdit.GetButtonFlat
 0001:00117DCC       Elcurredit.TElCurrencyEdit.GetButtonVisible
 0001:00117DF4       Elcurredit.TElCurrencyEdit.GetButtonWidth
 0001:00117E1C       Elcurredit.TElCurrencyEdit.GetButtonUseIcon
 0001:00117E48       Elcurredit.TElCurrencyEdit.GetButtonGlyph
 0001:00117E70       Elcurredit.TElCurrencyEdit.GetButtonHint
 0001:00117EA0       Elcurredit.TElCurrencyEdit.GetButtonIcon
 0001:00117EC8       Elcurredit.TElCurrencyEdit.GetButtonNumGlyphs
 0001:00117EF4       Elcurredit.TElCurrencyEdit.GetButtonPopupPlace
 0001:00117F20       Elcurredit.TElCurrencyEdit.GetButtonPullDownMenu
 0001:00117F4C       Elcurredit.TElCurrencyEdit.GetButtonUseImageList
 0001:00117F74       Elcurredit.TElCurrencyEdit.GetOnButtonClick
 0001:00117FA8       Elcurredit.TElCurrencyEdit.SetButtonCaption
 0001:00118004       Elcurredit.TElCurrencyEdit.SetButtonColor
 0001:0011802C       Elcurredit.TElCurrencyEdit.SetButtonDown
 0001:00118054       Elcurredit.TElCurrencyEdit.SetButtonEnabled
 0001:0011807C       Elcurredit.TElCurrencyEdit.SetButtonFlat
 0001:001180A8       Elcurredit.TElCurrencyEdit.SetButtonVisible
 0001:001180F0       Elcurredit.TElCurrencyEdit.SetButtonWidth
 0001:0011814C       Elcurredit.TElCurrencyEdit.SetButtonUseIcon
 0001:00118178       Elcurredit.TElCurrencyEdit.SetButtonGlyph
 0001:001181A0       Elcurredit.TElCurrencyEdit.SetButtonHint
 0001:00118208       Elcurredit.TElCurrencyEdit.SetButtonIcon
 0001:00118230       Elcurredit.TElCurrencyEdit.SetButtonNumGlyphs
 0001:00118258       Elcurredit.TElCurrencyEdit.SetButtonPopupPlace
 0001:00118280       Elcurredit.TElCurrencyEdit.SetButtonPullDownMenu
 0001:001182A8       Elcurredit.TElCurrencyEdit.SetButtonUseImageList
 0001:001182D4       Elcurredit.TElCurrencyEdit.SetOnButtonClick
 0001:00118300       Elcurredit.TElCurrencyEdit.ButtonClickTransfer
 0001:0011835C       Elcurredit.TElCurrencyEdit.GetButtonDisabledImages
 0001:00118388       Elcurredit.TElCurrencyEdit.GetButtonDownImages
 0001:001183B4       Elcurredit.TElCurrencyEdit.GetButtonHotImages
 0001:001183E0       Elcurredit.TElCurrencyEdit.GetButtonImageList
 0001:0011840C       Elcurredit.TElCurrencyEdit.GetButtonImageIndex
 0001:00118434       Elcurredit.TElCurrencyEdit.SetButtonDisabledImages
 0001:0011845C       Elcurredit.TElCurrencyEdit.SetButtonDownImages
 0001:00118484       Elcurredit.TElCurrencyEdit.SetButtonHotImages
 0001:001184AC       Elcurredit.TElCurrencyEdit.SetButtonImageList
 0001:001184D8       Elcurredit.TElCurrencyEdit.SetButtonImageIndex
 0001:00118504       Elcurredit.TElCurrencyEdit.SetEnableSign
 0001:00118558       Elcurredit.TElCurrencyEdit.SetBorderSides
 0001:00118598       Elcurredit.TElCurrencyEdit.WMNCCalcSize
 0001:00118648       Elcurredit.TElCurrencyEdit.GetSignValue
 0001:0011868C       Elcurredit.TElCurrencyEdit.SetSign
 0001:001186D8       Elcurredit.TElCurrencyEdit.SetSignValue
 0001:00118730       Elcurredit.TElCurrencyEdit.SetAutoSelect
 0001:00118774       Elcurredit.TElCurrencyEdit.GetAutoSelect
 0001:00118798       Elcurredit.TElCurrencyEdit.SetNegativeSignColor
 0001:001187D8       Elcurredit.TElCurrencyEdit.SetNegativeValueTextColor
 0001:00118818       Elcurredit.TElCurrencyEdit.SetupPartsFont
 0001:001188F4       Elcurredit.TElCurrencyEdit.GetReadOnly
 0001:00118918       Elcurredit.TElCurrencyEdit.SetReadOnly
 0001:00118950       Elcurredit.TElCurrencyEdit.OnEditorClick
 0001:00118970       Elcurredit.TElCurrencyEdit.OnEditorDblClick
 0001:00118990       Elcurredit.TElCurrencyEdit.OnEditorEndDrag
 0001:001189C0       Elcurredit.TElCurrencyEdit.OnEditorKeyUp
 0001:001189EC       Elcurredit.TElCurrencyEdit.OnEditorMouseDown
 0001:00118A20       Elcurredit.TElCurrencyEdit.OnEditorMouseMove
 0001:00118A50       Elcurredit.TElCurrencyEdit.OnEditorMouseUp
 0001:00118A84       Elcurredit.TElCurrencyEdit.OnEditorStartDrag
 0001:00118AA8       Elcurredit.TElCurrencyEdit.OnEditorKeyPress
 0001:00118ACC       Elcurredit.TElCurrencyEdit.OnEditorDragDrop
 0001:00118AFC       Elcurredit.TElCurrencyEdit.OnEditorDragOver
 0001:00118B34       Elcurredit.TElCurrencyEdit.GetThemedClassName
 0001:00118B64       Elcurredit.TElCurrencyEdit.CMCtl3DChanged
 0001:00118B88       Elcurredit.TElCurrencyEdit.SetLineBorderActiveColor
 0001:00118BF0       Elcurredit.TElCurrencyEdit.SetLineBorderInactiveColor
 0001:00118C58       Elcurredit.TElCurrencyEdit.CMHintShow
 0001:00118E00       Elcurredit.TElCurrencyEdit.SetHint
 0001:00118F38       Elcurredit.TElCurrencyEdit.SetChangeDisabledText
 0001:00118F88       ElCurrEdit._16524
 0001:00118FBC       ElCurrEdit._16525
 0001:00118FEC       ElCurrEdit._16526
 0001:00119008       Elcurredit.Finalization
 0001:00119038       Elcurredit.initialization
 0001:001190E0       Eldtpick.TElDateTimePicker
 0001:0011A068       Eldtpick.TElDateTimePicker.IncValue
 0001:0011A8C0       Eldtpick.TElDateTimePicker.SetBorderStyle
 0001:0011A8F4       Eldtpick.TElDateTimePicker.UpdatePart
 0001:0011A9C8       Eldtpick.TElDateTimePicker.UpdateText
 0001:0011B41C       ElDTPick._16392
 0001:0011B460       Eldtpick.TElDateTimePicker.ParseFormat
 0001:0011BE70       Eldtpick.TElDateTimePicker.GetStdFormat
 0001:0011BF20       Eldtpick.TElDateTimePicker.SetFormat
 0001:0011BFFC       Eldtpick.TElDateTimePicker.SetFormatStr
 0001:0011C110       Eldtpick.TElDateTimePicker.SetAlignment
 0001:0011C14C       Eldtpick.TElDateTimePicker.SetDate
 0001:0011C198       Eldtpick.TElDateTimePicker.GetDate
 0001:0011C1C4       Eldtpick.TElDateTimePicker.SetTime
 0001:0011C210       Eldtpick.TElDateTimePicker.GetTime
 0001:0011C234       Eldtpick.TElDateTimePicker.SetDateTime
 0001:0011C2B8       Eldtpick.TElDateTimePicker.GetCheckDims
 0001:0011C2E4       Eldtpick.TElDateTimePicker.GetCheckWidth
 0001:0011C314       Eldtpick.TElDateTimePicker.GetBtnWidth
 0001:0011C384       Eldtpick.TElDateTimePicker.DoDropDown
 0001:0011C3B0       Eldtpick.TElDateTimePicker.CloseUp
 0001:0011C488       ElDTPick._16408
 0001:0011C5EC       ElDTPick._16409
 0001:0011C618       ElDTPick._16410
 0001:0011C774       ElDTPick._16411
 0001:0011C7A0       ElDTPick._16412
 0001:0011C7D8       ElDTPick._16413
 0001:0011C810       ElDTPick._16414
 0001:0011C840       Eldtpick.TElDateTimePicker.DropDown
 0001:0011C990       Eldtpick.TElDateTimePicker.SetEditRect
 0001:0011CB6C       Eldtpick.TElDateTimePicker.DrawFlatBorder
 0001:0011CD64       Eldtpick.TElDateTimePicker.RedoTmpBmp
 0001:0011CE68       Eldtpick.TElDateTimePicker.CMMouseEnter
 0001:0011CEFC       Eldtpick.TElDateTimePicker.SetGradientStartColor
 0001:0011CF48       Eldtpick.TElDateTimePicker.SetGradientEndColor
 0001:0011CF94       Eldtpick.TElDateTimePicker.SetGradientSteps
 0001:0011CFE4       Eldtpick.TElDateTimePicker.SetBackground
 0001:0011D034       Eldtpick.TElDateTimePicker.SetBackgroundType
 0001:0011D09C       Eldtpick.TElDateTimePicker.ImageChange
 0001:0011D0FC       Eldtpick.TElDateTimePicker.ImageFormChange
 0001:0011D114       Eldtpick.TElDateTimePicker.SetTransparent
 0001:0011D17C       Eldtpick.TElDateTimePicker.SetImageForm
 0001:0011D214       Eldtpick.TElDateTimePicker.CMMouseLeave
 0001:0011D2A8       Eldtpick.TElDateTimePicker.CMSysColorChange
 0001:0011D2CC       Eldtpick.TElDateTimePicker.CMFontChanged
 0001:0011D31C       Eldtpick.TElDateTimePicker.CMCtl3DChanged
 0001:0011D340       Eldtpick.TElDateTimePicker.SetActiveBorderType
 0001:0011D398       Eldtpick.TElDateTimePicker.SetInactiveBorderType
 0001:0011D3F0       Eldtpick.TElDateTimePicker.SetNavigationInPopup
 0001:0011D4AC       Eldtpick.TElDateTimePicker.SetFlat
 0001:0011D520       Eldtpick.TElDateTimePicker.WMSize
 0001:0011D554       Eldtpick.TElDateTimePicker.CalBtnClick
 0001:0011D570       Eldtpick.TElDateTimePicker.SpinUpClick
 0001:0011D5F4       Eldtpick.TElDateTimePicker.SpinDownClick
 0001:0011D678       Eldtpick.TElDateTimePicker.WMSysKeyDown
 0001:0011D714       Eldtpick.TElDateTimePicker.KeyDown
 0001:0011E5E0       Eldtpick.TElDateTimePicker.OnDTFPartDelete
 0001:0011E608       Eldtpick.TElDateTimePicker.UpdateFrame
 0001:0011E654       Eldtpick.TElDateTimePicker.Loaded
 0001:0011E7C8       Eldtpick.TElDateTimePicker.CreateParams
 0001:0011E860       Eldtpick.TElDateTimePicker.Paint
 0001:0011F010       Eldtpick.TElDateTimePicker.WMPaint
 0001:0011F1C4       Eldtpick.TElDateTimePicker.Notification
 0001:0011F204       Eldtpick.TElDateTimePicker.MouseDown
 0001:0011F3AC       Eldtpick.TElDateTimePicker.WMNCPaint
 0001:0011F458       Eldtpick.TElDateTimePicker.WMSetFocus
 0001:0011F51C       Eldtpick.TElDateTimePicker.WMKillFocus
 0001:0011F5C4       Eldtpick.TElDateTimePicker.InvalidateEdit
 0001:0011F620       Eldtpick.TElDateTimePicker.WMEraseBkgnd
 0001:0011F63C       Eldtpick.TElDateTimePicker.WMGetDlgCode
 0001:0011F6A0       Eldtpick.TElDateTimePicker.TriggerChangeEvent
 0001:0011F6CC       Eldtpick.TElDateTimePicker.CreateWindowHandle
 0001:0011F77C       Eldtpick.TElDateTimePicker.CMCancelMode
 0001:0011F7C8       Eldtpick.TElDateTimePicker.CalendarChange
 0001:0011F7E8       Eldtpick.TElDateTimePicker.CalendarKeyDown
 0001:0011F824       Eldtpick.TElDateTimePicker.SetShowPopupCalendar
 0001:0011F86C       Eldtpick.TElDateTimePicker
 0001:0011F938       Eldtpick.TElDateTimePicker.CalendarDeactivate
 0001:0011F958       Eldtpick.TElDateTimePicker.TuneupCalendarControls
 0001:0011F9C4       Eldtpick.TElDateTimePicker.DblClick
 0001:0011FA5C       Eldtpick.TElDateTimePicker.SetDroppedDown
 0001:0011FA88       Eldtpick.TElDateTimePicker.GetDroppedDown
 0001:0011FAA8       Eldtpick.TElDateTimePicker.SetShowCheckBox
 0001:0011FB60       Eldtpick.TElDateTimePicker.SetModified
 0001:0011FBA4       Eldtpick.TElDateTimePicker.SetChecked
 0001:0011FC30       Eldtpick.TElDateTimePicker.CMEnabledChanged
 0001:0011FCB8       Eldtpick.TElDateTimePicker
 0001:00120274       Eldtpick.TElDateTimePicker.SetCalendarLineColorLight
 0001:0012029C       Eldtpick.TElDateTimePicker.SetCalendarLineColorDark
 0001:001202C4       Eldtpick.TElDateTimePicker.GetCalendarLineColorDark
 0001:001202EC       Eldtpick.TElDateTimePicker.GetCalendarLineColorLight
 0001:00120314       Eldtpick.TElDateTimePicker.SetCalendarBackColor
 0001:0012033C       Eldtpick.TElDateTimePicker.GetCalendarBackColor
 0001:00120364       Eldtpick.TElDateTimePicker.GetStartOfWeek
 0001:0012038C       Eldtpick.TElDateTimePicker.SetStartOfWeek
 0001:001203B4       Eldtpick.TElDateTimePicker.GetWeekEndDays
 0001:001203DC       Eldtpick.TElDateTimePicker.SetWeekEndDays
 0001:00120404       Eldtpick.TElDateTimePicker.GetUseSystemStartOfWeek
 0001:0012042C       Eldtpick.TElDateTimePicker.SetUseSystemStartOfWeek
 0001:00120454       Eldtpick.TElDateTimePicker.TriggerCheckboxChangeEvent
 0001:00120480       Eldtpick.TElDateTimePicker.GetCalendarUseLineColors
 0001:001204A8       Eldtpick.TElDateTimePicker.SetCalendarUseLineColors
 0001:001204D0       Eldtpick.TElDateTimePicker.GetCalendarWeekendColor
 0001:001204F8       Eldtpick.TElDateTimePicker.SetCalendarWeekendColor
 0001:00120520       Eldtpick.TElDateTimePicker.SetBorderSides
 0001:00120560       Eldtpick.TElDateTimePicker.WMNCCalcSize
 0001:00120610       Eldtpick.TElDateTimePicker.StoreStartOfWeek
 0001:00120630       Eldtpick.TElDateTimePicker.GetCalendarCurrentDayBorder
 0001:00120658       Eldtpick.TElDateTimePicker.SetCalendarCurrentDayBorder
 0001:00120680       Eldtpick.TElDateTimePicker.GetCalendarDayCellBorder
 0001:001206A8       Eldtpick.TElDateTimePicker.SetCalendarDayCellBorder
 0001:001206D0       Eldtpick.TElDateTimePicker.GetCalendarSelectionBorder
 0001:001206F8       Eldtpick.TElDateTimePicker.SetCalendarSelectionBorder
 0001:00120720       Eldtpick.TElDateTimePicker.IFMRepaintChildren
 0001:00120750       Eldtpick.TElDateTimePicker.WMWindowPosChanged
 0001:0012077C       Eldtpick.TElDateTimePicker.DrawFlatFrame
 0001:00120888       Eldtpick.TElDateTimePicker.SetMinDate
 0001:00120914       Eldtpick.TElDateTimePicker.SetMaxDate
 0001:00120980       Eldtpick.TElDateTimePicker.DoSetDateTime
 0001:001209F4       Eldtpick.TElDateTimePicker.GetThemedClassName
 0001:00120A24       Eldtpick.TElDateTimePicker.SetUseXPThemes
 0001:00120A70       Eldtpick.TElDateTimePicker.GetButtonDir
 0001:00120A94       Eldtpick.TElDateTimePicker.SetButtonDir
 0001:00120AB8       Eldtpick.TElDateTimePicker.GetButtonType
 0001:00120ADC       Eldtpick.TElDateTimePicker.SetButtonType
 0001:00120B00       Eldtpick.TElDateTimePicker.SetButtonWidth
 0001:00120B4C       Eldtpick.TElDateTimePicker.SetLineBorderActiveColor
 0001:00120BBC       Eldtpick.TElDateTimePicker.SetLineBorderInactiveColor
 0001:00120C2C       Eldtpick.TElDateTimePicker.UpdateButtonStyles
 0001:00120D18       Eldtpick.TElDateTimePicker.SetButtonVisible
 0001:00120D54       Eldtpick.TElDateTimePicker.SetUnassigned
 0001:00120D90       Eldtpick.TElDateTimePicker.SetUnassignedColor
 0001:00120DE0       Eldtpick.TElDateTimePicker.SetUnassignedAllowed
 0001:00120E2C       Eldtpick.TElDateTimePicker.GetReadOnly
 0001:00120E48       Eldtpick.TElDateTimePicker.SetReadOnly
 0001:00120E74       Eldtpick.TElDateTimePicker.SetButtonShowOnFocus
 0001:00120ECC       Eldtpick.TElDateTimePicker.IsDateTimeStored
 0001:00120EEC       Eldtpick.TElDateTimePicker.SetButtonThinFrame
 0001:00120F2C       Eldtpick.TElDateTimePicker.SetAutoSize
 0001:00120F60       Eldtpick.TElDateTimePicker.AdjustHeight
 0001:00120FFC       Eldtpick.TElDateTimePicker.UpdateHeight
 0001:00121054       Eldtpick.TElDateTimePicker.CreateWnd
 0001:00121070       Eldtpick.TElDateTimePicker.CMHintShow
 0001:00121218       Eldtpick.TElDateTimePicker.SetHint
 0001:00121350       Eldtpick.TElDateTimePicker.GetUnassignedChar
 0001:00121374       Eldtpick.TElDateTimePicker.SetUnassignedChar
 0001:00121400       Eldtpick.TElDateTimePicker.MakeUnassignedString
 0001:00121468       Eldtpick.TElDateTimePicker.SetChangeDisabledText
 0001:001214A8       ElDTPick._16536
 0001:001214E0       ElDTPick._16537
 0001:00121510       ElDTPick._16538
 0001:0012156C       Eldtpick.Finalization
 0001:0012159C       Eldtpick.initialization
 0001:001215A4       Elstrpool.TElStringPool
 0001:0012167C       Elstrpool.TElStringPool
 0001:001216D8       Elstrpool.TElStringPool
 0001:00121714       Elstrpool.TElStringPool.Assign
 0001:00121754       Elstrpool.TElStringPool.SetItems
 0001:00121774       Elstrpool.Finalization
 0001:001217A4       Elstrpool.initialization
 0001:001217AC       Elhtmllbl.TElHTMLLabel
 0001:00121F6C       Elhtmllbl.TElHTMLLabel.AdjustBounds
 0001:00121FDC       Elhtmllbl.TElHTMLLabel.SetIsHTML
 0001:00122178       Elhtmllbl.TElHTMLLabel.DoDrawText
 0001:0012233C       Elhtmllbl.TElHTMLLabel.Paint
 0001:001224EC       Elhtmllbl.TElHTMLLabel.TriggerLinkClickEvent
 0001:00122554       Elhtmllbl.TElHTMLLabel.TriggerImageNeededEvent
 0001:001225CC       Elhtmllbl.TElHTMLLabel.Loaded
 0001:00122604       Elhtmllbl.TElHTMLLabel.CMTextChanged
 0001:00122644       Elhtmllbl.TElHTMLLabel.CMMouseLeave
 0001:00122674       Elhtmllbl.TElHTMLLabel.SetCursor
 0001:00122774       Elhtmllbl.TElHTMLLabel.MouseMove
 0001:00122854       Elhtmllbl.TElHTMLLabel.CMFontChanged
 0001:00122894       Elhtmllbl.TElHTMLLabel.Click
 0001:00122974       Elhtmllbl.TElHTMLLabel.GetWordWrap
 0001:00122990       Elhtmllbl.TElHTMLLabel.SetWordWrap
 0001:001229E0       Elhtmllbl.TElHTMLLabel.GetTextRect
 0001:00122AB8       Elhtmllbl.TElHTMLLabel.SetAutoSize
 0001:00122B20       Elhtmllbl.TElHTMLLabel
 0001:00122B60       Elhtmllbl.TElHTMLLabel
 0001:00122BF4       Elhtmllbl.TElHTMLLabel.SetCaption
 0001:00122C90       Elhtmllbl.TElHTMLLabel.SetBounds
 0001:00122CF0       Elhtmllbl.TElHTMLLabel.SetLinkColor
 0001:00122D40       Elhtmllbl.TElHTMLLabel.SetLinkPopupMenu
 0001:00122D98       Elhtmllbl.TElHTMLLabel.SetLinkStyle
 0001:00122DE8       Elhtmllbl.TElHTMLLabel.Notification
 0001:00122E28       Elhtmllbl.TElHTMLLabel.WMRButtonUp
 0001:00122E44       Elhtmllbl.TElHTMLLabel.DoLinkPopup
 0001:00122EC8       Elhtmllbl.TElHTMLLabel.WMContextMenu
 0001:00122FFC       Elhtmllbl.TElHTMLLabel.CalcTextRect
 0001:0012310C       Elhtmllbl.TElHTMLLabel.CMHintShow
 0001:001232B4       Elhtmllbl.TElHTMLLabel.SetHint
 0001:001233EC       Elhtmllbl.TElHTMLLabel.SetName
 0001:001234C0       Elhtmllbl.Finalization
 0001:001234F0       Elhtmllbl.initialization
 0001:001234F8       Elgroupbox.TCustomElGroupBox
 0001:00123728       Elgroupbox.TElGroupBox
 0001:00124130       Elgroupbox.TCustomElGroupBox
 0001:00124208       Elgroupbox.TCustomElGroupBox
 0001:00124288       Elgroupbox.TCustomElGroupBox.FlipChildren
 0001:00124298       Elgroupbox.TCustomElGroupBox.ReadState
 0001:001242C8       Elgroupbox.TCustomElGroupBox.CanModify
 0001:001242DC       ElGroupBox._16394
 0001:001243B8       Elgroupbox.TCustomElGroupBox.Paint
 0001:0012577C       Elgroupbox.TCustomElGroupBox.WMEraseBkGnd
 0001:001257CC       Elgroupbox.TCustomElGroupBox.SetIsHTML
 0001:0012583C       Elgroupbox.TCustomElGroupBox.SetBorderSides
 0001:0012587C       Elgroupbox.TCustomElGroupBox.GetThemedClassName
 0001:001258B0       Elgroupbox.TCustomElGroupBox.SetShowCheckBox
 0001:001258E4       Elgroupbox.TCustomElGroupBox.SetCheckBoxChecked
 0001:001259A0       Elgroupbox.TCustomElGroupBox.SetShowFocus
 0001:001259D4       Elgroupbox.TCustomElGroupBox.SetCaptionColor
 0001:00125A08       Elgroupbox.TCustomElGroupBox.SetCheckSound
 0001:00125A70       Elgroupbox.TCustomElGroupBox.SetGlyph
 0001:00125A94       Elgroupbox.TCustomElGroupBox.SetImages
 0001:00125B6C       Elgroupbox.TCustomElGroupBox.SetSoundMap
 0001:00125BD0       Elgroupbox.TCustomElGroupBox.SetUseCustomGlyphs
 0001:00125C10       Elgroupbox.TCustomElGroupBox.SetUseImageList
 0001:00125C50       Elgroupbox.TCustomElGroupBox.ImagesChanged
 0001:00125C80       Elgroupbox.TCustomElGroupBox.Notification
 0001:00125CE0       Elgroupbox.TCustomElGroupBox.GlyphChange
 0001:00125D04       Elgroupbox.TCustomElGroupBox.GetCheckBoxSize
 0001:00125D6C       Elgroupbox.TCustomElGroupBox.DrawGlyph
 0001:00125DD4       Elgroupbox.TCustomElGroupBox.SetFlat
 0001:00125E14       Elgroupbox.TCustomElGroupBox.DrawFlatFrame
 0001:00125F54       Elgroupbox.TCustomElGroupBox.CMMouseLeave
 0001:00125FC0       Elgroupbox.TCustomElGroupBox.MouseDown
 0001:0012603C       Elgroupbox.TCustomElGroupBox.MouseUp
 0001:00126118       Elgroupbox.TCustomElGroupBox.CMEnter
 0001:00126148       Elgroupbox.TCustomElGroupBox.CMExit
 0001:0012619C       Elgroupbox.TCustomElGroupBox.MouseMove
 0001:00126284       Elgroupbox.TCustomElGroupBox.KeyDown
 0001:00126310       Elgroupbox.TCustomElGroupBox.AdjustClientRect
 0001:00126374       Elgroupbox.TCustomElGroupBox.GetTopOffset
 0001:001265F8       Elgroupbox.TCustomElGroupBox.SetFlatAlways
 0001:00126624       Elgroupbox.TCustomElGroupBox.GetCaptionRect
 0001:001269E8       Elgroupbox.TCustomElGroupBox.GetCheckRect
 0001:00126F48       Elgroupbox.TCustomElGroupBox.GetLineTopOffset
 0001:001270B0       Elgroupbox.TCustomElGroupBox.CMEnabledChanged
 0001:001270D4       Elgroupbox.TCustomElGroupBox.SetAutoDisableChildren
 0001:00127168       Elgroupbox.TCustomElGroupBox.SetMoneyFlat
 0001:0012719C       Elgroupbox.TCustomElGroupBox.SetMoneyFlatInactiveColor
 0001:001271DC       Elgroupbox.TCustomElGroupBox.SetMoneyFlatActiveColor
 0001:0012721C       Elgroupbox.TCustomElGroupBox.SetMoneyFlatDownColor
 0001:0012725C       Elgroupbox.TCustomElGroupBox.GetMoneyFlat
 0001:00127278       Elgroupbox.Finalization
 0001:001272A8       Elgroupbox.initialization
 0001:001272B0       Elfileutils.GetWideCurrentDir
 0001:001272E4       Elfileutils.SetWideCurrentDir
 0001:0012730C       Elfileutils.CreateWideDir
 0001:00127338       Elfileutils.RemoveWideDir
 0001:00127360       Elfileutils.GetWideModuleName
 0001:00127398       Elfileutils.Finalization
 0001:001273C8       Elfileutils.initialization
 0001:001273D0       Elscrollbox.TElScrollBox
 0001:001277D8       ElScrollBox._16387
 0001:001278F8       ElScrollBox._16388
 0001:00127928       Elscrollbox.TElScrollBox.SetActiveBorderType
 0001:0012797C       Elscrollbox.TElScrollBox.SetBackground
 0001:001279A0       Elscrollbox.TElScrollBox.SetBorderSides
 0001:001279E0       Elscrollbox.TElScrollBox.SetFlat
 0001:00127A20       Elscrollbox.TElScrollBox.SetFlatFocusedScrollBars
 0001:00127A68       Elscrollbox.TElScrollBox.SetImageForm
 0001:00127B18       Elscrollbox.TElScrollBox.SetInactiveBorderType
 0001:00127B6C       Elscrollbox.TElScrollBox.SetLineBorderActiveColor
 0001:00127BD4       Elscrollbox.TElScrollBox.SetLineBorderInactiveColor
 0001:00127C3C       Elscrollbox.TElScrollBox.SetUseBackground
 0001:00127C80       Elscrollbox.TElScrollBox.SetUseXPThemes
 0001:00127CC4       Elscrollbox.TElScrollBox.BackgroundChanged
 0001:00127CF0       Elscrollbox.TElScrollBox.CMMouseEnter
 0001:00127D6C       Elscrollbox.TElScrollBox.CMMouseLeave
 0001:00127DE8       Elscrollbox.TElScrollBox.CreateThemeHandle
 0001:00127E7C       Elscrollbox.TElScrollBox.CreateWnd
 0001:00127EC0       Elscrollbox.TElScrollBox.DestroyWnd
 0001:00127EF8       Elscrollbox.TElScrollBox.DrawBackground
 0001:00127FC0       Elscrollbox.TElScrollBox.DrawFlatBorder
 0001:00128294       Elscrollbox.TElScrollBox.DrawParentControl
 0001:00128358       Elscrollbox.TElScrollBox.FreeThemeHandle
 0001:0012838C       Elscrollbox.TElScrollBox.GetThemedClassName
 0001:001283BC       Elscrollbox.TElScrollBox.IsThemeApplied
 0001:001283F0       Elscrollbox.TElScrollBox.WMEraseBkgnd
 0001:00128570       Elscrollbox.TElScrollBox.WMKillFocus
 0001:001285D0       Elscrollbox.TElScrollBox.WMNCCalcSize
 0001:00128714       Elscrollbox.TElScrollBox.WMNCPaint
 0001:00128948       Elscrollbox.TElScrollBox.WMPaint
 0001:001289CC       Elscrollbox.TElScrollBox.WMSetFocus
 0001:00128A2C       Elscrollbox.TElScrollBox.WMThemeChanged
 0001:00128AA4       Elscrollbox.TElScrollBox
 0001:00128BD0       Elscrollbox.TElScrollBox
 0001:00128C28       Elscrollbox.TElScrollBox.DoMouseEnter
 0001:00128C54       Elscrollbox.TElScrollBox.DoMouseLeave
 0001:00128C80       Elscrollbox.TElScrollBox.DoPaint
 0001:00128E8C       Elscrollbox.TElScrollBox.IFMRepaintChildren
 0001:00128F14       Elscrollbox.TElScrollBox.ImageFormChange
 0001:00128F2C       Elscrollbox.TElScrollBox.WMWindowPosChanged
 0001:00128F64       Elscrollbox.TElScrollBox.CreateParams
 0001:00128FCC       Elscrollbox.TElScrollBox.CMHintShow
 0001:00129174       Elscrollbox.TElScrollBox.DrawThemedBackground
 0001:001291D8       Elscrollbox.TElScrollBox.SetHint
 0001:00129310       Elscrollbox.Finalization
 0001:00129340       Elscrollbox.initialization
 0001:0012939C       Ellistbox.TElListBoxStrings
 0001:001294B0       Ellistbox.TCustomElListBox
 0001:0012972C       Ellistbox.TElListBox
 0001:0012A3DC       ElListBox._16391
 0001:0012A4FC       ElListBox._16392
 0001:0012A528       ElListBox._16393
 0001:0012A674       ElListBox._16394
 0001:0012A6A4       Ellistbox.TCustomElListBox
 0001:0012A8E4       Ellistbox.TCustomElListBox
 0001:0012A980       Ellistbox.TCustomElListBox.GetBackground
 0001:0012A99C       Ellistbox.TCustomElListBox.SetActiveBorderType
 0001:0012A9F4       Ellistbox.TCustomElListBox.SetBackground
 0001:0012AA18       Ellistbox.TCustomElListBox.SetBorderSides
 0001:0012AA58       Ellistbox.TCustomElListBox.SetFlat
 0001:0012AA8C       Ellistbox.TCustomElListBox.SetFlatFocusedScrollBars
 0001:0012AAD8       Ellistbox.TCustomElListBox.SetHorizontalScroll
 0001:0012AB18       Ellistbox.TCustomElListBox.SetImageForm
 0001:0012ABC8       Ellistbox.TCustomElListBox.SetInactiveBorderType
 0001:0012AC20       Ellistbox.TCustomElListBox.SetInvertSelection
 0001:0012AC78       Ellistbox.TCustomElListBox.SetLineBorderActiveColor
 0001:0012ACD4       Ellistbox.TCustomElListBox.SetLineBorderInactiveColor
 0001:0012AD30       Ellistbox.TCustomElListBox.SetSelectedColor
 0001:0012AD88       Ellistbox.TCustomElListBox.SetSelectedFont
 0001:0012ADAC       Ellistbox.TCustomElListBox.SetTransparent
 0001:0012ADF0       Ellistbox.TCustomElListBox.SetTransparentSelection
 0001:0012AE30       Ellistbox.TCustomElListBox.SetUseBackground
 0001:0012AE64       Ellistbox.TCustomElListBox.SetUseXPThemes
 0001:0012AEA8       Ellistbox.TCustomElListBox.BackgroundChanged
 0001:0012AEC0       Ellistbox.TCustomElListBox.CancelLineHint
 0001:0012AF0C       Ellistbox.TCustomElListBox.CMFontChanged
 0001:0012AF6C       Ellistbox.TCustomElListBox.CMMouseEnter
 0001:0012AFEC       Ellistbox.TCustomElListBox.CMMouseLeave
 0001:0012B06C       Ellistbox.TCustomElListBox.CMParentColorChanged
 0001:0012B09C       Ellistbox.TCustomElListBox.CMParentFontChanged
 0001:0012B154       Ellistbox.TCustomElListBox.CreateHintWindow
 0001:0012B178       Ellistbox.TCustomElListBox.CreateParams
 0001:0012B318       Ellistbox.TCustomElListBox.CreateThemeHandle
 0001:0012B3A8       Ellistbox.TCustomElListBox.CreateWnd
 0001:0012B46C       Ellistbox.TCustomElListBox.DestroyWnd
 0001:0012B4A4       Ellistbox.TCustomElListBox.DrawBackground
 0001:0012B574       Ellistbox.TCustomElListBox.DrawBackgroundEx
 0001:0012B62C       Ellistbox.TCustomElListBox.DrawFlatBorder
 0001:0012B8C0       Ellistbox.TCustomElListBox.DoDrawText
 0001:0012B910       Ellistbox.TCustomElListBox.SetStyle
 0001:0012B944       Ellistbox.TCustomElListBox.DrawItem
 0001:0012C000       Ellistbox.TCustomElListBox.DrawParentControl
 0001:0012C0C4       Ellistbox.TCustomElListBox.DrawParentControlEx
 0001:0012C170       Ellistbox.TCustomElListBox.FreeThemeHandle
 0001:0012C1A4       Ellistbox.TCustomElListBox.GetItemWidth
 0001:0012C2BC       Ellistbox.TCustomElListBox.GetParentCtlHeight
 0001:0012C2E8       Ellistbox.TCustomElListBox.GetParentCtlWidth
 0001:0012C314       Ellistbox.TCustomElListBox.GetThemedClassName
 0001:0012C348       Ellistbox.TCustomElListBox.HintWndProc
 0001:0012C3A4       Ellistbox.TCustomElListBox.IFMRepaintChildren
 0001:0012C42C       Ellistbox.TCustomElListBox.ImageFormChange
 0001:0012C444       Ellistbox.TCustomElListBox.IntMouseMove
 0001:0012C584       Ellistbox.TCustomElListBox.IsThemeApplied
 0001:0012C5B8       Ellistbox.TCustomElListBox.LBGetTopIndex
 0001:0012C634       Ellistbox.TCustomElListBox.Loaded
 0001:0012C650       Ellistbox.TCustomElListBox.Notification
 0001:0012C6B0       Ellistbox.TCustomElListBox.OnLineHintTimer
 0001:0012C954       Ellistbox.TCustomElListBox.RealScreenToClient
 0001:0012C990       Ellistbox.TCustomElListBox.ResetHorizontalExtent
 0001:0012CA00       Ellistbox.TCustomElListBox.SelectedFontChanged
 0001:0012CA1C       Ellistbox.TCustomElListBox.WMEraseBkgnd
 0001:0012CB74       Ellistbox.TCustomElListBox.WMHScroll
 0001:0012CC0C       Ellistbox.TCustomElListBox.WMKillFocus
 0001:0012CC7C       Ellistbox.TCustomElListBox.WMMouseMove
 0001:0012CD18       Ellistbox.TCustomElListBox.WMNCCalcSize
 0001:0012CE5C       Ellistbox.TCustomElListBox.WMNCMouseMove
 0001:0012CEE4       Ellistbox.TCustomElListBox.WMNCPaint
 0001:0012D044       Ellistbox.TCustomElListBox.WMPaint
 0001:0012D2F4       Ellistbox.TCustomElListBox.WMSetFocus
 0001:0012D358       Ellistbox.TCustomElListBox.WMThemeChanged
 0001:0012D3D0       Ellistbox.TCustomElListBox.WMVScroll
 0001:0012D468       Ellistbox.TCustomElListBox.WMWindowPosChanged
 0001:0012D494       Ellistbox.TCustomElListBox.WndProc
 0001:0012D664       Ellistbox.TCustomElListBox.GetItemHeight
 0001:0012D6A8       Ellistbox.TCustomElListBox.GetItemIndex
 0001:0012D6FC       Ellistbox.TCustomElListBox.GetSelCount
 0001:0012D728       Ellistbox.TCustomElListBox.GetSelected
 0001:0012D790       Ellistbox.TCustomElListBox.GetTopIndex
 0001:0012D7BC       Ellistbox.TCustomElListBox.SetBorderStyle
 0001:0012D7F0       Ellistbox.TCustomElListBox.SetColumns
 0001:0012D858       Ellistbox.TCustomElListBox.SetExtendedSelect
 0001:0012D88C       Ellistbox.TCustomElListBox.SetIntegralHeight
 0001:0012D8CC       Ellistbox.TCustomElListBox.SetItemHeight
 0001:0012D904       Ellistbox.TCustomElListBox.SetItemIndex
 0001:0012D964       Ellistbox.TCustomElListBox.SetItems
 0001:0012D988       Ellistbox.TCustomElListBox.SetMultiSelect
 0001:0012D9BC       Ellistbox.TCustomElListBox.SetSelected
 0001:0012DA18       Ellistbox.TCustomElListBox.SetSorted
 0001:0012DA54       Ellistbox.TCustomElListBox.SetTabWidth
 0001:0012DA94       Ellistbox.TCustomElListBox.SetTopIndex
 0001:0012DACC       Ellistbox.TCustomElListBox.InternalGetItemData
 0001:0012DAF4       Ellistbox.TCustomElListBox.InternalSetItemData
 0001:0012DB1C       Ellistbox.TCustomElListBox.ItemAtPos
 0001:0012DBB4       Ellistbox.TCustomElListBox.ItemRect
 0001:0012DC40       Ellistbox.TCustomElListBox.ResetHorizontalExtent1
 0001:0012DCB0       Ellistbox.TCustomElListBox.SetHorizontalExtent
 0001:0012DCDC       Ellistbox.TCustomElListBox.SetColumnWidth
 0001:0012DD48       Ellistbox.TCustomElListBox.GetItemData
 0001:0012DD78       Ellistbox.TCustomElListBox.SetItemData
 0001:0012DDA8       Ellistbox.TCustomElListBox.CMCtl3DChanged
 0001:0012DDE4       Ellistbox.TCustomElListBox.CNCommand
 0001:0012DE2C       Ellistbox.TCustomElListBox.CNDrawItem
 0001:0012DF30       Ellistbox.TCustomElListBox.CNMeasureItem
 0001:0012DF70       Ellistbox.TCustomElListBox.MeasureItem
 0001:0012DFAC       Ellistbox.TCustomElListBox.WMLButtonDown
 0001:0012E15C       Ellistbox.TCustomElListBox.WMSize
 0001:0012E180       Ellistbox.TCustomElListBox.ResetContent
 0001:0012E1A4       Ellistbox.TCustomElListBox.DeleteString
 0001:0012E1D0       Ellistbox.TCustomElListBox.SetShowCheckBox
 0001:0012E204       Ellistbox.TCustomElListBox.GetState
 0001:0012E244       Ellistbox.TCustomElListBox.SetState
 0001:0012E2D0       Ellistbox.TCustomElListBox.SetStatesSize
 0001:0012E390       Ellistbox.TCustomElListBox.GetCheckBoxSize
 0001:0012E3F0       Ellistbox.TCustomElListBox.SetAllowGrayed
 0001:0012E470       Ellistbox.TCustomElListBox.DrawFlatFrame
 0001:0012E57C       Ellistbox.TCustomElListBox.OnImageListChange
 0001:0012E5AC       Ellistbox.TCustomElListBox.SetImages
 0001:0012E664       Ellistbox.TCustomElListBox.AdjustItemHeight
 0001:0012E6E4       Ellistbox.TCustomElListBox.SetImagesSize
 0001:0012E7CC       Ellistbox.TCustomElListBox.GetImageIndex
 0001:0012E80C       Ellistbox.TCustomElListBox.SetImageIndex
 0001:0012E898       Ellistbox.TCustomElListBox.CMHintShow
 0001:0012EA40       Ellistbox.TCustomElListBox.SetHint
 0001:0012EB78       Ellistbox.TCustomElListBox.ItemsChange
 0001:0012EB90       Ellistbox.TCustomElListBox.SetUseSelectedFont
 0001:0012EBD0       Ellistbox.TCustomElListBox.SetSelectedFontColor
 0001:0012EC10       Ellistbox.TElListBoxStrings.Add
 0001:0012ECAC       Ellistbox.TElListBoxStrings.Clear
 0001:0012ECD0       Ellistbox.TElListBoxStrings.Delete
 0001:0012ED00       Ellistbox.TElListBoxStrings.Exchange
 0001:0012ED94       Ellistbox.TElListBoxStrings.Get
 0001:0012EDB8       Ellistbox.TElListBoxStrings.GetCount
 0001:0012EDD4       Ellistbox.TElListBoxStrings.GetObject
 0001:0012EDF8       Ellistbox.TElListBoxStrings.IndexOf
 0001:0012EE1C       Ellistbox.TElListBoxStrings.Insert
 0001:0012EEB8       Ellistbox.TElListBoxStrings.Move
 0001:0012EF28       Ellistbox.TElListBoxStrings.Put
 0001:0012EF4C       Ellistbox.TElListBoxStrings.PutObject
 0001:0012EF70       Ellistbox.TElListBoxStrings.SetUpdateState
 0001:0012EFB0       Ellistbox.TElListBoxStrings.ResetBox
 0001:0012F000       Ellistbox.Finalization
 0001:0012F030       Ellistbox.initialization
 0001:0012F064       Elmenus.EMenuError
 0001:0012F22C       Elmenus.THackClass
 0001:0012F2D8       Elmenus.TMenuActionLink
 0001:0012F3AC       Elmenus.TElMenu
 0001:0012F4A8       Elmenus.TElMenuItem
 0001:0012F84C       Elmenus.TElMainMenu
 0001:0012FA60       Elmenus.TElPopupMenu
 0001:0012FC04       ElMenus._16407
 0001:0012FD14       ElMenus._16408
 0001:0012FE2C       ElMenus._16409
 0001:0012FF00       ElMenus._16410
 0001:0012FF8C       Elmenus.GetMenuFont
 0001:0012FFD8       ElMenus._16412
 0001:00130044       ElMenus._16413
 0001:00130170       Elmenus.CopyMenuItems
 0001:00130398       Elmenus.TMenuActionLink.AssignClient
 0001:001303BC       Elmenus.TMenuActionLink.IsCaptionLinked
 0001:00130444       Elmenus.TMenuActionLink.IsCheckedLinked
 0001:0013048C       Elmenus.TMenuActionLink.IsEnabledLinked
 0001:001304D4       Elmenus.TMenuActionLink.IsHelpContextLinked
 0001:0013051C       Elmenus.TMenuActionLink.IsHintLinked
 0001:001305A4       Elmenus.TMenuActionLink.IsImageIndexLinked
 0001:001305F0       Elmenus.TMenuActionLink.IsShortCutLinked
 0001:0013063C       Elmenus.TMenuActionLink.IsVisibleLinked
 0001:00130688       Elmenus.TMenuActionLink.IsOnExecuteLinked
 0001:001306C4       Elmenus.TMenuActionLink.SetCaption
 0001:001306F0       Elmenus.TMenuActionLink.SetChecked
 0001:0013071C       Elmenus.TMenuActionLink.SetEnabled
 0001:00130748       Elmenus.TMenuActionLink.SetHelpContext
 0001:00130774       Elmenus.TMenuActionLink.SetHint
 0001:001307A0       Elmenus.TMenuActionLink.SetImageIndex
 0001:001307CC       Elmenus.TMenuActionLink.SetShortCut
 0001:001307F8       Elmenus.TMenuActionLink.SetVisible
 0001:00130824       Elmenus.TMenuActionLink.SetOnExecute
 0001:00130854       Elmenus.TElMenuItem
 0001:001308D0       Elmenus.TElMenuItem
 0001:001309C8       Elmenus.TElMenuItem.SetSubMenuImages
 0001:00130A44       Elmenus.TElMenuItem.ImageListChange
 0001:00130A6C       ElMenus._16438
 0001:00130AA8       Elmenus.TElMenuItem.UpdateItems
 0001:00130AC8       Elmenus.TElMenuItem.AppendTo
 0001:00130D24       ElMenus._16453
 0001:00130D54       Elmenus.TElMenuItem.PopulateMenu
 0001:00130DA0       Elmenus.TElMenuItem.ReadShortCutText
 0001:00130E00       Elmenus.TElMenuItem.MergeWith
 0001:00130E70       Elmenus.TElMenuItem.Loaded
 0001:00130EBC       Elmenus.TElMenuItem.RebuildHandle
 0001:00130F3C       Elmenus.TElMenuItem.VerifyGroupIndex
 0001:00131000       Elmenus.TElMenuItem.WriteShortCutText
 0001:00131060       Elmenus.TElMenuItem.GetHandle
 0001:00131114       Elmenus.TElMenuItem.DoDrawText
 0001:00131714       ElMenus._16465
 0001:0013175C       Elmenus.TElMenuItem.DrawItem
 0001:001328F4       ElMenus._16468
 0001:00132940       Elmenus.TElMenuItem.MeasureItem
 0001:00132D34       Elmenus.TElMenuItem.HasParent
 0001:00132D48       Elmenus.TElMenuItem.SetBreak
 0001:00132D7C       Elmenus.TElMenuItem.SetCaption
 0001:00132E00       Elmenus.TElMenuItem.TurnSiblingsOff
 0001:00132E88       Elmenus.TElMenuItem.SetChecked
 0001:00132F10       Elmenus.TElMenuItem.SetEnabled
 0001:00133080       Elmenus.TElMenuItem.SetGroupIndex
 0001:001330FC       Elmenus.TElMenuItem.GetAction
 0001:00133130       Elmenus.TElMenuItem.GetActionLinkClass
 0001:00133148       Elmenus.TElMenuItem.GetCount
 0001:0013317C       Elmenus.TElMenuItem.GetItem
 0001:001331E8       Elmenus.TElMenuItem.SetShortCut
 0001:00133224       Elmenus.TElMenuItem.SetVisible
 0001:00133258       Elmenus.TElMenuItem.SetImageIndex
 0001:0013328C       Elmenus.TElMenuItem.GetMenuIndex
 0001:001332C4       Elmenus.TElMenuItem.SetMenuIndex
 0001:00133340       Elmenus.TElMenuItem.GetChildren
 0001:00133388       Elmenus.TElMenuItem.SetChildOrder
 0001:001333B4       Elmenus.TElMenuItem.SetDefault
 0001:00133458       Elmenus.TElMenuItem.InitiateAction
 0001:0013347C       Elmenus.TElMenuItem.DesignRebuild
 0001:00133498       Elmenus.TElMenuItem.Insert
 0001:001335E8       Elmenus.TElMenuItem.Delete
 0001:001336BC       Elmenus.TElMenuItem.Click
 0001:00133764       Elmenus.TElMenuItem.Find
 0001:00133834       Elmenus.TElMenuItem.IndexOf
 0001:00133870       Elmenus.TElMenuItem.Add
 0001:00133898       Elmenus.TElMenuItem.Remove
 0001:00133908       Elmenus.TElMenuItem.MenuChanged
 0001:00133984       Elmenus.TElMenuItem.SubItemChanged
 0001:00133A04       Elmenus.TElMenuItem.GetBitmap
 0001:00133A54       Elmenus.TElMenuItem.SetAction
 0001:00133AF8       Elmenus.TElMenuItem.SetBitmap
 0001:00133B44       Elmenus.TElMenuItem.InitiateActions
 0001:00133B84       Elmenus.TElMenuItem.GetParentComponent
 0001:00133BD4       Elmenus.TElMenuItem.SetParentComponent
 0001:00133C6C       Elmenus.TElMenuItem.GetParentMenu
 0001:00133CA8       Elmenus.TElMenuItem.SetRadioItem
 0001:00133CFC       Elmenus.TElMenuItem.DefineProperties
 0001:00133D54       Elmenus.TElMenuItem.ActionChange
 0001:00133F18       Elmenus.TElMenuItem.DoActionChange
 0001:00133F48       Elmenus.TElMenuItem.IsCaptionStored
 0001:00133F80       Elmenus.TElMenuItem.IsCheckedStored
 0001:00133FB8       Elmenus.TElMenuItem.IsEnabledStored
 0001:00133FF0       Elmenus.TElMenuItem.IsHintStored
 0001:00134028       Elmenus.TElMenuItem.IsHelpContextStored
 0001:00134060       Elmenus.TElMenuItem.IsImageIndexStored
 0001:00134098       Elmenus.TElMenuItem.IsShortCutStored
 0001:001340D0       Elmenus.TElMenuItem.IsVisibleStored
 0001:00134108       Elmenus.TElMenuItem.IsOnClickStored
 0001:00134140       Elmenus.TElMenuItem.AssignTo
 0001:00134240       Elmenus.TElMenuItem.Notification
 0001:00134280       Elmenus.TElMenuItem.GetImageWidth
 0001:0013434C       Elmenus.TElMenuItem.SetHint
 0001:00134480       Elmenus.TElMenuItem.Clear
 0001:001344B8       Elmenus.TElMenuItem.UpdateCommand
 0001:001344D4       Elmenus.TElMainMenu
 0001:00134628       Elmenus.TElMainMenu
 0001:00134688       ElMenus._16528
 0001:001346C4       Elmenus.TElMainMenu.UpdateItems
 0001:001346EC       Elmenus.TElMainMenu.SetFont
 0001:00134740       Elmenus.TElMainMenu.Notification
 0001:00134780       Elmenus.TElMainMenu.ImageListChange
 0001:001347D4       Elmenus.TElMainMenu.SetOwnerDraw
 0001:00134808       Elmenus.TElMainMenu.SetImages
 0001:001348C0       Elmenus.TElMainMenu.SetDrawStyle
 0001:001348FC       Elmenus.TElMainMenu.GetHandle
 0001:00134930       Elmenus.TElMainMenu.IsOwnerDraw
 0001:00134944       ElMenus._16538
 0001:00134A18       ElMenus._16539
 0001:00134B4C       Elmenus.TElMainMenu.ProcessMenuChar
 0001:00134D44       ElMenus._16541
 0001:00134DF8       Elmenus.TElMainMenu.FindItem
 0001:00134E38       ElMenus._16543
 0001:00134F08       Elmenus.TElMainMenu.IsShortCut
 0001:00134F90       Elmenus.TElMainMenu.DoGetMenuString
 0001:001350CC       ElMenus._16546
 0001:001351C4       Elmenus.TElMainMenu.UpdateImage
 0001:0013525C       Elmenus.TElMainMenu.ItemChanged
 0001:00135294       Elmenus.TElMainMenu.DispatchCommand
 0001:001352D0       Elmenus.TElMainMenu.OnBeforeHook
 0001:001359B0       Elmenus.TElMainMenu.MenuChanged
 0001:00135A38       Elmenus.TElMainMenu.Loaded
 0001:00135ABC       Elmenus.TElMainMenu.SetRightToLeft
 0001:00135B50       Elmenus.TElMainMenu.SetSystemFont
 0001:00135B9C       Elmenus.TElMainMenu.GetFont
 0001:00135CEC       Elmenus.TElMainMenu.FontChange
 0001:00135D34       Elmenus.TElMainMenu.SetIsHTML
 0001:00135DB0       Elmenus.TElMainMenu.TriggerImageNeededEvent
 0001:00135E28       Elmenus.TElMainMenu.DispatchPopup
 0001:00135E90       Elmenus.TElMainMenu.UpdateCommands
 0001:00135EDC       ElMenus._16561
 0001:00135F74       Elmenus.InsertItems
 0001:00135FE8       ElMenus._16563
 0001:00136078       Elmenus.InsertMenuItems
 0001:00136170       ElMenus._16565
 0001:001361F4       Elmenus.ElInitMenuItems
 0001:0013629C       Elmenus.ElNewMenu
 0001:00136334       Elmenus.ElNewSubMenu
 0001:00136414       Elmenus.ElNewItem
 0001:001364D8       Elmenus.ElNewLine
 0001:00136508       Elmenus.ElGetHotkey
 0001:00136570       Elmenus.ElStripHotKey
 0001:0013661C       Elmenus.TElPopupMenu
 0001:00136764       Elmenus.TElPopupMenu
 0001:001367C4       ElMenus._16575
 0001:00136800       Elmenus.TElPopupMenu.UpdateItems
 0001:0013682C       Elmenus.TElPopupMenu.DoPopup
 0001:00136848       ElMenus._16578
 0001:001368FC       Elmenus.TElPopupMenu.FindItem
 0001:00136940       ElMenus._16580
 0001:00136A10       Elmenus.TElPopupMenu.IsShortCut
 0001:00136A98       Elmenus.TElPopupMenu.IsOwnerDraw
 0001:00136AAC       ElMenus._16583
 0001:00136B80       ElMenus._16584
 0001:00136CB4       Elmenus.TElPopupMenu.ProcessMenuChar
 0001:00136EAC       Elmenus.TElPopupMenu.SetDrawStyle
 0001:00136EE8       Elmenus.TElPopupMenu.DispatchCommand
 0001:00136F40       Elmenus.TElPopupMenu.OnBeforeHook
 0001:0013740C       Elmenus.TElPopupMenu.Popup
 0001:001374D4       Elmenus.TElPopupMenu.SetFont
 0001:00137500       Elmenus.TElPopupMenu.GetHandle
 0001:00137524       Elmenus.TElPopupMenu.GetFont
 0001:00137698       Elmenus.TElPopupMenu.SetSystemFont
 0001:001376D8       Elmenus.TElPopupMenu.FontChange
 0001:00137700       Elmenus.TElPopupMenu.Loaded
 0001:00137770       Elmenus.TElPopupMenu.SetIsHTML
 0001:001377D8       Elmenus.TElPopupMenu.TriggerImageNeededEvent
 0001:00137850       Elmenus.TElPopupMenu.DispatchPopup
 0001:001378BC       Elmenus.TElPopupMenu.UpdateCommands
 0001:0013790C       Elmenus.Finalization
 0001:00137960       Elmenus.initialization
 0001:001379D0       Elcolor.ColorToRGB
 0001:001379E0       Elcolor.BrightColor
 0001:00137AA4       Elcolor.DarkColor
 0001:00137B58       Elcolor.ColorToGray
 0001:00137C00       Elcolor.ConvertColorToHTML
 0001:00137C0C       Elcolor.Finalization
 0001:00137C3C       Elcolor.initialization
 0001:00137C44       Elexpbar.EExplorerBarError
 0001:00137CD0       Elexpbar.TElExplorerBarGroupButton
 0001:00137E74       Elexpbar.TElExplorerBarGroup
 0001:001389B8       Elexpbar.TElExplorerBar
 0001:00138C0C       Elexpbar.TElExplorerBarGroupCaption
 0001:00138DD8       Elexpbar.TElExplorerBar
 0001:00138E94       Elexpbar.TElExplorerBar.RealignGroups
 0001:001391BC       Elexpbar.TElExplorerBar.CMControlChange
 0001:00139248       Elexpbar.TElExplorerBar.CMControlListChange
 0001:00139284       Elexpbar.TElExplorerBar.AddPanel
 0001:001392B4       Elexpbar.TElExplorerBar.Resize
 0001:001392D4       Elexpbar.TElExplorerBar.SetMargin
 0001:00139320       Elexpbar.TElExplorerBar.SetSpacing
 0001:00139358       Elexpbar.TElExplorerBar.CreateWnd
 0001:00139378       Elexpbar.TElExplorerBar.SetGroupWidth
 0001:001393B0       Elexpbar.TElExplorerBar.GetThemedClassName
 0001:001393EC       Elexpbar.TElExplorerBar.WMEraseBkgnd
 0001:00139460       Elexpbar.TElExplorerBar.BeginUpdate
 0001:00139474       Elexpbar.TElExplorerBar.EndUpdate
 0001:001394B4       Elexpbar.TElExplorerBar.WMVScroll
 0001:001394E0       Elexpbar.TElExplorerBar.WMHScroll
 0001:0013950C       Elexpbar.TElExplorerBar.Restore
 0001:001397CC       Elexpbar.TElExplorerBar.Save
 0001:001399E4       Elexpbar.TElExplorerBar.Loaded
 0001:00139A04       Elexpbar.TElExplorerBar.DrawThemedBackground
 0001:00139A14       Elexpbar.TElExplorerBarGroup
 0001:00139A94       Elexpbar.TElExplorerBarGroup.TriggerMinimizeEvent
 0001:00139ACC       Elexpbar.TElExplorerBarGroup.TriggerRestoreEvent
 0001:00139B04       Elexpbar.TElExplorerBarGroup.Resize
 0001:00139B3C       Elexpbar.TElExplorerBarGroup.CMVisibleChanged
 0001:00139B7C       Elexpbar.TElExplorerBarGroup.WMMove
 0001:00139BBC       Elexpbar.TElExplorerBarGroup.GetThemedClassName
 0001:00139BF8       Elexpbar.TElExplorerBarGroup.DrawThemedBackground
 0001:00139CC4       Elexpbar.TElExplorerBarGroup.CreateButton
 0001:00139CEC       Elexpbar.TElExplorerBarGroup.CreatePanel
 0001:00139D10       Elexpbar.TElExplorerBarGroup.WMEraseBkGnd
 0001:00139DE8       Elexpbar.TElExplorerBarGroup.SetUseXPThemes
 0001:00139E40       Elexpbar.TElExplorerBarGroup.CreateWnd
 0001:00139E90       Elexpbar.TElExplorerBarGroup.GetButtonWidth
 0001:00139F74       Elexpbar.TElExplorerBarGroup.GetCaptionHeight
 0001:00139FA8       Elexpbar.TElExplorerBarGroupButton.DrawThemedBackground
 0001:00139FB8       Elexpbar.TElExplorerBarGroupButton.GetThemedClassName
 0001:00139FF4       Elexpbar.TElExplorerBarGroupButton.GetThemePartID
 0001:0013A044       Elexpbar.TElExplorerBarGroupButton.GetThemeStateID
 0001:0013A094       Elexpbar.TElExplorerBarGroupCaption.DrawThemedBackground
 0001:0013A0F8       Elexpbar.TElExplorerBarGroupCaption.WMEraseBkGnd
 0001:0013A188       Elexpbar.TElExplorerBarGroupCaption.GetThemedClassName
 0001:0013A1C4       Elexpbar.Finalization
 0001:0013A1F4       Elexpbar.initialization
 0001:0013A1FC       Elhandpt.Finalization
 0001:0013A22C       Elhandpt.initialization
 0001:0013A268       Eltreegrids.TCustomElTreeGrid
 0001:0013A5DC       Eltreegrids.TElTreeTrickyInplaceEdit
 0001:0013A71C       Eltreegrids.TElTreeStringGrid
 0001:0013CA90       Eltreegrids.TElTreeGridView
 0001:0013CC2C       Eltreegrids.EElTreeGridError
 0001:0013CCBC       Eltreegrids.TCustomElTreeGrid.KeyDownTransfer
 0001:0013D65C       Eltreegrids.TCustomElTreeGrid.WMChar
 0001:0013D6D8       Eltreegrids.TCustomElTreeGrid.SetgoRowSelect
 0001:0013D72C       Eltreegrids.TCustomElTreeGrid.SetgoColMoving
 0001:0013D764       Eltreegrids.TCustomElTreeGrid.CreateView
 0001:0013D788       Eltreegrids.TCustomElTreeGrid.CellRect
 0001:0013D834       Eltreegrids.TCustomElTreeGrid.GetAsCell
 0001:0013D894       Eltreegrids.TCustomElTreeGrid.MouseToCell
 0001:0013D8F8       Eltreegrids.TCustomElTreeGrid.GetCol
 0001:0013D914       Eltreegrids.TCustomElTreeGrid.SetCol
 0001:0013D950       Eltreegrids.TCustomElTreeGrid.GetRow
 0001:0013D988       Eltreegrids.TCustomElTreeGrid.SetRow
 0001:0013DA04       Eltreegrids.TCustomElTreeGrid.GetLeftCol
 0001:0013DA58       Eltreegrids.TCustomElTreeGrid.SetLeftCol
 0001:0013DAA8       Eltreegrids.TCustomElTreeGrid.GetColCount
 0001:0013DAD0       Eltreegrids.TCustomElTreeGrid.SetColCount
 0001:0013DBCC       Eltreegrids.TCustomElTreeGrid.GetColWidths
 0001:0013DC54       Eltreegrids.TCustomElTreeGrid.SetColWidths
 0001:0013DCDC       Eltreegrids.TCustomElTreeGrid.GetDefaultColWidth
 0001:0013DD00       Eltreegrids.TCustomElTreeGrid.SetDefaultColWidth
 0001:0013DD24       Eltreegrids.TCustomElTreeGrid.GetDefaultRowHeight
 0001:0013DD58       Eltreegrids.TCustomElTreeGrid.SetDefaultRowHeight
 0001:0013DD90       Eltreegrids.TCustomElTreeGrid.GetEditorMode
 0001:0013DDAC       Eltreegrids.TCustomElTreeGrid.SetEditorMode
 0001:0013DE24       Eltreegrids.TCustomElTreeGrid.GetRowCount
 0001:0013DE48       Eltreegrids.TCustomElTreeGrid.SetRowCount
 0001:0013DF1C       Eltreegrids.TCustomElTreeGrid.GetTopRow
 0001:0013DF38       Eltreegrids.TCustomElTreeGrid.SetTopRow
 0001:0013DF54       Eltreegrids.TCustomElTreeGrid
 0001:0013E088       Eltreegrids.TCustomElTreeGrid.GetgoEditing
 0001:0013E0A4       Eltreegrids.TCustomElTreeGrid.SetgoEditing
 0001:0013E110       Eltreegrids.TCustomElTreeGrid.WMGetDlgCode
 0001:0013E140       Eltreegrids.TCustomElTreeGrid.MouseDownTransfer
 0001:0013E298       Eltreegrids.TCustomElTreeGrid.EnsureColumnVisible
 0001:0013E350       Eltreegrids.TCustomElTreeGrid.GetNextEditableSection
 0001:0013E3F0       Eltreegrids.TElTreeGridView.WMLButtonDown
 0001:0013E508       Eltreegrids.TElTreeGridView.WMLButtonDblClick
 0001:0013E524       Eltreegrids.TElTreeGridView.WMGetDlgCode
 0001:0013E564       Eltreegrids.TElTreeStringGrid.GetCols
 0001:0013E6D8       Eltreegrids.TElTreeStringGrid.SetCols
 0001:0013E834       Eltreegrids.TElTreeStringGrid.GetRows
 0001:0013EA34       Eltreegrids.TElTreeStringGrid.SetRows
 0001:0013EB7C       Eltreegrids.TElTreeStringGrid
 0001:0013EC6C       Eltreegrids.TElTreeStringGrid
 0001:0013ECF8       Eltreegrids.TElTreeStringGrid.TriggerInplaceEditorNeeded
 0001:0013ED40       Eltreegrids.TElTreeStringGrid.SetEditor
 0001:0013ED64       Eltreegrids.TElTreeStringGrid.GetCells
 0001:0013EE38       Eltreegrids.TElTreeStringGrid.SetCells
 0001:0013EF9C       Eltreegrids.TElTreeStringGrid.GetObjects
 0001:0013F068       Eltreegrids.TElTreeStringGrid.SetObjects
 0001:0013F194       Eltreegrids.TElTreeStringGrid.KeyDownTransfer
 0001:0013F220       Eltreegrids.TElTreeStringGrid.OnFontChange
 0001:0013F258       Eltreegrids.TElTreeStringGrid.EditorKeyDown
 0001:0013F520       Eltreegrids.TElTreeStringGrid.EditWndProc
 0001:0013F568       Eltreegrids.Finalization
 0001:0013F598       Eltreegrids.initialization
 0001:0013F5A0       Elmaskedit.TCustomElMaskEdit
 0001:0013F7F8       Elmaskedit.TElMaskEdit
 0001:00140328       ElMaskEdit._16389
 0001:00140448       ElMaskEdit._16390
 0001:00140474       Elmaskedit.TCustomElMaskEdit
 0001:00140598       Elmaskedit.TCustomElMaskEdit
 0001:001405F4       Elmaskedit.TCustomElMaskEdit.BackgroundChanged
 0001:00140620       Elmaskedit.TCustomElMaskEdit.Change
 0001:00140640       Elmaskedit.TCustomElMaskEdit.CMMouseEnter
 0001:001406A4       Elmaskedit.TCustomElMaskEdit.CMMouseLeave
 0001:00140708       Elmaskedit.TCustomElMaskEdit.CMParentColorChanged
 0001:0014076C       Elmaskedit.TCustomElMaskEdit.CNCtlColorEdit
 0001:001407D4       Elmaskedit.TCustomElMaskEdit.CNCtlColorStatic
 0001:0014083C       Elmaskedit.TCustomElMaskEdit.CreateParams
 0001:00140878       Elmaskedit.TCustomElMaskEdit.DoMouseEnter
 0001:001408A4       Elmaskedit.TCustomElMaskEdit.DoMouseLeave
 0001:001408D0       Elmaskedit.TCustomElMaskEdit.DoPaint
 0001:00140B08       Elmaskedit.TCustomElMaskEdit.DrawBackground
 0001:00140BD0       Elmaskedit.TCustomElMaskEdit.DrawFlatBorder
 0001:00140D74       Elmaskedit.TCustomElMaskEdit.DrawParentControl
 0001:00140E38       Elmaskedit.TCustomElMaskEdit.ImageFormChange
 0001:00140E50       Elmaskedit.TCustomElMaskEdit.KeyDown
 0001:00140EBC       Elmaskedit.TCustomElMaskEdit.KeyPress
 0001:00140F04       Elmaskedit.TCustomElMaskEdit.Notification
 0001:00140F4C       Elmaskedit.TCustomElMaskEdit.SetActiveBorderType
 0001:00140FA0       Elmaskedit.TCustomElMaskEdit.SetAlignment
 0001:00140FD4       Elmaskedit.TCustomElMaskEdit.SetBackground
 0001:00140FF8       Elmaskedit.TCustomElMaskEdit.SetBorderSides
 0001:00141038       Elmaskedit.TCustomElMaskEdit.SetFlat
 0001:0014108C       Elmaskedit.TCustomElMaskEdit.SetImageForm
 0001:0014113C       Elmaskedit.TCustomElMaskEdit.SetInactiveBorderType
 0001:00141190       Elmaskedit.TCustomElMaskEdit.SetTransparent
 0001:001411D4       Elmaskedit.TCustomElMaskEdit.SetUseBackground
 0001:00141218       Elmaskedit.TCustomElMaskEdit.WMEraseBkgnd
 0001:00141380       Elmaskedit.TCustomElMaskEdit.WMGetDlgCode
 0001:001413E4       Elmaskedit.TCustomElMaskEdit.WMKillFocus
 0001:00141430       Elmaskedit.TCustomElMaskEdit.WMMove
 0001:00141454       Elmaskedit.TCustomElMaskEdit.WMNCCalcSize
 0001:00141504       Elmaskedit.TCustomElMaskEdit.WMPaint
 0001:0014159C       Elmaskedit.TCustomElMaskEdit.WMSetFocus
 0001:001415F8       Elmaskedit.TCustomElMaskEdit.IFMRepaintChildren
 0001:00141628       Elmaskedit.TCustomElMaskEdit.CreateThemeHandle
 0001:001416AC       Elmaskedit.TCustomElMaskEdit.CreateWnd
 0001:001416E4       Elmaskedit.TCustomElMaskEdit.DestroyWnd
 0001:0014171C       Elmaskedit.TCustomElMaskEdit.FreeThemeHandle
 0001:00141750       Elmaskedit.TCustomElMaskEdit.IsThemeApplied
 0001:00141784       Elmaskedit.TCustomElMaskEdit.SetUseXPThemes
 0001:001417B8       Elmaskedit.TCustomElMaskEdit.WMNCPaint
 0001:001418EC       Elmaskedit.TCustomElMaskEdit.WMThemeChanged
 0001:00141964       Elmaskedit.TCustomElMaskEdit.GetThemedClassName
 0001:00141994       Elmaskedit.TCustomElMaskEdit.SetLineBorderActiveColor
 0001:001419FC       Elmaskedit.TCustomElMaskEdit.SetLineBorderInactiveColor
 0001:00141A64       Elmaskedit.TCustomElMaskEdit.WMPaste
 0001:00141B64       Elmaskedit.TCustomElMaskEdit.CMHintShow
 0001:00141D0C       Elmaskedit.TCustomElMaskEdit.SetHint
 0001:00141E44       Elmaskedit.Finalization
 0001:00141E74       Elmaskedit.initialization
 0001:00141F08       Elverinfo.TElVersionInfo
 0001:0014226C       ElVerInfo._16389
 0001:00142280       ElVerInfo._16391
 0001:00142364       Elverinfo.TElVersionInfo
 0001:001423B8       Elverinfo.TElVersionInfo.GetAttributes
 0001:00142430       Elverinfo.TElVersionInfo.GetBuild
 0001:00142460       Elverinfo.TElVersionInfo.GetLanguage
 0001:00142514       Elverinfo.TElVersionInfo.GetMajorVersion
 0001:00142544       Elverinfo.TElVersionInfo.GetMinorVersion
 0001:00142574       Elverinfo.TElVersionInfo.GetPredefined
 0001:001425B0       Elverinfo.TElVersionInfo.GetRelease
 0001:001425E0       Elverinfo.TElVersionInfo.GetValue
 0001:001426C8       Elverinfo.TElVersionInfo.Refresh
 0001:001426E0       Elverinfo.TElVersionInfo.SetAttributes
 0001:001426F0       Elverinfo.TElVersionInfo.SetDummy
 0001:00142700       Elverinfo.TElVersionInfo.SetDummyEx
 0001:00142748       Elverinfo.TElVersionInfo.SetDummyInt
 0001:00142758       Elverinfo.TElVersionInfo.SetFileName
 0001:00142984       Elverinfo.TElVersionInfo.StoreFileName
 0001:001429F0       Elverinfo.Finalization
 0001:00142A38       Elverinfo.initialization
 0001:00142A40       Elcheckitemgrp.TElCheckItemGroup
 0001:00142C54       Elcheckitemgrp.TElCheckItemGroup.IntCreateItem
 0001:00142C5C       Elcheckitemgrp.TCustomElRadioGroup
 0001:00142E50       Elcheckitemgrp.TElRadioGroup
 0001:00143914       Elcheckitemgrp.TCustomElCheckGroup
 0001:00143B30       Elcheckitemgrp.TElCheckGroup
 0001:001445D0       ElCheckItemGrp._16396
 0001:00144734       ElCheckItemGrp._16397
 0001:00144768       Elcheckitemgrp.TElCheckItemGroup
 0001:00144860       Elcheckitemgrp.TElCheckItemGroup
 0001:001448D8       Elcheckitemgrp.TElCheckItemGroup.ArrangeButtons
 0001:00144B24       Elcheckitemgrp.TElCheckItemGroup.CMEnabledChanged
 0001:00144B88       Elcheckitemgrp.TElCheckItemGroup.CMFontChanged
 0001:00144BCC       Elcheckitemgrp.TElCheckItemGroup.FlipChildren
 0001:00144BDC       Elcheckitemgrp.TElCheckItemGroup.GetChildren
 0001:00144BF0       Elcheckitemgrp.TElCheckItemGroup.HintsChange
 0001:00144C18       Elcheckitemgrp.TElCheckItemGroup.ItemsChange
 0001:00144C68       Elcheckitemgrp.TElCheckItemGroup.ReadState
 0001:00144CA4       Elcheckitemgrp.TElCheckItemGroup.SetAlignment
 0001:00144D14       Elcheckitemgrp.TElCheckItemGroup.SetButtonCount
 0001:00144D68       Elcheckitemgrp.TElCheckItemGroup.SetColumns
 0001:00144DBC       Elcheckitemgrp.TElCheckItemGroup.SetFlat
 0001:00144E2C       Elcheckitemgrp.TElCheckItemGroup.SetHints
 0001:00144E50       Elcheckitemgrp.TElCheckItemGroup.SetImageForm
 0001:00144EA8       Elcheckitemgrp.TElCheckItemGroup.SetIsHTML
 0001:00144F14       Elcheckitemgrp.TElCheckItemGroup.SetItems
 0001:00144F38       Elcheckitemgrp.TElCheckItemGroup.SetTransparent
 0001:00144FA4       Elcheckitemgrp.TElCheckItemGroup.SetUseXPThemes
 0001:00145008       Elcheckitemgrp.TElCheckItemGroup.UpdateButtons
 0001:0014522C       Elcheckitemgrp.TElCheckItemGroup.WMSize
 0001:00145270       Elcheckitemgrp.TElCheckItemGroup.ButtonClick
 0001:0014529C       Elcheckitemgrp.TElCheckItemGroup.SetCheckSound
 0001:00145350       Elcheckitemgrp.TElCheckItemGroup.SetGlyph
 0001:001453A8       Elcheckitemgrp.TElCheckItemGroup.SetImages
 0001:00145410       Elcheckitemgrp.TElCheckItemGroup.SetSoundMap
 0001:00145478       Elcheckitemgrp.TElCheckItemGroup.SetUseCustomGlyphs
 0001:001454E0       Elcheckitemgrp.TElCheckItemGroup.SetUseImageList
 0001:00145548       Elcheckitemgrp.TElCheckItemGroup.SetCheckboxChecked
 0001:001455D8       Elcheckitemgrp.TElCheckItemGroup.SetFlatAlways
 0001:00145640       Elcheckitemgrp.TElCheckItemGroup.SetMoneyFlatInactiveColor
 0001:001456A8       Elcheckitemgrp.TElCheckItemGroup.SetMoneyFlatActiveColor
 0001:00145710       Elcheckitemgrp.TElCheckItemGroup.SetMoneyFlatDownColor
 0001:00145778       Elcheckitemgrp.TElCheckItemGroup.SetMoneyFlat
 0001:001457E0       Elcheckitemgrp.TElCheckItemGroup.GetItemEnabled
 0001:0014582C       Elcheckitemgrp.TElCheckItemGroup.SetItemEnabled
 0001:00145874       Elcheckitemgrp.TElCheckItemGroup.SetHorzOffset
 0001:001458C8       Elcheckitemgrp.TElCheckItemGroup.SetItemHeight
 0001:0014591C       Elcheckitemgrp.TElCheckItemGroup.SetItemSpacing
 0001:00145970       Elcheckitemgrp.TElCheckItemGroup.SetVertOffset
 0001:001459C4       Elcheckitemgrp.TElCheckItemGroup.Loaded
 0001:001459E0       ElCheckItemGrp._16440
 0001:00145B54       ElCheckItemGrp._16441
 0001:00145B84       ElCheckItemGrp._16442
 0001:00145C34       ElCheckItemGrp._16443
 0001:00145C7C       ElCheckItemGrp._16444
 0001:00145C98       ElCheckItemGrp._16445
 0001:00145CF0       ElCheckItemGrp._16446
 0001:00145D28       ElCheckItemGrp._16447
 0001:00145D4C       Elcheckitemgrp.TCustomElRadioGroup
 0001:00145DA0       Elcheckitemgrp.TCustomElRadioGroup.ButtonClick
 0001:00145E04       Elcheckitemgrp.TCustomElRadioGroup.SetItemIndex
 0001:00145F44       Elcheckitemgrp.TCustomElRadioGroup.UpdateButtons
 0001:00145FE0       Elcheckitemgrp.TCustomElRadioGroup.IntCreateItem
 0001:00145FFC       Elcheckitemgrp.TCustomElRadioGroup.ItemsChange
 0001:0014603C       ElCheckItemGrp._16454
 0001:001461B0       ElCheckItemGrp._16455
 0001:001461E4       ElCheckItemGrp._16456
 0001:00146294       ElCheckItemGrp._16457
 0001:001462DC       ElCheckItemGrp._16458
 0001:0014630C       ElCheckItemGrp._16459
 0001:00146364       ElCheckItemGrp._16460
 0001:0014639C       Elcheckitemgrp.TCustomElCheckGroup
 0001:001463F0       Elcheckitemgrp.TCustomElCheckGroup.GetChecked
 0001:00146420       Elcheckitemgrp.TCustomElCheckGroup.SetChecked
 0001:00146450       Elcheckitemgrp.TCustomElCheckGroup.GetState
 0001:00146480       Elcheckitemgrp.TCustomElCheckGroup.SetState
 0001:001464AC       Elcheckitemgrp.TCustomElCheckGroup.SetAllowGrayed
 0001:00146514       Elcheckitemgrp.TCustomElCheckGroup.IntCreateItem
 0001:00146530       Elcheckitemgrp.Finalization
 0001:00146560       Elcheckitemgrp.initialization
 0001:00146568       Eladvpanel.TElPanelCaptionSettings
 0001:001468A8       Eladvpanel.TCustomElAdvancedPanel
 0001:00146AA0       Eladvpanel.TElAdvancedPanel
 0001:001477BC       Eladvpanel.TElAdvCaptionPanel
 0001:001479DC       Eladvpanel.TElAdvCaptionButton
 0001:00147B74       Eladvpanel.TElAdvCaptionPanel.CreateWnd
 0001:00147BB0       Eladvpanel.TElAdvCaptionPanel.AdjustClientRect
 0001:00147C24       Eladvpanel.TElAdvCaptionPanel.WMNCHitTest
 0001:00147C64       Eladvpanel.TElAdvCaptionPanel.SetImageForm
 0001:00147CD0       Eladvpanel.TElAdvCaptionPanel
 0001:00147D50       Eladvpanel.TElAdvCaptionPanel.CMFontChanged
 0001:00147D7C       Eladvpanel.TElAdvCaptionPanel.KeyDown
 0001:00147DEC       ElAdvPanel._16402
 0001:00147F34       ElAdvPanel._16403
 0001:00147F5C       Eladvpanel.TElAdvCaptionPanel.WMKillFocus
 0001:00147FCC       Eladvpanel.TElAdvCaptionPanel.WMSetFocus
 0001:00148058       Eladvpanel.TElAdvCaptionPanel.MouseDown
 0001:00148090       Eladvpanel.TElPanelCaptionSettings.SetText
 0001:001480EC       Eladvpanel.TElPanelCaptionSettings.SetVisible
 0001:0014817C       Eladvpanel.TElPanelCaptionSettings.SetHeight
 0001:001481DC       Eladvpanel.TElPanelCaptionSettings.SetShowCloseButton
 0001:00148230       Eladvpanel.TElPanelCaptionSettings.SetShowMinButton
 0001:00148284       Eladvpanel.TElPanelCaptionSettings.SetFlatButtons
 0001:001482D8       Eladvpanel.TElPanelCaptionSettings.GetText
 0001:00148300       Eladvpanel.TElPanelCaptionSettings
 0001:00148390       Eladvpanel.TElPanelCaptionSettings.SetButtonWidth
 0001:001483D0       Eladvpanel.TElPanelCaptionSettings.SetAlignment
 0001:00148400       Eladvpanel.TElPanelCaptionSettings.SetLayout
 0001:00148438       Eladvpanel.TElPanelCaptionSettings.GetFont
 0001:0014845C       Eladvpanel.TElPanelCaptionSettings.SetFont
 0001:00148480       Eladvpanel.TElPanelCaptionSettings.GetParentFont
 0001:001484A4       Eladvpanel.TElPanelCaptionSettings.SetParentFont
 0001:001484C8       Eladvpanel.TElPanelCaptionSettings.GetColor
 0001:001484EC       Eladvpanel.TElPanelCaptionSettings.SetColor
 0001:00148510       Eladvpanel.TElPanelCaptionSettings.SetButtonColor
 0001:00148564       Eladvpanel.TElPanelCaptionSettings.GetImageForm
 0001:0014858C       Eladvpanel.TElPanelCaptionSettings.SetImageForm
 0001:001485B4       Eladvpanel.TElPanelCaptionSettings.GetMinButtonGlyph
 0001:00148690       Eladvpanel.TElPanelCaptionSettings.SetMinButtonGlyph
 0001:00148740       Eladvpanel.TElPanelCaptionSettings.GetCloseButtonGlyph
 0001:00148764       Eladvpanel.TElPanelCaptionSettings.SetCloseButtonGlyph
 0001:00148788       Eladvpanel.TElPanelCaptionSettings.SetInvertMinButtonArrows
 0001:001487C4       Eladvpanel.TElPanelCaptionSettings.SetAutoSize
 0001:001487FC       Eladvpanel.TElPanelCaptionSettings.FontChanged
 0001:00148818       Eladvpanel.TElPanelCaptionSettings.AdjustHeight
 0001:00148898       Eladvpanel.TCustomElAdvancedPanel.SetMinimized
 0001:00148958       Eladvpanel.TCustomElAdvancedPanel.WMSize
 0001:001489FC       Eladvpanel.TCustomElAdvancedPanel.SetCaptionSettings
 0001:00148A20       Eladvpanel.TCustomElAdvancedPanel
 0001:00148D14       Eladvpanel.TCustomElAdvancedPanel
 0001:00148DAC       Eladvpanel.TCustomElAdvancedPanel.TriggerMinimizeEvent
 0001:00148DD8       Eladvpanel.TCustomElAdvancedPanel.TriggerRestoreEvent
 0001:00148E04       Eladvpanel.TCustomElAdvancedPanel.OnMinButtonClick
 0001:00148E34       Eladvpanel.TCustomElAdvancedPanel.OnCloseButtonClick
 0001:00148E60       Eladvpanel.TCustomElAdvancedPanel.OnCaptionSize
 0001:00148E78       Eladvpanel.TCustomElAdvancedPanel.AdjustButtonSize
 0001:00148F34       Eladvpanel.TCustomElAdvancedPanel.TriggerCloseEvent
 0001:00148F60       Eladvpanel.TCustomElAdvancedPanel.AdjustClientRect
 0001:00148F9C       Eladvpanel.TCustomElAdvancedPanel.CreateWnd
 0001:00148FF4       Eladvpanel.TCustomElAdvancedPanel.WMNCHitTest
 0001:00149070       Eladvpanel.TCustomElAdvancedPanel.LinkClickEventTransfer
 0001:001490C4       Eladvpanel.TCustomElAdvancedPanel.SetImageForm
 0001:001490F4       Eladvpanel.TCustomElAdvancedPanel.SetUseXPThemes
 0001:00149158       Eladvpanel.TCustomElAdvancedPanel.AdjustInnerSize
 0001:001492D0       Eladvpanel.TCustomElAdvancedPanel.GetBevelAdjustment
 0001:0014931C       Eladvpanel.TCustomElAdvancedPanel.UpdateMinButtonImages
 0001:0014936C       Eladvpanel.TCustomElAdvancedPanel.Loaded
 0001:00149388       Eladvpanel.TCustomElAdvancedPanel.DefineProperties
 0001:001493E0       Eladvpanel.TCustomElAdvancedPanel.ReadExpHeight
 0001:00149404       Eladvpanel.TCustomElAdvancedPanel.WriteExpHeight
 0001:00149440       Eladvpanel.TCustomElAdvancedPanel.SetLinkPopupMenu
 0001:00149470       Eladvpanel.TCustomElAdvancedPanel.SetLinkColor
 0001:001494A0       Eladvpanel.TCustomElAdvancedPanel.SetLinkStyle
 0001:001494D0       Eladvpanel.TCustomElAdvancedPanel.SetTransparentXPThemes
 0001:00149500       Eladvpanel.TCustomElAdvancedPanel.CreateButton
 0001:00149528       Eladvpanel.TCustomElAdvancedPanel.CreatePanel
 0001:0014954C       Eladvpanel.TCustomElAdvancedPanel.GetThemePartID
 0001:00149564       Eladvpanel.TCustomElAdvancedPanel.GetButtonWidth
 0001:00149584       Eladvpanel.TCustomElAdvancedPanel.GetCaptionHeight
 0001:001495B8       Eladvpanel.TCustomElAdvancedPanel.UpdateInterior
 0001:00149600       Eladvpanel.TCustomElAdvancedPanel.WMSetFocus
 0001:00149658       Eladvpanel.TElAdvCaptionButton.DrawThemedBackground
 0001:00149674       Eladvpanel.TElAdvCaptionButton
 0001:001496C8       Eladvpanel.Finalization
 0001:00149718       Eladvpanel.initialization
 0001:001497EC       Elhtmlpanel.TCustomElHTMLPanel
 0001:001499C0       Elhtmlpanel.TElHTMLPanel
 0001:0014A5C8       Elhtmlpanel.TCustomElHTMLPanel
 0001:0014A678       Elhtmlpanel.TCustomElHTMLPanel
 0001:0014A6B8       Elhtmlpanel.TCustomElHTMLPanel.TriggerPaintEvent
 0001:0014A9D4       Elhtmlpanel.TCustomElHTMLPanel.TriggerImageNeededEvent
 0001:0014AA4C       Elhtmlpanel.TCustomElHTMLPanel.TriggerLinkClickEvent
 0001:0014AAB4       Elhtmlpanel.TCustomElHTMLPanel.MouseMove
 0001:0014AB80       Elhtmlpanel.TCustomElHTMLPanel.Click
 0001:0014AC50       Elhtmlpanel.TCustomElHTMLPanel.SetCursor
 0001:0014AD4C       Elhtmlpanel.TCustomElHTMLPanel.SetLinkColor
 0001:0014AD80       Elhtmlpanel.TCustomElHTMLPanel.SetLinkPopupMenu
 0001:0014ADD8       Elhtmlpanel.TCustomElHTMLPanel.SetLinkStyle
 0001:0014AE0C       Elhtmlpanel.TCustomElHTMLPanel.SetCaption
 0001:0014AE64       Elhtmlpanel.TCustomElHTMLPanel.WMContextMenu
 0001:0014AFA8       Elhtmlpanel.TCustomElHTMLPanel.WMRButtonUp
 0001:0014AFC4       Elhtmlpanel.TCustomElHTMLPanel.DoLinkPopup
 0001:0014B048       Elhtmlpanel.TCustomElHTMLPanel.CMMouseLeave
 0001:0014B078       Elhtmlpanel.Finalization
 0001:0014B0A8       Elhtmlpanel.initialization
 0001:0014B0B0       Eltreebtnedit.TElTreeInplaceButtonEdit
 0001:0014B1A4       Eltreebtnedit.TElTreeInplaceButtonEdit.GetVisible
 0001:0014B1C4       Eltreebtnedit.TElTreeInplaceButtonEdit.TriggerAfterOperation
 0001:0014B258       Eltreebtnedit.TElTreeInplaceButtonEdit.TriggerBeforeOperation
 0001:0014B2BC       Eltreebtnedit.TElTreeInplaceButtonEdit
 0001:0014B3CC       Eltreebtnedit.TElTreeInplaceButtonEdit
 0001:0014B418       Eltreebtnedit.TElTreeInplaceButtonEdit.DoStartOperation
 0001:0014B444       Eltreebtnedit.TElTreeInplaceButtonEdit.DoStopOperation
 0001:0014B480       ElTreeBtnEdit._16394
 0001:0014B75C       ElTreeBtnEdit._16395
 0001:0014B788       ElTreeBtnEdit._16396
 0001:0014B908       ElTreeBtnEdit._16397
 0001:0014B938       Eltreebtnedit.TElTreeInplaceButtonEdit.EditorWndProc
 0001:0014BA8C       Eltreebtnedit.TElTreeInplaceButtonEdit.SetEditorParent
 0001:0014BAB0       Eltreebtnedit.Finalization
 0001:0014BAE0       Eltreebtnedit.initialization
 0001:0014BC7C       Elshellutils.TElShellIconCache
 0001:0014BDC0       Elshellutils.GetFolderPIDL
 0001:0014BE20       Elshellutils.GetFolderPIDL2
 0001:0014BEB4       Elshellutils.FreeIDList
 0001:0014BF28       Elshellutils.GetPathFromPIDL
 0001:0014BFBC       Elshellutils.GETPIDLFromPath
 0001:0014C094       Elshellutils.IsDesktopPIDL
 0001:0014C0B0       Elshellutils.StrRetToPas
 0001:0014C144       Elshellutils.StrRetFree
 0001:0014C184       Elshellutils.TElShellIconCache
 0001:0014C37C       Elshellutils.TElShellIconCache
 0001:0014C3E8       Elshellutils.TElShellIconCache.OnItemDelete
 0001:0014C418       Elshellutils.TElShellIconCache.AddIcon
 0001:0014C658       Elshellutils.TElShellIconCache.LookForIcon
 0001:0014C6D4       Elshellutils.TElShellIconCache.AddFromPIDL
 0001:0014C88C       Elshellutils.GetCompressedColor
 0001:0014CA38       Elshellutils.ShellIconCache
 0001:0014CA4C       Elshellutils.GetNextItemID
 0001:0014CAA0       Elshellutils.PIDLStartsWith
 0001:0014CAF8       Elshellutils.PIDLContainsAt
 0001:0014CB74       Elshellutils.CalcPIDLSize
 0001:0014CBBC       Elshellutils.CompareIDLists
 0001:0014CC00       Elshellutils.ClonePIDL
 0001:0014CC98       Elshellutils.GetOwnPIDL
 0001:0014CCD0       Elshellutils.GetEmptyPIDL
 0001:0014CD3C       Elshellutils.GetItemIDOnly
 0001:0014CDD4       Elshellutils.AppendPIDL
 0001:0014CE90       Elshellutils.GetParentPIDL
 0001:0014CF50       Elshellutils.FireURL
 0001:0014D0EC       Elshellutils.Finalization
 0001:0014D128       Elshellutils.initialization
 0001:0014D194       Elunicodestrings.TElWideStrings
 0001:0014D294       Elunicodestrings.TElWideStrings.Get
 0001:0014D29C       Elunicodestrings.TElWideStrings.GetCount
 0001:0014D2A4       Elunicodestrings.TElWideStrings.Clear
 0001:0014D2AC       Elunicodestrings.TElWideStrings.Delete
 0001:0014D2B4       Elunicodestrings.TElWideStrings.Insert
 0001:0014D2BC       Elunicodestrings.TElWideStringList
 0001:0014D3D4       Elunicodestrings.TElWideStringArray
 0001:0014D580       Elunicodestrings.TElWideStrings
 0001:0014D5B4       Elunicodestrings.TElWideStrings.Add
 0001:0014D5E4       Elunicodestrings.TElWideStrings.AddObject
 0001:0014D618       Elunicodestrings.TElWideStrings.AddStrings
 0001:0014D6D8       Elunicodestrings.TElWideStrings.Append
 0001:0014D6F4       Elunicodestrings.TElWideStrings.Assign
 0001:0014D850       Elunicodestrings.TElWideStrings.BeginUpdate
 0001:0014D874       ElUnicodeStrings._16404
 0001:0014D8D4       Elunicodestrings.TElWideStrings.DefineProperties
 0001:0014D920       Elunicodestrings.TElWideStrings.EndUpdate
 0001:0014D944       Elunicodestrings.TElWideStrings.Equals
 0001:0014D9F8       ElUnicodeStrings._16408
 0001:0014DA00       Elunicodestrings.TElWideStrings.Error
 0001:0014DA40       Elunicodestrings.TElWideStrings.Exchange
 0001:0014DB2C       Elunicodestrings.TElWideStrings.GetCapacity
 0001:0014DB48       Elunicodestrings.TElWideStrings.GetCommaText
 0001:0014DCA4       Elunicodestrings.TElWideStrings.GetName
 0001:0014DD08       Elunicodestrings.TElWideStrings.IndexOfName
 0001:0014DDD8       Elunicodestrings.TElWideStrings.GetObject
 0001:0014DDF0       Elunicodestrings.TElWideStrings.GetText
 0001:0014DE6C       Elunicodestrings.TElWideStrings.GetTextStr
 0001:0014DF88       Elunicodestrings.TElWideStrings.GetValue
 0001:0014E01C       Elunicodestrings.TElWideStrings.IndexOf
 0001:0014E0A8       Elunicodestrings.TElWideStrings.IndexOfObject
 0001:0014E0F4       Elunicodestrings.TElWideStrings.InsertObject
 0001:0014E128       Elunicodestrings.TElWideStrings.LoadFromFile
 0001:0014E184       Elunicodestrings.TElWideStrings.StrSwapByteOrder
 0001:0014E1A0       Elunicodestrings.TElWideStrings.LoadFromStream
 0001:0014E30C       Elunicodestrings.TElWideStrings.Move
 0001:0014E3C8       Elunicodestrings.TElWideStrings.Put
 0001:0014E408       Elunicodestrings.TElWideStrings.PutObject
 0001:0014E41C       Elunicodestrings.TElWideStrings.ReadData
 0001:0014E610       Elunicodestrings.TElWideStrings.SaveToFile
 0001:0014E670       Elunicodestrings.TElWideStrings.SaveToStream
 0001:0014E754       Elunicodestrings.TElWideStrings.SetCapacity
 0001:0014E764       Elunicodestrings.TElWideStrings.SetCommaText
 0001:0014E8A0       Elunicodestrings.TElWideStrings.SetText
 0001:0014E8F8       Elunicodestrings.TElWideStrings.SetTextStr
 0001:0014E9F0       Elunicodestrings.TElWideStrings.SetUpdateState
 0001:0014EA00       Elunicodestrings.TElWideStrings.SetValue
 0001:0014EAB4       Elunicodestrings.TElWideStrings.WriteData
 0001:0014EB84       Elunicodestrings.TElWideStrings.AssignTo
 0001:0014ECA0       Elunicodestrings.TElWideStringList
 0001:0014ED1C       Elunicodestrings.TElWideStringList.Add
 0001:0014EDC0       Elunicodestrings.TElWideStringList.Changed
 0001:0014EDEC       Elunicodestrings.TElWideStringList.Changing
 0001:0014EE18       Elunicodestrings.TElWideStringList.Clear
 0001:0014EE64       Elunicodestrings.TElWideStringList.CustomSort
 0001:0014EEAC       Elunicodestrings.TElWideStringList.Delete
 0001:0014EF80       Elunicodestrings.TElWideStringList.Exchange
 0001:0014F044       Elunicodestrings.TElWideStringList.ExchangeItems
 0001:0014F0B0       Elunicodestrings.TElWideStringList.Find
 0001:0014F144       Elunicodestrings.TElWideStringList.Get
 0001:0014F1CC       Elunicodestrings.TElWideStringList.GetCapacity
 0001:0014F1E8       Elunicodestrings.TElWideStringList.GetCount
 0001:0014F204       Elunicodestrings.TElWideStringList.GetObject
 0001:0014F284       Elunicodestrings.TElWideStringList.Grow
 0001:0014F2DC       Elunicodestrings.TElWideStringList.IndexOf
 0001:0014F324       Elunicodestrings.TElWideStringList.Insert
 0001:0014F3D0       Elunicodestrings.TElWideStringList.InsertItem
 0001:0014F470       Elunicodestrings.TElWideStringList.Put
 0001:0014F530       Elunicodestrings.TElWideStringList.PutObject
 0001:0014F5C4       Elunicodestrings.TElWideStringList.QuickSort
 0001:0014F688       Elunicodestrings.TElWideStringList.SetCapacity
 0001:0014F6B4       Elunicodestrings.TElWideStringList.SetSorted
 0001:0014F6EC       Elunicodestrings.TElWideStringList.SetUpdateState
 0001:0014F714       ElUnicodeStrings._16463
 0001:0014F74C       Elunicodestrings.TElWideStringList.Sort
 0001:0014F764       Elunicodestrings.TElWideStringArray
 0001:0014F7CC       Elunicodestrings.TElWideStringArray
 0001:0014F808       Elunicodestrings.TElWideStringArray.Add
 0001:0014F8B4       Elunicodestrings.TElWideStringArray.AddStringEntry
 0001:0014F930       Elunicodestrings.TElWideStringArray.Changed
 0001:0014F95C       Elunicodestrings.TElWideStringArray.Changing
 0001:0014F988       Elunicodestrings.TElWideStringArray.Clear
 0001:0014F9BC       Elunicodestrings.TElWideStringArray.Delete
 0001:0014F9EC       Elunicodestrings.TElWideStringArray.Exchange
 0001:0014FA9C       Elunicodestrings.TElWideStringArray.ExchangeItems
 0001:0014FAC0       Elunicodestrings.TElWideStringArray.Find
 0001:0014FB64       Elunicodestrings.TElWideStringArray.Get
 0001:0014FBF8       Elunicodestrings.TElWideStringArray.GetCount
 0001:0014FC14       Elunicodestrings.TElWideStringArray.GetObject
 0001:0014FCA0       Elunicodestrings.TElWideStringArray.IndexOf
 0001:0014FCEC       Elunicodestrings.TElWideStringArray.Insert
 0001:0014FD90       Elunicodestrings.TElWideStringArray.InsertItem
 0001:0014FDFC       Elunicodestrings.TElWideStringArray.LoadFromBinaryStream
 0001:0014FED8       Elunicodestrings.TElWideStringArray.OnItemDelete
 0001:0014FF14       Elunicodestrings.TElWideStringArray.Put
 0001:00150084       Elunicodestrings.TElWideStringArray.PutObject
 0001:00150110       Elunicodestrings.TElWideStringArray.PutStringEntry
 0001:0015029C       Elunicodestrings.TElWideStringArray.QuickSort
 0001:00150360       Elunicodestrings.TElWideStringArray.SaveToBinaryStream
 0001:0015042C       Elunicodestrings.TElWideStringArray.SetSorted
 0001:00150464       Elunicodestrings.TElWideStringArray.SetUpdateState
 0001:0015048C       Elunicodestrings.TElWideStringArray.Sort
 0001:001504D4       Elunicodestrings.TElWideStringArray.TriggerChangeEvent
 0001:001504F8       Elunicodestrings.TElWideStringArray.TriggerChangingEvent
 0001:0015051C       Elunicodestrings.Finalization
 0001:0015054C       Elunicodestrings.initialization
 0001:001505F4       Eldrivecombo.TElDriveComboBox
 0001:00150868       Eldrivecombo.TElDriveComboBox.DrawItem
 0001:00150C38       ElDriveCombo._16390
 0001:00150CCC       ElDriveCombo._16391
 0001:00150D54       Eldrivecombo.TElDriveComboBox.FillItems
 0001:00150F98       Eldrivecombo.TElDriveComboBox.SetDrive
 0001:00151064       Eldrivecombo.TElDriveComboBox
 0001:00151130       Eldrivecombo.TElDriveComboBox.CreateWnd
 0001:00151188       Eldrivecombo.TElDriveComboBox.SetTextCase
 0001:001511BC       Eldrivecombo.TElDriveComboBox.SetOptions
 0001:00151228       Eldrivecombo.TElDriveComboBox.CMFontChanged
 0001:00151294       Eldrivecombo.TElDriveComboBox.Change
 0001:00151324       Eldrivecombo.Finalization
 0001:00151354       Eldrivecombo.initialization
 0001:001514B8       Elfontcombo.TElFontComboBox
 0001:001517C0       Elfontcombo.TElFontComboBox.SetFontName
 0001:001518B0       Elfontcombo.TElFontComboBox.SetOptions
 0001:00151904       Elfontcombo.TElFontComboBox.SetSampleText
 0001:00151980       ElFontCombo._16394
 0001:00151AC0       ElFontCombo._16395
 0001:00151B34       Elfontcombo.TElFontComboBox.RebuildFontList
 0001:00151C80       Elfontcombo.TElFontComboBox.SetFontPitch
 0001:00151CD4       Elfontcombo.TElFontComboBox.SetSampleMode
 0001:00151D08       Elfontcombo.TElFontComboBox.GetItemText
 0001:00151DFC       Elfontcombo.TElFontComboBox.CreateWnd
 0001:00151E18       Elfontcombo.TElFontComboBox.GetItemWidth
 0001:00151FCC       Elfontcombo.TElFontComboBox.MeasureItem
 0001:0015211C       Elfontcombo.TElFontComboBox.DrawItem
 0001:00152340       Elfontcombo.TElFontComboBox.SetFontDevice
 0001:00152394       Elfontcombo.TElFontComboBox.AddFont
 0001:00152474       Elfontcombo.TElFontComboBox.GetFontName
 0001:001524BC       Elfontcombo.TElFontComboBox
 0001:00152530       Elfontcombo.TElFontComboBox
 0001:00152564       Elfontcombo.TElFontComboBox.Loaded
 0001:00152588       Elfontcombo.Finalization
 0001:001525CC       Elfontcombo.initialization
 0001:00152A18       Eltrackbar.TElTrackBar
 0001:00153584       Eltrackbar.TElTrackBar.SetImageForm
 0001:00153620       Eltrackbar.TElTrackBar.SetOrientation
 0001:00153684       Eltrackbar.TElTrackBar.SetMax
 0001:001536BC       Eltrackbar.TElTrackBar.SetMin
 0001:001536F4       Eltrackbar.TElTrackBar.SetPage
 0001:0015372C       Eltrackbar.TElTrackBar.SetPosition
 0001:00153764       Eltrackbar.TElTrackBar.KeyDown
 0001:001538B0       Eltrackbar.TElTrackBar.SetTickPosition
 0001:001538E4       Eltrackbar.TElTrackBar
 0001:00153A5C       Eltrackbar.TElTrackBar.SetOffsetLeft
 0001:00153A90       Eltrackbar.TElTrackBar.SetOffsetRight
 0001:00153AC4       Eltrackbar.TElTrackBar.TriggerDrawPartEvent
 0001:00153B34       Eltrackbar.TElTrackBar.SetOwnerDraw
 0001:00153B68       Eltrackbar.TElTrackBar.DoSetMax
 0001:00153C50       Eltrackbar.TElTrackBar.DoSetMin
 0001:00153D38       Eltrackbar.TElTrackBar.DoSetPage
 0001:00153D88       Eltrackbar.TElTrackBar.DoSetPosition
 0001:00153E50       Eltrackbar.TElTrackBar.TriggerChangeEvent
 0001:00153E84       Eltrackbar.TElTrackBar.TriggerChangingEvent
 0001:00153EC0       Eltrackbar.TElTrackBar.AdjustThumbPos
 0001:00153FDC       Eltrackbar.TElTrackBar.GetAutoThumbSize
 0001:00154124       Eltrackbar.TElTrackBar.CreateParams
 0001:0015415C       Eltrackbar.TElTrackBar.SetTransparent
 0001:001541C4       Eltrackbar.TElTrackBar.DrawThumb
 0001:00154BB0       ElTrackBar._16421
 0001:00155550       Eltrackbar.TElTrackBar.Paint
 0001:001574FC       Eltrackbar.TElTrackBar.SetThumbType
 0001:00157530       Eltrackbar.TElTrackBar.WMEraseBkgnd
 0001:0015754C       Eltrackbar.TElTrackBar.SetTickWidth
 0001:00157580       Eltrackbar.TElTrackBar.SetSelStart
 0001:001575B4       Eltrackbar.TElTrackBar.SetSelEnd
 0001:001575E8       Eltrackbar.TElTrackBar.TriggerTickMarkPositionEvent
 0001:0015762C       Eltrackbar.TElTrackBar.SetFrequency
 0001:0015766C       Eltrackbar.TElTrackBar.SetTickMarkMode
 0001:001576A0       Eltrackbar.TElTrackBar.SetTickColor
 0001:001576E0       Eltrackbar.TElTrackBar.SetTrackColor
 0001:00157714       Eltrackbar.TElTrackBar.SetTrackFrameColor
 0001:00157748       Eltrackbar.TElTrackBar.SetTrackWidth
 0001:00157790       Eltrackbar.TElTrackBar.SetTrackSelColor
 0001:001577D0       Eltrackbar.TElTrackBar.SetShowSelection
 0001:00157804       Eltrackbar.TElTrackBar.SetSelectionMarkSize
 0001:00157838       Eltrackbar.TElTrackBar
 0001:00157878       Eltrackbar.TElTrackBar.CalcThumbRect
 0001:00157A6C       Eltrackbar.TElTrackBar.SetThumbWidth
 0001:00157AAC       Eltrackbar.TElTrackBar.SetThumbVisible
 0001:00157AE0       Eltrackbar.TElTrackBar.GetHitTest
 0001:001586FC       Eltrackbar.TElTrackBar.GetPosition
 0001:00158718       Eltrackbar.TElTrackBar.MouseMove
 0001:001589A8       Eltrackbar.TElTrackBar.MouseDown
 0001:00158B10       Eltrackbar.TElTrackBar.TriggerHitTestEvent
 0001:00158B5C       Eltrackbar.TElTrackBar.OnDownTimer
 0001:00158CFC       Eltrackbar.TElTrackBar.MouseUp
 0001:00158DC8       Eltrackbar.TElTrackBar.IFMRepaintChildren
 0001:00158DF8       Eltrackbar.TElTrackBar.WMWindowPosChanged
 0001:00158E24       Eltrackbar.TElTrackBar.ImageFormChange
 0001:00158E3C       Eltrackbar.TElTrackBar.SetThumbColor
 0001:00158E70       Eltrackbar.TElTrackBar.TriggerTrackEvent
 0001:00158EA4       Eltrackbar.TElTrackBar.WMMouseWheel
 0001:00158F40       Eltrackbar.TElTrackBar.GetThemedClassName
 0001:00158F78       Eltrackbar.TElTrackBar.CMEnter
 0001:00158F9C       Eltrackbar.TElTrackBar.CMExit
 0001:00158FC0       Eltrackbar.TElTrackBar.CMMouseLeave
 0001:00159008       Eltrackbar.TElTrackBar.CMEnabledChanged
 0001:00159038       Eltrackbar.TElTrackBar.SetFlat
 0001:0015906C       Eltrackbar.TElTrackBar.SetActiveBorderType
 0001:001590C8       Eltrackbar.TElTrackBar.SetInactiveBorderType
 0001:00159124       Eltrackbar.TElTrackBar.WMGetDlgCode
 0001:0015914C       Eltrackbar.TElTrackBar.CMHintShow
 0001:001592F4       Eltrackbar.TElTrackBar.SetHint
 0001:0015942C       Eltrackbar.Finalization
 0001:0015945C       Eltrackbar.initialization
 0001:001594B0       Elimgcombo.TElImageComboBox
 0001:00159C44       Elimgcombo.TElImageComboBox.Change
 0001:00159C60       Elimgcombo.TElImageComboBox.ComboWndProc
 0001:00159D84       Elimgcombo.TElImageComboBox
 0001:00159E58       Elimgcombo.TElImageComboBox.CreateParams
 0001:00159E7C       Elimgcombo.TElImageComboBox.CreateWnd
 0001:00159F54       Elimgcombo.TElImageComboBox.DblClick
 0001:00159FEC       Elimgcombo.TElImageComboBox
 0001:0015A03C       Elimgcombo.TElImageComboBox.DrawItem
 0001:0015A20C       Elimgcombo.TElImageComboBox.DropDown
 0001:0015A228       Elimgcombo.TElImageComboBox.GetImageIndex
 0001:0015A370       Elimgcombo.TElImageComboBox.ImagesChanged
 0001:0015A388       Elimgcombo.TElImageComboBox.Notification
 0001:0015A3C8       Elimgcombo.TElImageComboBox.Remake
 0001:0015A440       Elimgcombo.TElImageComboBox.SetImageIndex
 0001:0015A55C       Elimgcombo.TElImageComboBox.SetImages
 0001:0015A5F8       Elimgcombo.TElImageComboBox.SetModified
 0001:0015A634       Elimgcombo.TElImageComboBox.TriggerImageNameEvent
 0001:0015A6E0       Elimgcombo.TElImageComboBox.SetManualEdit
 0001:0015A73C       Elimgcombo.TElImageComboBox.GetShowEmptyValue
 0001:0015A75C       Elimgcombo.TElImageComboBox.SetShowEmptyValue
 0001:0015A794       Elimgcombo.TElImageComboBox.WMNCCalcSize
 0001:0015A7B0       Elimgcombo.TElImageComboBox.UpdateEditSize
 0001:0015A858       Elimgcombo.TElImageComboBox.EditWndProc
 0001:0015A8C0       Elimgcombo.TElImageComboBox.WndProc
 0001:0015A914       Elimgcombo.TElImageComboBox.WMPaint
 0001:0015AA60       Elimgcombo.TElImageComboBox.CNCommand
 0001:0015AA98       Elimgcombo.TElImageComboBox.Loaded
 0001:0015AAB4       Elimgcombo.TElImageComboBox.SetEmptyValueText
 0001:0015AB2C       Elimgcombo.TElImageComboBox.SetImageNames
 0001:0015AB50       Elimgcombo.TElImageComboBox.RebuildList
 0001:0015AC50       Elimgcombo.Finalization
 0001:0015AC80       Elimgcombo.initialization
 0001:0015AC88       Eltreetreecomboedit.TElTreeInplaceTreeComboEdit
 0001:0015AD88       Eltreetreecomboedit.TElTreeInplaceTreeComboEdit
 0001:0015AE94       Eltreetreecomboedit.TElTreeInplaceTreeComboEdit
 0001:0015AF1C       ElTreeTreeComboEdit._16389
 0001:0015B1F8       ElTreeTreeComboEdit._16390
 0001:0015B22C       Eltreetreecomboedit.TElTreeInplaceTreeComboEdit.TreeWndProc
 0001:0015B31C       Eltreetreecomboedit.TElTreeInplaceTreeComboEdit.DoStartOperation
 0001:0015B348       Eltreetreecomboedit.TElTreeInplaceTreeComboEdit.DoStopOperation
 0001:0015B384       Eltreetreecomboedit.TElTreeInplaceTreeComboEdit.EditorWndProc
 0001:0015B5DC       Eltreetreecomboedit.TElTreeInplaceTreeComboEdit.GetVisible
 0001:0015B5FC       Eltreetreecomboedit.TElTreeInplaceTreeComboEdit.TriggerAfterOperation
 0001:0015B690       Eltreetreecomboedit.TElTreeInplaceTreeComboEdit.TriggerBeforeOperation
 0001:0015B6DC       Eltreetreecomboedit.TElTreeInplaceTreeComboEdit.SetEditorParent
 0001:0015B700       Eltreetreecomboedit.Finalization
 0001:0015B730       Eltreetreecomboedit.initialization
 0001:0015B738       Eltreespinedit.TElTreeInplaceSpinEdit
 0001:0015B828       Eltreespinedit.TElTreeInplaceFloatSpinEdit
 0001:0015B920       Eltreespinedit.TElTreeInplaceSpinEdit
 0001:0015BA10       Eltreespinedit.TElTreeInplaceSpinEdit
 0001:0015BA5C       Eltreespinedit.TElTreeInplaceSpinEdit.DoStartOperation
 0001:0015BAA4       Eltreespinedit.TElTreeInplaceSpinEdit.DoStopOperation
 0001:0015BAE0       ElTreeSpinEdit._16393
 0001:0015BC70       ElTreeSpinEdit._16394
 0001:0015BCA0       ElTreeSpinEdit._16395
 0001:0015BF7C       ElTreeSpinEdit._16396
 0001:0015BFA8       Eltreespinedit.TElTreeInplaceSpinEdit.EditorWndProc
 0001:0015C0FC       Eltreespinedit.TElTreeInplaceSpinEdit.GetVisible
 0001:0015C11C       Eltreespinedit.TElTreeInplaceSpinEdit.TriggerAfterOperation
 0001:0015C1B4       Eltreespinedit.TElTreeInplaceSpinEdit.TriggerBeforeOperation
 0001:0015C244       Eltreespinedit.TElTreeInplaceFloatSpinEdit
 0001:0015C334       Eltreespinedit.TElTreeInplaceFloatSpinEdit
 0001:0015C380       Eltreespinedit.TElTreeInplaceFloatSpinEdit.DoStartOperation
 0001:0015C3C8       Eltreespinedit.TElTreeInplaceFloatSpinEdit.DoStopOperation
 0001:0015C404       ElTreeSpinEdit._16405
 0001:0015C598       ElTreeSpinEdit._16406
 0001:0015C5CC       Eltreespinedit.TElTreeInplaceFloatSpinEdit.EditorWndProc
 0001:0015C720       Eltreespinedit.TElTreeInplaceFloatSpinEdit.GetVisible
 0001:0015C740       Eltreespinedit.TElTreeInplaceFloatSpinEdit.TriggerAfterOperation
 0001:0015C7E0       Eltreespinedit.TElTreeInplaceFloatSpinEdit.TriggerBeforeOperation
 0001:0015C8C0       Eltreespinedit.Finalization
 0001:0015C8F0       Eltreespinedit.initialization
 0001:0015C8F8       Eltreememoedit.TElTreeInplaceMemoEdit
 0001:0015C9E8       Eltreememoedit.TElTreeInplaceMemoEdit
 0001:0015CAC8       Eltreememoedit.TElTreeInplaceMemoEdit
 0001:0015CB14       Eltreememoedit.TElTreeInplaceMemoEdit.DoStartOperation
 0001:0015CB40       Eltreememoedit.TElTreeInplaceMemoEdit.DoStopOperation
 0001:0015CB7C       ElTreeMemoEdit._16391
 0001:0015CE58       ElTreeMemoEdit._16392
 0001:0015CE84       Eltreememoedit.TElTreeInplaceMemoEdit.EditorWndProc
 0001:0015CFB4       Eltreememoedit.TElTreeInplaceMemoEdit.GetVisible
 0001:0015CFD4       Eltreememoedit.TElTreeInplaceMemoEdit.TriggerAfterOperation
 0001:0015D068       Eltreememoedit.TElTreeInplaceMemoEdit.TriggerBeforeOperation
 0001:0015D0F0       Eltreememoedit.TElTreeInplaceMemoEdit.SetEditorParent
 0001:0015D114       Eltreememoedit.Finalization
 0001:0015D144       Eltreememoedit.initialization
 0001:0015D14C       Eltreemaskedit.TElTreeInplaceMaskEdit
 0001:0015D23C       Eltreemaskedit.TElTreeInplaceMaskEdit
 0001:0015D31C       Eltreemaskedit.TElTreeInplaceMaskEdit
 0001:0015D380       Eltreemaskedit.TElTreeInplaceMaskEdit.DoStartOperation
 0001:0015D3AC       Eltreemaskedit.TElTreeInplaceMaskEdit.DoStopOperation
 0001:0015D3E8       ElTreeMaskEdit._16391
 0001:0015D6C4       ElTreeMaskEdit._16392
 0001:0015D6F0       Eltreemaskedit.TElTreeInplaceMaskEdit.EditorWndProc
 0001:0015D820       Eltreemaskedit.TElTreeInplaceMaskEdit.GetVisible
 0001:0015D840       Eltreemaskedit.TElTreeInplaceMaskEdit.TriggerAfterOperation
 0001:0015D8D4       Eltreemaskedit.TElTreeInplaceMaskEdit.TriggerBeforeOperation
 0001:0015D95C       Eltreemaskedit.TElTreeInplaceMaskEdit.SetEditorParent
 0001:0015D980       Eltreemaskedit.Finalization
 0001:0015D9B0       Eltreemaskedit.initialization
 0001:0015D9B8       Eltreedtpickedit.TElTreeInplaceDateTimePicker
 0001:0015DAB8       Eltreedtpickedit.TElTreeInplaceDateTimePicker
 0001:0015DB88       Eltreedtpickedit.TElTreeInplaceDateTimePicker
 0001:0015DBD4       Eltreedtpickedit.TElTreeInplaceDateTimePicker.DoStartOperation
 0001:0015DC00       Eltreedtpickedit.TElTreeInplaceDateTimePicker.DoStopOperation
 0001:0015DC3C       Eltreedtpickedit.TElTreeInplaceDateTimePicker.GetVisible
 0001:0015DC5C       Eltreedtpickedit.TElTreeInplaceDateTimePicker.TriggerAfterOperation
 0001:0015DD80       Eltreedtpickedit.TElTreeInplaceDateTimePicker.TriggerBeforeOperation
 0001:0015DEF0       ElTreeDTPickEdit._16394
 0001:0015E1CC       ElTreeDTPickEdit._16395
 0001:0015E1FC       ElTreeDTPickEdit._16396
 0001:0015E394       ElTreeDTPickEdit._16397
 0001:0015E3C4       Eltreedtpickedit.TElTreeInplaceDateTimePicker.EditorWndProc
 0001:0015E518       Eltreedtpickedit.TElTreeInplaceDateTimePicker.SetEditorParent
 0001:0015E53C       Eltreedtpickedit.Finalization
 0001:0015E56C       Eltreedtpickedit.initialization
 0001:0015E574       Eltreecurredit.THackInplaceCurrencyEdit
 0001:0015E71C       Eltreecurredit.TElTreeInplaceCurrencyEdit
 0001:0015E814       ElTreeCurrEdit._16389
 0001:0015E8FC       ElTreeCurrEdit._16390
 0001:0015E92C       Eltreecurredit.TElTreeInplaceCurrencyEdit
 0001:0015EA8C       Eltreecurredit.TElTreeInplaceCurrencyEdit
 0001:0015EAD8       Eltreecurredit.TElTreeInplaceCurrencyEdit.DoStartOperation
 0001:0015EB04       Eltreecurredit.TElTreeInplaceCurrencyEdit.DoStopOperation
 0001:0015EB40       ElTreeCurrEdit._16395
 0001:0015EE1C       ElTreeCurrEdit._16396
 0001:0015EE48       Eltreecurredit.TElTreeInplaceCurrencyEdit.EditorWndProc
 0001:0015EE78       Eltreecurredit.TElTreeInplaceCurrencyEdit.GetVisible
 0001:0015EE98       Eltreecurredit.TElTreeInplaceCurrencyEdit.TriggerAfterOperation
 0001:0015EF38       Eltreecurredit.TElTreeInplaceCurrencyEdit.TriggerBeforeOperation
 0001:0015EFCC       Eltreecurredit.TElTreeInplaceCurrencyEdit.SetEditorParent
 0001:0015EFF0       Eltreecurredit.TElTreeInplaceCurrencyEdit.IntEditorWndProc2
 0001:0015F020       Eltreecurredit.TElTreeInplaceCurrencyEdit.RealWndProc
 0001:0015F1A8       Eltreecurredit.TElTreeInplaceCurrencyEdit.IntEditorWndProc1
 0001:0015F1D4       Eltreecurredit.THackInplaceCurrencyEdit.DoExit
 0001:0015F1E8       Eltreecurredit.THackInplaceCurrencyEdit.KeyDown
 0001:0015F20C       Eltreecurredit.Finalization
 0001:0015F23C       Eltreecurredit.initialization
 0001:0015F244       Eltreecombobox.THackInplaceComboBox
 0001:0015F42C       Eltreecombobox.TElTreeInplaceComboBox
 0001:0015F548       Eltreecombobox.TElTreeInplaceComboBox
 0001:0015F628       Eltreecombobox.TElTreeInplaceComboBox
 0001:0015F674       Eltreecombobox.TElTreeInplaceComboBox.SetEditorParent
 0001:0015F698       Eltreecombobox.TElTreeInplaceComboBox.DoStartOperation
 0001:0015F6EC       Eltreecombobox.TElTreeInplaceComboBox.DoStopOperation
 0001:0015F728       ElTreeComboBox._16394
 0001:0015FA04       ElTreeComboBox._16395
 0001:0015FA30       Eltreecombobox.TElTreeInplaceComboBox.EditorWndProc
 0001:0015FBAC       Eltreecombobox.TElTreeInplaceComboBox.GetVisible
 0001:0015FBCC       Eltreecombobox.TElTreeInplaceComboBox.TriggerAfterOperation
 0001:0015FC60       Eltreecombobox.TElTreeInplaceComboBox.TriggerBeforeOperation
 0001:0015FCE8       Eltreecombobox.THackInplaceComboBox.ComboWndProc
 0001:0015FE28       Eltreecombobox.Finalization
 0001:0015FE58       Eltreecombobox.initialization
 0001:0015FE60       Eltreecheckboxedit.TElTreeInplaceCheckBoxEdit
 0001:0015FF5C       Eltreecheckboxedit.TElTreeInplaceCheckBoxEdit
 0001:00160038       Eltreecheckboxedit.TElTreeInplaceCheckBoxEdit
 0001:00160084       Eltreecheckboxedit.TElTreeInplaceCheckBoxEdit.DoStartOperation
 0001:001600B0       Eltreecheckboxedit.TElTreeInplaceCheckBoxEdit.DoStopOperation
 0001:001600EC       Eltreecheckboxedit.TElTreeInplaceCheckBoxEdit.GetVisible
 0001:0016010C       Eltreecheckboxedit.TElTreeInplaceCheckBoxEdit.TriggerAfterOperation
 0001:00160180       Eltreecheckboxedit.TElTreeInplaceCheckBoxEdit.TriggerBeforeOperation
 0001:001601D8       ElTreeCheckBoxEdit._16394
 0001:001604B4       ElTreeCheckBoxEdit._16395
 0001:001604E4       Eltreecheckboxedit.TElTreeInplaceCheckBoxEdit.EditorWndProc
 0001:00160614       Eltreecheckboxedit.TElTreeInplaceCheckBoxEdit.SetEditorParent
 0001:00160638       Eltreecheckboxedit.Finalization
 0001:00160668       Eltreecheckboxedit.initialization
 0001:00160670       Eltreeadvedit.TElTreeInplaceAdvancedEdit
 0001:00160768       Eltreeadvedit.TElTreeInplaceAdvancedEdit
 0001:00160858       Eltreeadvedit.TElTreeInplaceAdvancedEdit
 0001:001608BC       Eltreeadvedit.TElTreeInplaceAdvancedEdit.DoStartOperation
 0001:001608E8       Eltreeadvedit.TElTreeInplaceAdvancedEdit.DoStopOperation
 0001:00160924       ElTreeAdvEdit._16391
 0001:00160C00       ElTreeAdvEdit._16392
 0001:00160C2C       Eltreeadvedit.TElTreeInplaceAdvancedEdit.EditorWndProc
 0001:00160D5C       Eltreeadvedit.TElTreeInplaceAdvancedEdit.GetVisible
 0001:00160D7C       Eltreeadvedit.TElTreeInplaceAdvancedEdit.TriggerAfterOperation
 0001:00160E10       Eltreeadvedit.TElTreeInplaceAdvancedEdit.TriggerBeforeOperation
 0001:00160E5C       Eltreeadvedit.TElTreeInplaceAdvancedEdit.SetEditorParent
 0001:00160E80       Eltreeadvedit.Finalization
 0001:00160EB0       Eltreeadvedit.initialization
 0001:00160EB8       Eltreestdeditors.TElTreeInplaceEdit
 0001:00160FA4       Eltreestdeditors.TElTreeInplaceMemo
 0001:00161090       Eltreestdeditors.TElTreeInplaceDateTimePicker
 0001:00161190       Eltreestdeditors.TElTreeInplaceCheckBox
 0001:00161284       Eltreestdeditors.THackInplaceComboBox
 0001:00161458       Eltreestdeditors.TElTreeInplaceComboBox
 0001:00161574       ElTreeStdEditors._16397
 0001:00161850       ElTreeStdEditors._16398
 0001:00161880       ElTreeStdEditors._16399
 0001:00161A0C       ElTreeStdEditors._16400
 0001:00161A3C       ElTreeStdEditors._16401
 0001:00161B90       ElTreeStdEditors._16402
 0001:00161BC0       ElTreeStdEditors._16403
 0001:00161CFC       ElTreeStdEditors._16404
 0001:00161D30       ElTreeStdEditors._16405
 0001:00161E80       ElTreeStdEditors._16406
 0001:00161EB8       ElTreeStdEditors._16407
 0001:00161EF8       ElTreeStdEditors._16408
 0001:00161F1C       ElTreeStdEditors._16409
 0001:00161F40       ElTreeStdEditors._16410
 0001:00161F80       Eltreestdeditors.TElTreeInplaceEdit.TriggerAfterOperation
 0001:00162014       Eltreestdeditors.TElTreeInplaceEdit.TriggerBeforeOperation
 0001:00162060       Eltreestdeditors.TElTreeInplaceEdit.EditorWndProc
 0001:001621B8       Eltreestdeditors.TElTreeInplaceEdit.DoStartOperation
 0001:001621E4       Eltreestdeditors.TElTreeInplaceEdit.DoStopOperation
 0001:00162220       Eltreestdeditors.TElTreeInplaceEdit.GetVisible
 0001:00162240       Eltreestdeditors.TElTreeInplaceEdit
 0001:00162330       Eltreestdeditors.TElTreeInplaceEdit
 0001:00162394       Eltreestdeditors.TElTreeInplaceEdit.SetEditorParent
 0001:001623B8       Eltreestdeditors.TElTreeInplaceMemo.GetVisible
 0001:001623D8       Eltreestdeditors.TElTreeInplaceMemo.TriggerAfterOperation
 0001:0016246C       Eltreestdeditors.TElTreeInplaceMemo.TriggerBeforeOperation
 0001:001624F4       Eltreestdeditors.TElTreeInplaceMemo
 0001:001625C4       Eltreestdeditors.TElTreeInplaceMemo
 0001:00162610       Eltreestdeditors.TElTreeInplaceMemo.DoStartOperation
 0001:0016263C       Eltreestdeditors.TElTreeInplaceMemo.DoStopOperation
 0001:00162678       Eltreestdeditors.TElTreeInplaceMemo.EditorWndProc
 0001:001627A8       Eltreestdeditors.TElTreeInplaceMemo.SetEditorParent
 0001:001627CC       Eltreestdeditors.TElTreeInplaceDateTimePicker.GetVisible
 0001:001627EC       Eltreestdeditors.TElTreeInplaceDateTimePicker.TriggerAfterOperation
 0001:001628D0       Eltreestdeditors.TElTreeInplaceDateTimePicker.TriggerBeforeOperation
 0001:001629A8       Eltreestdeditors.TElTreeInplaceDateTimePicker
 0001:00162A58       Eltreestdeditors.TElTreeInplaceDateTimePicker
 0001:00162AA4       Eltreestdeditors.TElTreeInplaceDateTimePicker.DoStartOperation
 0001:00162AD0       Eltreestdeditors.TElTreeInplaceDateTimePicker.DoStopOperation
 0001:00162B0C       Eltreestdeditors.TElTreeInplaceDateTimePicker.EditorWndProc
 0001:00162C3C       Eltreestdeditors.TElTreeInplaceDateTimePicker.SetEditorParent
 0001:00162C60       Eltreestdeditors.TElTreeInplaceComboBox
 0001:00162D30       Eltreestdeditors.TElTreeInplaceComboBox
 0001:00162D7C       Eltreestdeditors.TElTreeInplaceComboBox.DoStartOperation
 0001:00162DD0       Eltreestdeditors.TElTreeInplaceComboBox.DoStopOperation
 0001:00162E0C       Eltreestdeditors.TElTreeInplaceComboBox.EditorWndProc
 0001:00162F6C       Eltreestdeditors.TElTreeInplaceComboBox.GetVisible
 0001:00162F8C       Eltreestdeditors.TElTreeInplaceComboBox.TriggerAfterOperation
 0001:00163020       Eltreestdeditors.TElTreeInplaceComboBox.TriggerBeforeOperation
 0001:001630A8       Eltreestdeditors.TElTreeInplaceComboBox.SetEditorParent
 0001:001630CC       Eltreestdeditors.THackInplaceComboBox.ComboWndProc
 0001:0016321C       Eltreestdeditors.THackInplaceComboBox.KeyPress
 0001:0016325C       Eltreestdeditors.THackInplaceComboBox.WMGetDlgCode
 0001:00163274       Eltreestdeditors.TElTreeInplaceCheckBox
 0001:0016333C       Eltreestdeditors.TElTreeInplaceCheckBox
 0001:00163388       Eltreestdeditors.TElTreeInplaceCheckBox.DoStartOperation
 0001:001633B4       Eltreestdeditors.TElTreeInplaceCheckBox.DoStopOperation
 0001:001633F0       Eltreestdeditors.TElTreeInplaceCheckBox.EditorWndProc
 0001:00163520       Eltreestdeditors.TElTreeInplaceCheckBox.GetVisible
 0001:00163540       Eltreestdeditors.TElTreeInplaceCheckBox.TriggerAfterOperation
 0001:001635B4       Eltreestdeditors.TElTreeInplaceCheckBox.TriggerBeforeOperation
 0001:0016360C       Eltreestdeditors.TElTreeInplaceCheckBox.SetEditorParent
 0001:00163630       ElTreeStdEditors._16459
 0001:00163670       ElTreeStdEditors._16460
 0001:00163688       ElTreeStdEditors._16461
 0001:001636C8       ElTreeStdEditors._16462
 0001:001636E0       Eltreestdeditors.Finalization
 0001:00163710       Eltreestdeditors.initialization
 0001:00163758       Eltreemodaledit.TElTreeInplaceModalEdit
 0001:00163874       Eltreemodaledit.TElTreeInplaceModalEdit
 0001:0016391C       Eltreemodaledit.TElTreeInplaceModalEdit
 0001:00163958       Eltreemodaledit.TElTreeInplaceModalEdit.WndProc
 0001:001639AC       Eltreemodaledit.TElTreeInplaceModalEdit.GetVisible
 0001:001639C8       Eltreemodaledit.TElTreeInplaceModalEdit.StartOperation
 0001:00163A30       Eltreemodaledit.TElTreeInplaceModalEdit.DoStartOperation
 0001:00163A3C       Eltreemodaledit.TElTreeInplaceModalEdit.Execute
 0001:00163A78       Eltreemodaledit.Finalization
 0001:00163AA8       Eltreemodaledit.initialization
 0001:00163B3C       Elnameedits.TElFolderNameEdit
 0001:00164D74       Elnameedits.TElFileNameEdit
 0001:00165FD8       ElNameEdits._16392
 0001:0016613C       ElNameEdits._16393
 0001:00166168       ElNameEdits._16394
 0001:0016621C       ElNameEdits._16395
 0001:0016624C       Elnameedits.TElFileNameEdit
 0001:00166310       ElNameEdits._16397
 0001:001663F8       Elnameedits.TElFileNameEdit.BtnClick
 0001:00166624       Elnameedits.TElFileNameEdit
 0001:00166664       Elnameedits.TElFileNameEdit.GetFilterIndex
 0001:00166688       Elnameedits.TElFileNameEdit.SetHistoryList
 0001:001666AC       Elnameedits.TElFileNameEdit.SetInitialDir
 0001:001666D0       Elnameedits.TElFileNameEdit.GetDefaultExt
 0001:001666F4       Elnameedits.TElFileNameEdit.SetDefaultExt
 0001:00166718       Elnameedits.TElFileNameEdit.GetFiles
 0001:00166738       Elnameedits.TElFileNameEdit.GetHistoryList
 0001:00166758       Elnameedits.TElFileNameEdit.GetInitialDir
 0001:0016677C       Elnameedits.TElFileNameEdit.GetOptions
 0001:0016679C       Elnameedits.TElFileNameEdit.SetOptions
 0001:001667BC       Elnameedits.TElFileNameEdit.SetFilterIndex
 0001:001667DC       Elnameedits.TElFileNameEdit.GetTitle
 0001:00166800       Elnameedits.TElFileNameEdit.SetTitle
 0001:00166834       Elnameedits.TElFileNameEdit.GetFilter
 0001:00166858       Elnameedits.TElFileNameEdit.SetFilter
 0001:0016687C       Elnameedits.TElFileNameEdit.CreateHandle
 0001:001668F0       Elnameedits.TElFileNameEdit.Loaded
 0001:00166958       Elnameedits.TElFileNameEdit.TriggerDialogExecute
 0001:00166984       Elnameedits.TElFileNameEdit.TriggerBeforeDialogExecute
 0001:001669B8       Elnameedits.TElFolderNameEdit
 0001:00166A70       Elnameedits.TElFolderNameEdit
 0001:00166AB0       Elnameedits.TElFolderNameEdit.BtnClick
 0001:00166BF0       Elnameedits.TElFolderNameEdit.GetOptions
 0001:00166C14       Elnameedits.TElFolderNameEdit.GetTitle
 0001:00166C38       Elnameedits.TElFolderNameEdit.SetOptions
 0001:00166C5C       Elnameedits.TElFolderNameEdit.SetTitle
 0001:00166C94       Elnameedits.TElFolderNameEdit.SetRootFolder
 0001:00166CB8       Elnameedits.TElFolderNameEdit.GetRootFolder
 0001:00166CDC       Elnameedits.TElFolderNameEdit.CreateHandle
 0001:00166D50       Elnameedits.TElFolderNameEdit.Loaded
 0001:00166DB8       Elnameedits.TElFolderNameEdit.SetStatusText
 0001:00166DDC       Elnameedits.TElFolderNameEdit.GetStatusText
 0001:00166E04       Elnameedits.TElFolderNameEdit.GetCustomRootFolder
 0001:00166E2C       Elnameedits.TElFolderNameEdit.SetCustomRootFolder
 0001:00166E54       Elnameedits.TElFolderNameEdit.TriggerBeforeDialogExecute
 0001:00166E88       Elnameedits.TElFolderNameEdit.TriggerDialogExecute
 0001:00166EB4       ElNameEdits._16436
 0001:00166F04       Elnameedits.Finalization
 0001:00166F34       Elnameedits.initialization
 0001:00166F3C       Eltmschema.Finalization
 0001:00166F6C       Eltmschema.initialization
 0001:00166F74       Eluxtheme.GetThemePartSizeTo
 0001:00166FFC       Eluxtheme.DrawThemeTextTo
 0001:0016708C       Eluxtheme.DrawThemeBackgroundTo
 0001:00167110       Eluxtheme.Finalization
 0001:00167148       Eluxtheme.initialization
 0001:00167940       Elxpthemedcontrol.TElXPThemedControl
 0001:00167AC0       Elxpthemedcontrol.TElXPThemedControl.GetThemedClassName
 0001:00167AC8       Elxpthemedcontrol.TElXPThemedControl
 0001:00167B1C       Elxpthemedcontrol.TElXPThemedControl.CreateThemeHandle
 0001:00167BA4       Elxpthemedcontrol.TElXPThemedControl.CreateWnd
 0001:00167BDC       Elxpthemedcontrol.TElXPThemedControl.DestroyWnd
 0001:00167C14       Elxpthemedcontrol.TElXPThemedControl.FreeThemeHandle
 0001:00167C48       Elxpthemedcontrol.TElXPThemedControl.IsThemeApplied
 0001:00167C7C       Elxpthemedcontrol.TElXPThemedControl.SetUseXPThemes
 0001:00167CF4       Elxpthemedcontrol.TElXPThemedControl.WMNCPaint
 0001:00167FA0       Elxpthemedcontrol.TElXPThemedControl.WMThemeChanged
 0001:00168018       Elxpthemedcontrol.Finalization
 0001:00168048       Elxpthemedcontrol.initialization
 0001:00168050       Frmtbrstp.TfrmToolbarSetup
 0001:00168418       frmTbrStp._16387
 0001:00168500       frmTbrStp._16388
 0001:00168528       Frmtbrstp.TfrmToolbarSetup.LoadToolbarControls
 0001:001687D8       Frmtbrstp.TfrmToolbarSetup.UpdateButtons
 0001:001688FC       Frmtbrstp.TfrmToolbarSetup.FormShow
 0001:00168914       Frmtbrstp.TfrmToolbarSetup.lbxVisibleEnter
 0001:00168968       Frmtbrstp.TfrmToolbarSetup.lbxAvailableEnter
 0001:001689BC       Frmtbrstp.TfrmToolbarSetup.btnAddClick
 0001:00168B34       Frmtbrstp.TfrmToolbarSetup.btnDeleteClick
 0001:00168CAC       Frmtbrstp.TfrmToolbarSetup.btnUpClick
 0001:00168D28       Frmtbrstp.TfrmToolbarSetup.btnDownClick
 0001:00168DD0       Frmtbrstp.TfrmToolbarSetup.lbxVisibleMouseDown
 0001:00168E00       Frmtbrstp.TfrmToolbarSetup.lbxVisibleDragOver
 0001:00168E38       Frmtbrstp.TfrmToolbarSetup.lbxVisibleDragDrop
 0001:0016905C       Frmtbrstp.TfrmToolbarSetup.lbxAvailableDragOver
 0001:00169084       Frmtbrstp.TfrmToolbarSetup.lbxAvailableMouseDown
 0001:001690B4       Frmtbrstp.TfrmToolbarSetup.lbxAvailableDragDrop
 0001:00169214       Frmtbrstp.TfrmToolbarSetup.SaveToolbarControls
 0001:001693E4       Frmtbrstp.Finalization
 0001:00169414       Frmtbrstp.initialization
 0001:001694D8       Elmousehint.TElMouseHint
 0001:00169804       ElMouseHint._16389
 0001:00169864       ElMouseHint._16390
 0001:00169898       ElMouseHint._16392
 0001:001698F0       ElMouseHint._16393
 0001:001699A0       ElMouseHint._16394
 0001:001699F4       ElMouseHint._16395
 0001:00169A10       ElMouseHint._16396
 0001:00169A30       ElMouseHint._16397
 0001:00169A50       ElMouseHint._16398
 0001:00169A8C       ElMouseHint._16399
 0001:00169AF0       Elmousehint.TElMouseHint.SetActive
 0001:00169B50       Elmousehint.TElMouseHint.SetAutoSize
 0001:00169BA8       Elmousehint.TElMouseHint.SetCaption
 0001:00169BFC       Elmousehint.TElMouseHint.SetIsHTML
 0001:00169C54       Elmousehint.TElMouseHint
 0001:00169D5C       Elmousehint.TElMouseHint
 0001:00169DCC       Elmousehint.TElMouseHint.TriggerImageNeededEvent
 0001:00169E34       Elmousehint.TElMouseHint.SetLines
 0001:00169E54       Elmousehint.TElMouseHint.LinesChange
 0001:00169E98       Elmousehint.TElMouseHint.GetCaption
 0001:00169F18       Elmousehint.TElMouseHint.BuildHint
 0001:0016A2B0       Elmousehint.TElMouseHint.SetWordWrap
 0001:0016A308       Elmousehint.TElMouseHint.SetColor
 0001:0016A378       Elmousehint.TElMouseHint.GetVisible
 0001:0016A394       Elmousehint.TElMouseHint.SetWidth
 0001:0016A3F8       Elmousehint.TElMouseHint.SetHeight
 0001:0016A45C       Elmousehint.TElMouseHint.SetLocation
 0001:0016A4E0       Elmousehint.TElMouseHint.ShowHint
 0001:0016A548       Elmousehint.TElMouseHint.HideHint
 0001:0016A568       Elmousehint.TElMouseHint.SetFont
 0001:0016A588       Elmousehint.TElMouseHint.FontChange
 0001:0016A5B4       Elmousehint.TElMouseHint.SetBoundingControl
 0001:0016A630       Elmousehint.TElMouseHint.GetBoundingControl
 0001:0016A674       Elmousehint.TElMouseHint.UpdateHintPos
 0001:0016A7E4       ElMouseHint._16424
 0001:0016A824       Elmousehint.TElMouseHint.DoUpdatePos
 0001:0016AEB0       Elmousehint.TElMouseHint.SetDistanceToHint
 0001:0016AF34       Elmousehint.TElMouseHint.SetUseSystemHintSettings
 0001:0016AF8C       Elmousehint.TElMouseHint.DoShowHintWindow
 0001:0016B0A4       Elmousehint.TElMouseHint.DoHideHintWindow
 0001:0016B0E0       Elmousehint.TElMouseHint.Notification
 0001:0016B11C       Elmousehint.TElMouseHint.SetKeepWithinWindow
 0001:0016B1A8       Elmousehint.TElMouseHint.Loaded
 0001:0016B1EC       Elmousehint.TElMouseHint.ShowLines
 0001:0016B214       Elmousehint.TElMouseHint.ShowString
 0001:0016B26C       Elmousehint.TElMouseHint.SetAutoAdjustLocation
 0001:0016B2D4       Elmousehint.Finalization
 0001:0016B304       Elmousehint.initialization
 0001:0016C9F4       Eledits.Revert
 0001:0016CB24       Eledits.ElGetTextExtentExPoint
 0001:0016CC68       Eledits.TCustomElEdit.GetPasswordChar
 0001:0016CCA4       Eledits.TCustomElEdit.SetPasswordChar
 0001:0016CD3C       Eledits.TCustomElEdit.SetMaxLength
 0001:0016CD68       Eledits.TCustomElEdit.GetSelStart
 0001:0016CD98       Eledits.TCustomElEdit.SetSelStart
 0001:0016CDF8       Eledits.TCustomElEdit.SetSelText
 0001:0016CE70       Eledits.TCustomElEdit.SetSelLength
 0001:0016CEC0       Eledits.TCustomElEdit.SetTransparent
 0001:0016CF00       IsSpecialLanguage
 0001:0016CF28       Eledits.TCustomElEdit.WMKeyDown
 0001:0016D060       AcceptText
 0001:0016D13C       Eledits.TCustomElEdit.KeyDown
 0001:0016E9D4       Eledits.TCustomElEdit.WMCut
 0001:0016EA34       Eledits.TCustomElEdit.WMCopy
 0001:0016EB84       Eledits.TCustomElEdit.WMPaste
 0001:0016EE10       Eledits.TCustomElEdit.WMClear
 0001:0016EE30       Eledits.TCustomElEdit.WMSetText
 0001:0016EFD4       Eledits.TCustomElEdit.WMNCPaint
 0001:0016F1B4       Eledits.TCustomElEdit.WMEraseBkgnd
 0001:0016F3EC       Eledits.TCustomElEdit.Paint
 0001:0016F7AC       Eledits.TCustomElEdit.DrawTabbedText
 0001:0016F8A8       Eledits.TCustomElEdit.PaintText
 0001:0016FFE8       Eledits.TCustomElEdit.Change
 0001:00170014       Eledits.TCustomElEdit.TriggerSelectionChangeEvent
 0001:00170040       Eledits.TCustomElEdit.SetReadOnly
 0001:0017006C       Eledits.TCustomElEdit.SetAlignment
 0001:001700E8       Eledits.TCustomElEdit.SetLeftMargin
 0001:00170140       Eledits.TCustomElEdit.SetRightMargin
 0001:00170198       Eledits.TCustomElEdit.SetBorderStyle
 0001:001701D8       Eledits.TCustomElEdit.SetHideSelection
 0001:0017021C       Eledits.TCustomElEdit.TriggerResizeEvent
 0001:00170248       Eledits.TCustomElEdit.CaretFromChar
 0001:00170348       Eledits.TCustomElEdit.CharFromCaret
 0001:001703F4       Eledits.TCustomElEdit.PosFromCaret
 0001:00170660       Eledits.TCustomElEdit.CharsFitLeft
 0001:0017082C       Eledits.TCustomElEdit.CharsFitRight
 0001:001709C8       Eledits.TCustomElEdit.CaretFromPos
 0001:00170D98       Eledits.TCustomElEdit.GetLinesCount
 0001:00170DBC       Eledits.TCustomElEdit.SelectAll
 0001:00170F10       Eledits.TCustomElEdit.SetTabSpaces
 0001:00170FA0       Eledits.TCustomElEdit.DoSetEditRect
 0001:00171010       Eledits.TCustomElEdit.MakeCaret
 0001:001710D0       Eledits.TCustomElEdit.MoveCaret
 0001:00171170       Eledits.TCustomElEdit.SetCaretX
 0001:00171490       Eledits.TCustomElEdit.SetCaretY
 0001:001715B8       Eledits.TCustomElEdit.GetCaretXY
 0001:001715E4       Eledits.TCustomElEdit.SetCaretXY
 0001:00171610       Eledits.TCustomElEdit.CorrectLeftChar
 0001:00171C24       Eledits.TCustomElEdit.SetCaretPosition
 0001:00171CA0       Eledits.TCustomElEdit.SetMultiline
 0001:00171DA4       Eledits.TCustomElEdit.EMGetSel
 0001:00171E3C       Eledits.TCustomElEdit.EMGetLine
 0001:00171F58       Eledits.TCustomElEdit.EMGetLineCount
 0001:00171F7C       Eledits.TCustomElEdit.EMLineIndex
 0001:00172050       Eledits.TCustomElEdit.EMSetSel
 0001:001720F4       Eledits.TCustomElEdit.EMReplaceSel
 0001:00172180       Eledits.TCustomElEdit.EMGetFirstVisibleLine
 0001:001721A0       Eledits.TCustomElEdit.EMScroll
 0001:001721C0       Eledits.TCustomElEdit.EMLineScroll
 0001:001721E8       Eledits.TCustomElEdit.EMScrollCaret
 0001:00172200       Eledits.TCustomElEdit.EMLineFromChar
 0001:00172244       Eledits.TCustomElEdit.EMPosFromChar
 0001:00172298       Eledits.TCustomElEdit.StringToPassword
 0001:00172368       Eledits.TCustomElEdit.ExpandTabbedString
 0001:00172430       Eledits.TCustomElEdit.TextSize
 0001:0017251C       Eledits.TCustomElEdit.RepaintText
 0001:001725DC       Eledits.TCustomElEdit.CutToClipboard
 0001:00172600       Eledits.TCustomElEdit.CopyToClipboard
 0001:00172624       Eledits.TCustomElEdit.PasteFromClipboard
 0001:00172648       Eledits.TCustomElEdit.Undo
 0001:00172810       Eledits.TCustomElEdit.SetModified
 0001:0017283C       Eledits.TCustomElEdit.CreateParams
 0001:0017295C       Eledits.TCustomElEdit.WMSetFocus
 0001:00172A20       Eledits.TCustomElEdit.WMKillFocus
 0001:00172AB4       Eledits.TCustomElEdit.WMEnable
 0001:00172B10       Eledits.TCustomElEdit.WMSize
 0001:00172C34       Eledits.TCustomElEdit.MouseDown
 0001:00172F10       Eledits.TCustomElEdit.MouseUp
 0001:00172F58       Eledits.TCustomElEdit.MouseMove
 0001:00173028       Eledits.TCustomElEdit.KeyPress
 0001:0017339C       Eledits.TCustomElEdit.SetText
 0001:00173590       Eledits.TCustomElEdit.GetNextWord
 0001:001737A8       Eledits.TCustomElEdit.GetPrevWord
 0001:001739E4       Eledits.TCustomElEdit.ConvertBreaksFormat
 0001:00173AF4       Eledits.TCustomElEdit.WMGetDlgCode
 0001:00173B6C       Eledits.KeyToUnicode
 0001:00173C64       Eledits.TCustomElEdit.WMImeStartComposition
 0001:00173D48       Eledits.TCustomElEdit.WMImeComposition
 0001:0017404C       Eledits.TCustomElEdit.GetSelectedText
 0001:001742F8       Eledits.TCustomElEdit.Destroy
 0001:001743C4       Eledits.TCustomElEdit.Create
 0001:001748C8       Eledits.TCustomElEdit.SetBackground
 0001:001748EC       Eledits.TCustomElEdit.SetImageForm
 0001:001749A8       Eledits.TCustomElEdit.SetUseBackground
 0001:001749EC       Eledits.TCustomElEdit.WMNCCalcSize
 0001:00174BE8       Eledits.TCustomElEdit.SetBorderSides
 0001:00174C28       Eledits.TCustomElEdit.SetActiveBorderType
 0001:00174C78       Eledits.TCustomElEdit.SetFlat
 0001:00174CD4       Eledits.TCustomElEdit.SetInactiveBorderType
 0001:00174D24       Eledits.TCustomElEdit.IFMRepaintChildren
 0001:00174D54       Eledits.TCustomElEdit.WMWindowPosChanged
 0001:00174D80       Eledits.TCustomElEdit.ImageFormChange
 0001:00174D98       Eledits.TCustomElEdit.Notification
 0001:00174DDC       Eledits.TCustomElEdit.DrawBackground
 0001:00174EA4       Eledits.TCustomElEdit.DrawFlatBorder
 0001:00175274       Eledits.TCustomElEdit.DrawParentControl
 0001:00175364       Eledits.TCustomElEdit.GetThemedClassName
 0001:00175394       Eledits.TCustomElEdit.SetWordWrap
 0001:001753D0       Eledits.TCustomElEdit.SetScrollBars
 0001:00175450       Eledits.TCustomElEdit.WMVScroll
 0001:00175590       Eledits.TCustomElEdit.WMHScroll
 0001:001756E8       Eledits.TCustomElEdit.WMInputLangChange
 0001:00175718       Eledits.TCustomElEdit.WMCommand
 0001:001757A4       Eledits.TCustomElEdit.WMMouseWheel
 0001:00175870       Eledits.TCustomElEdit.WMCaptureChanged
 0001:0017588C       Eledits.TCustomElEdit.SetLeftChar
 0001:00175944       Eledits.TCustomElEdit.SetTopLine
 0001:00175A64       Eledits.TCustomElEdit.SetScrollBarsInfo
 0001:00176144       Eledits.TCustomElEdit.CMFontChanged
 0001:001761FC       Eledits.TCustomElEdit.SetAutoSize
 0001:00176230       Eledits.TCustomElEdit.UpdateHeight
 0001:00176280       Eledits.TCustomElEdit.CreateWnd
 0001:00176314       Eledits.TCustomElEdit.BackgroundChanged
 0001:00176340       Eledits.TCustomElEdit.WMGetText
 0001:001763E4       Eledits.TCustomElEdit.SetLines
 0001:00176440       Eledits.TCustomElEdit.GetLines
 0001:0017645C       Eledits.TCustomElEdit.SetAlignBottom
 0001:00176554       Eledits.TCustomElEdit.SetTopMargin
 0001:001765B8       Eledits.TCustomElEdit.CMMouseEnter
 0001:0017661C       Eledits.TCustomElEdit.CMMouseLeave
 0001:00176680       Eledits.TCustomElEdit.DoMouseEnter
 0001:001766AC       Eledits.TCustomElEdit.DoMouseLeave
 0001:001766D8       Eledits.TCustomElEdit.Loaded
 0001:00176758       Eledits.TCustomElEdit.SetFlatFocusedScrollBars
 0001:001767B4       Eledits.TCustomElEdit.SetLineBorderActiveColor
 0001:00176810       Eledits.TCustomElEdit.SetLineBorderInactiveColor
 0001:0017686C       Eledits.TCustomElEdit.EMSetRect
 0001:00176894       Eledits.TCustomElEdit.EMSetRectNP
 0001:001768B4       Eledits.TCustomElEdit.CMEnabledChanged
 0001:001768F0       Eledits.TCustomElEdit.SetUseXPThemes
 0001:00176914       Eledits.TCustomElEdit.OnHScroll
 0001:0017699C       Eledits.TCustomElEdit.OnVScroll
 0001:001769DC       Eledits.TCustomElEdit.SetVertScrollBarStyles
 0001:00176A00       Eledits.TCustomElEdit.SetHorzScrollBarStyles
 0001:00176A24       Eledits.TCustomElEdit.SBChanged
 0001:00176AB8       Eledits.TCustomElEdit.SetUseCustomScrollBars
 0001:00176B00       Eledits.TCustomElEdit.DeleteSelection
 0001:00176DD0       Eledits.TCustomElEdit.UnSelect
 0001:00176E54       Eledits.TCustomElEdit.SetSelection
 0001:00176F28       Eledits.TCustomElEdit.SetCharCase
 0001:00176FF8       Eledits.TCustomElEdit.WMSetCursor
 0001:0017709C       Eledits.TCustomElEdit.CMHintShow
 0001:00177244       Eledits.TCustomElEdit.SetHint
 0001:0017737C       Eledits.TCustomElEdit.SetBottomAlign
 0001:001773BC       Eledits.TCustomElEdit.Scroll
 0001:00177424       Eledits.TCustomElEdit.SetMaxLevel
 0001:00177448       Eledits.TCustomElEdit.GetMaxLevel
 0001:00177468       Eledits.TCustomElEdit.GetCanUndo
 0001:0017748C       Eledits.TCustomElEdit.ScrollCaret
 0001:001774B0       Eledits.TCustomElEdit.GetText
 0001:00177520       Eledits.TCustomElEdit.ConvertToCRLF
 0001:00177650       Eledits.TCustomElEdit.EMCanUndo
 0001:00177674       Eledits.TCustomElEdit.EMUndo
 0001:001776A0       Eledits.TCustomElEdit.AdjustHeight
 0001:00177770       Eledits.TCustomElEdit.SetChangeDisabledText
 0001:001777B8       Eledits.TCustomElEdit.SetEditRect
 0001:00177834       Eledits.TCustomElEdit.SetBounds
 0001:00177860       Eledits.TCustomElEdit.CMCtl3DChanged
 0001:001778A0       Eledits.TElEditStrings.Get
 0001:001778CC       Eledits.TElEditStrings.Put
 0001:00177908       Eledits.TElEditStrings.PutObject
 0001:0017791C       Eledits.TElEditStrings.GetObject
 0001:00177934       Eledits.TElEditStrings.GetCount
 0001:00177950       Eledits.TElEditStrings.CutString
 0001:00177B6C       Eledits.TElEditStrings.IndexToParagraph
 0001:00177C6C       Eledits.TElEditStrings.CaretToParagraph
 0001:00177D68       Eledits.TElEditStrings.CaretFromParagraph
 0001:00177E94       Eledits.TElEditStrings.GetParaCount
 0001:00177EF0       Eledits.TElEditStrings.GetParaString
 0001:00177F48       Eledits.TElEditStrings.SetParaString
 0001:00178014       Eledits.TElEditStrings.ReCount
 0001:001780A8       Eledits.TElEditStrings.ReformatParagraph
 0001:001782C8       Eledits.TElEditStrings.Reformat
 0001:00178328       Eledits.TElEditStrings.Changed
 0001:00178380       Eledits.TElEditStrings.GetTextStr
 0001:001784A8       Eledits.TElEditStrings.SetTextStr
 0001:00178708       Eledits.TElEditStrings.GetReText
 0001:001787D4       Eledits.TElEditStrings.Create
 0001:0017883C       Eledits.TElEditStrings.Destroy
 0001:00178884       Eledits.TElEditStrings.Delete
 0001:001788B4       Eledits.TElEditStrings.Exchange
 0001:001788E8       Eledits.TElEditStrings.Clear
 0001:00178918       Eledits.TElEditStrings.AddStrings
 0001:001789C8       Eledits.TElEditStrings.Add
 0001:00178A0C       Eledits.TElEditStrings.Find
 0001:00178AD8       Eledits.TElEditStrings.Insert
 0001:00178C38       Eledits.TElEditStrings.InsertText
 0001:00178E90       Eledits.TElParagraph.SetTextStr
 0001:00178EAC       Eledits.TElParagraph.Get
 0001:00178EEC       Eledits.TElParagraph.Put
 0001:00178F2C       Eledits.TElParagraph.GetTextStr
 0001:00178FB4       Eledits.TElParagraphList.Get
 0001:00178FFC       Eledits.TElParagraphList.Put
 0001:00179020       Eledits.TElParagraphList.Delete
 0001:00179058       Eledits.TElParagraphList.Clear
 0001:0017909C       Eledits.TElAction.Assign
 0001:0017910C       Eledits.TElActionList.Create
 0001:00179160       Eledits.TElActionList.Destroy
 0001:001791B0       Eledits.TElActionList.AddAction
 0001:0017928C       Eledits.TElActionList.GetCanUndo
 0001:001792AC       Eledits.TElActionList.PeekItem
 0001:001792CC       Eledits.TElActionList.PopItem
 0001:001792EC       Eledits.TElActionList.PushItem
 0001:00179348       Eledits.TElActionList.SetMaxUndo
 0001:00179398       Eledits.TElActionList.Lock
 0001:001793A8       Eledits.TElActionList.UnLock
 0001:001793C4       Eledits.Register
 0001:001793F8       Eledits.Finalization
 0001:00179428       Eledits.initialization
 0001:00179F30       Elhotkey.TElHotKey.Create
 0001:00179FAC       Elhotkey.TElHotKey.KeyDown
 0001:0017A104       Elhotkey.TElHotKey.KeyUp
 0001:0017A17C       Elhotkey.TElHotKey.SetShortCut
 0001:0017A1E8       Elhotkey.TElHotKey.GetShortCut
 0001:0017A23C       Elhotkey.TElHotKey.WMChar
 0001:0017A240       Elhotkey.TElHotKey.WMKeyUp
 0001:0017A268       Elhotkey.TElHotKey.WMKeyDown
 0001:0017A290       Elhotkey.TElHotKey.WMSysKeyDown
 0001:0017A298       Elhotkey.TElHotKey.SetInvalidKeys
 0001:0017A3E0       Elhotkey.TElHotKey.ShiftStateToText
 0001:0017A464       Elhotkey.TElHotKey.SetModifiers
 0001:0017A570       Elhotkey.TElHotKey.GetShiftState
 0001:0017A694       Elhotkey.Finalization
 0001:0017A718       Elhotkey.initialization
 0001:0017A768       Elpromptdlg.TElPromptForm
 0001:0017AB10       Elpromptdlg.TElPromptDialog
 0001:0017B00C       Elpromptdlg._SShowNextTime
 0001:0017B014       Elpromptdlg._SDSecondsLeft
 0001:0017B01C       Elpromptdlg.ElMessageDlg
 0001:0017B054       Elpromptdlg.ElMessageDlgEx2
 0001:0017B104       Elpromptdlg.ElMessageDlgEx
 0001:0017B1A0       Elpromptdlg.TElPromptDialog.SetCaptions
 0001:0017B1C0       Elpromptdlg.TElPromptDialog.SetTexts
 0001:0017B1E0       Elpromptdlg.TElPromptDialog
 0001:0017B5E0       Elpromptdlg.TElPromptDialog
 0001:0017B640       Elpromptdlg.TElPromptDialog.Execute
 0001:0017B660       Elpromptdlg.TElPromptDialog.ShowModal
 0001:0017B6D8       Elpromptdlg.TElPromptDialog.Show
 0001:0017B718       ElPromptDlg._16406
 0001:0017B784       ElPromptDlg._16407
 0001:0017B7F4       Elpromptdlg.TElPromptDialog.CreateWndx
 0001:0017C4C4       Elpromptdlg.TElPromptDialog.SetControlTexts
 0001:0017C4E4       Elpromptdlg.TElPromptDialog.SetParentFont
 0001:0017C540       Elpromptdlg.TElPromptDialog.SetFont
 0001:0017C57C       Elpromptdlg.TElPromptDialog.CloseTransfer
 0001:0017C5C0       Elpromptdlg.TElPromptDialog.FontChange
 0001:0017C600       Elpromptdlg.TElPromptForm.HelpBtnClick
 0001:0017C628       Elpromptdlg.TElPromptForm.MessageLabelImageNeeded
 0001:0017C698       Elpromptdlg.TElPromptForm.MessageLabelLinkClick
 0001:0017C704       Elpromptdlg.TElPromptForm.FormShow
 0001:0017C778       Elpromptdlg.TElPromptForm.FormClose
 0001:0017C7C8       Elpromptdlg.TElPromptForm.BtnClick
 0001:0017C81C       Elpromptdlg.TElPromptForm.WMSysCommand
 0001:0017C868       Elpromptdlg.TElPromptForm.TimerTimer
 0001:0017CA90       Elpromptdlg.Finalization
 0001:0017CAC0       Elpromptdlg.initialization
 0001:0017CAC8       Frmcolormapitems.TColorMapItemsForm
 0001:0017CE88       Frmcolormapitems.TColorMapItemsForm.UseFgCBClick
 0001:0017CF4C       Frmcolormapitems.TColorMapItemsForm.CustomFgCBClick
 0001:0017CF80       Frmcolormapitems.TColorMapItemsForm.AddGroupBtnClick
 0001:0017D118       Frmcolormapitems.TColorMapItemsForm.GroupLBClick
 0001:0017D1A8       Frmcolormapitems.TColorMapItemsForm.FormCreate
 0001:0017D1D0       Frmcolormapitems.TColorMapItemsForm.FormDestroy
 0001:0017D1F0       Frmcolormapitems.TColorMapItemsForm.FormShow
 0001:0017D35C       Frmcolormapitems.TColorMapItemsForm.RefreshEntriesList
 0001:0017D4CC       Frmcolormapitems.TColorMapItemsForm.RefreshColors
 0001:0017D61C       Frmcolormapitems.TColorMapItemsForm.UseBkCBClick
 0001:0017D6E0       Frmcolormapitems.TColorMapItemsForm.DelGroupBtnClick
 0001:0017D7F8       Frmcolormapitems.TColorMapItemsForm.AddBtnClick
 0001:0017DA50       Frmcolormapitems.TColorMapItemsForm.DelBtnClick
 0001:0017DA94       Frmcolormapitems.TColorMapItemsForm.EntryLBClick
 0001:0017DCCC       Frmcolormapitems.TColorMapItemsForm.FgColorChange
 0001:0017DD64       Frmcolormapitems.TColorMapItemsForm.BkColorChange
 0001:0017DDFC       Frmcolormapitems.Finalization
 0001:0017DE2C       Frmcolormapitems.initialization
 0001:0017DE34       System.AnsiString
 0001:0017DE6C       System.AnsiString
 0001:0017DE9C       System.AnsiString
 0001:0017DF1C       __InitVCL
 0001:0017DF5C       __ExitVCL
 0001:0017DF68       __LateVCLInit

Line numbers for elpackB6(elpackB6.cpp) segment .text

   144 0001:0000101C   146 0001:0000101F   147 0001:00001024

Line numbers for ElStack(ElStack.pas) segment .text

    69 0001:0008DB78    70 0001:0008DB81    71 0001:0008DB8F    74 0001:0008DB94
    75 0001:0008DBA0    76 0001:0008DBB2    79 0001:0008DBB8    80 0001:0008DBC7
    81 0001:0008DBD6    84 0001:0008DBDC    85 0001:0008DBED    86 0001:0008DBFE
    87 0001:0008DC1A    92 0001:0008DC20    93 0001:0008DC29    94 0001:0008DC32
    95 0001:0008DC47    96 0001:0008DC50    98 0001:0008DC59    99 0001:0008DC60
   100 0001:0008DC71   103 0001:0008DC78   104 0001:0008DC84   105 0001:0008DC98
   106 0001:0008DCAE   108 0001:0008DCB9   109 0001:0008DCCA   111 0001:0008DCD3
   114 0001:0008DCFC   115 0001:0008DD08   116 0001:0008DD1E   117 0001:0008DD30
   118 0001:0008DD36   121 0001:0008DD3C   122 0001:0008DD45   123 0001:0008DD64
   124 0001:0008DD77   125 0001:0008DD7D   126 0001:0008DDAA   129 0001:0008DDCC
   130 0001:0008DDD3   131 0001:0008DDDB   132 0001:0008DDE5   135 0001:0008DDE8
   136 0001:0008DDF1   137 0001:0008DE10   138 0001:0008DE26   141 0001:0008DE48
   142 0001:0008DE55   143 0001:0008DE76   144 0001:0008DE95   145 0001:0008DEBA
   146 0001:0008DEC3   147 0001:0008DED1   149 0001:0008DF44

Line numbers for ElColor(ElColor.pas) segment .text

    32 0001:001379D0    33 0001:001379D4    35 0001:001379DF    42 0001:001379E0
    43 0001:001379E8    45 0001:001379EF    46 0001:001379F8    47 0001:00137A03
    49 0001:00137A0E    51 0001:00137A26    52 0001:00137A44    53 0001:00137A66
    55 0001:00137A88    56 0001:00137A97    63 0001:00137AA4    64 0001:00137AAD
    65 0001:00137AB4    66 0001:00137AC3    67 0001:00137AD2    69 0001:00137AE0
    71 0001:00137AF6    72 0001:00137B0F    73 0001:00137B28    75 0001:00137B41
    76 0001:00137B4C    82 0001:00137B58    83 0001:00137B5E    84 0001:00137B65
    85 0001:00137B74    86 0001:00137B83    88 0001:00137B91    90 0001:00137BC8
    91 0001:00137BD3    96 0001:00137C00    97 0001:00137C08    99 0001:00137C3C

Line numbers for ElEdits(ElEdits.pas) segment .text

  1000 0001:0016C9F4  1001 0001:0016CA1C  1002 0001:0016CA37  1004 0001:0016CA41
  1006 0001:0016CA75  1007 0001:0016CA80  1008 0001:0016CA95  1012 0001:0016CAA0
  1014 0001:0016CAC1  1015 0001:0016CB0C  1025 0001:0016CB24  1026 0001:0016CB4D
  1027 0001:0016CB52  1029 0001:0016CB69  1030 0001:0016CB70  1033 0001:0016CB75
  1037 0001:0016CB7F  1041 0001:0016CBA8  1042 0001:0016CBAD  1045 0001:0016CBC5
  1047 0001:0016CBCB  1048 0001:0016CBDB  1050 0001:0016CBDF  1051 0001:0016CBE2
  1053 0001:0016CBFA  1054 0001:0016CC12  1056 0001:0016CC14  1058 0001:0016CC34
  1067 0001:0016CC61  1070 0001:0016CC68  1071 0001:0016CC74  1072 0001:0016CC81
  1074 0001:0016CC8B  1075 0001:0016CC9D  1079 0001:0016CCA4  1080 0001:0016CCCB
  1082 0001:0016CCE3  1083 0001:0016CCEF  1085 0001:0016CD01  1086 0001:0016CD0D
  1088 0001:0016CD37  1092 0001:0016CD3C  1093 0001:0016CD48  1095 0001:0016CD56
  1097 0001:0016CD62  1100 0001:0016CD68  1101 0001:0016CD71  1102 0001:0016CD91
  1108 0001:0016CD98  1109 0001:0016CDA4  1110 0001:0016CDB2  1111 0001:0016CDBA
  1112 0001:0016CDC5  1113 0001:0016CDD0  1114 0001:0016CDE2  1115 0001:0016CDF4
  1120 0001:0016CDF8  1121 0001:0016CE04  1122 0001:0016CE10  1123 0001:0016CE18
  1124 0001:0016CE24  1125 0001:0016CE30  1126 0001:0016CE48  1127 0001:0016CE56
  1128 0001:0016CE61  1129 0001:0016CE6C  1135 0001:0016CE70  1136 0001:0016CE7C
  1137 0001:0016CE97  1138 0001:0016CEA5  1139 0001:0016CEB0  1140 0001:0016CEBB
  1144 0001:0016CEC0  1145 0001:0016CECC  1147 0001:0016CEDA  1148 0001:0016CEE6
  1150 0001:0016CEFA  1160 0001:0016CF00  1161 0001:0016CF06  1162 0001:0016CF15
  1168 0001:0016CF23  1171 0001:0016CF28  1173 0001:0016CF4A  1174 0001:0016CF4F
  1176 0001:0016CF5D  1177 0001:0016CF6D  1180 0001:0016CF83  1182 0001:0016CF9D
  1183 0001:0016CFAA  1185 0001:0016CFC3  1186 0001:0016CFEF  1188 0001:0016CFF5
  1189 0001:0016D000  1190 0001:0016D010  1195 0001:0016D01A  1196 0001:0016D020
  1199 0001:0016D02D  1200 0001:0016D036  1205 0001:0016D05B  1227 0001:0016D060
  1228 0001:0016D073  1230 0001:0016D0A6  1231 0001:0016D0B3  1232 0001:0016D0D2
  1233 0001:0016D0E0  1234 0001:0016D0EE  1237 0001:0016D0FB  1238 0001:0016D137
  1240 0001:0016D13C  1241 0001:0016D168  1242 0001:0016D176  1243 0001:0016D186
  1245 0001:0016D1B6  1246 0001:0016D1D9  1247 0001:0016D1E3  1248 0001:0016D1ED
  1249 0001:0016D1F7  1250 0001:0016D201  1254 0001:0016D209  1256 0001:0016D215
  1257 0001:0016D233  1258 0001:0016D23D  1259 0001:0016D247  1260 0001:0016D251
  1263 0001:0016D259  1264 0001:0016D276  1265 0001:0016D27E  1267 0001:0016D28C
  1268 0001:0016D2AB  1271 0001:0016D2DA  1274 0001:0016D2F5  1275 0001:0016D301
  1278 0001:0016D30E  1279 0001:0016D336  1280 0001:0016D341  1282 0001:0016D351
  1284 0001:0016D365  1285 0001:0016D381  1286 0001:0016D393  1287 0001:0016D3DF
  1288 0001:0016D406  1289 0001:0016D44D  1290 0001:0016D461  1291 0001:0016D473
  1295 0001:0016D48A  1297 0001:0016D49C  1298 0001:0016D4B6  1299 0001:0016D4D0
  1300 0001:0016D4E6  1307 0001:0016D500  1309 0001:0016D506  1310 0001:0016D523
  1311 0001:0016D52E  1312 0001:0016D539  1313 0001:0016D54B  1316 0001:0016D55F
  1317 0001:0016D571  1318 0001:0016D584  1324 0001:0016D5AF  1325 0001:0016D5C9
  1326 0001:0016D5E3  1327 0001:0016D5F9  1334 0001:0016D613  1335 0001:0016D630
  1336 0001:0016D63B  1337 0001:0016D646  1338 0001:0016D66C  1339 0001:0016D689
  1345 0001:0016D698  1346 0001:0016D6A4  1349 0001:0016D6B1  1350 0001:0016D6D9
  1353 0001:0016D6FE  1354 0001:0016D712  1355 0001:0016D75E  1362 0001:0016D76F
  1363 0001:0016D783  1364 0001:0016D794  1368 0001:0016D7AA  1370 0001:0016D7C3
  1371 0001:0016D7F5  1372 0001:0016D812  1373 0001:0016D857  1374 0001:0016D86C
  1375 0001:0016D87D  1378 0001:0016D88E  1379 0001:0016D8AA  1380 0001:0016D8B5
  1381 0001:0016D8C0  1382 0001:0016D8D2  1384 0001:0016D8E4  1385 0001:0016D901
  1389 0001:0016D910  1391 0001:0016D95A  1392 0001:0016D96E  1393 0001:0016D996
  1394 0001:0016D9A2  1395 0001:0016D9AE  1397 0001:0016D9B8  1399 0001:0016D9DB
  1401 0001:0016D9F7  1406 0001:0016DA1F  1408 0001:0016DA3B  1412 0001:0016DA54
  1414 0001:0016DA70  1415 0001:0016DA81  1417 0001:0016DA91  1418 0001:0016DAAD
  1419 0001:0016DAD2  1420 0001:0016DAF1  1421 0001:0016DB05  1425 0001:0016DB3D
  1426 0001:0016DB5A  1430 0001:0016DB6C  1431 0001:0016DB7D  1432 0001:0016DB8F
  1433 0001:0016DB99  1434 0001:0016DBAB  1436 0001:0016DBBD  1438 0001:0016DBC7
  1439 0001:0016DBD9  1440 0001:0016DBF3  1441 0001:0016DC15  1442 0001:0016DC30
  1443 0001:0016DC41  1444 0001:0016DC53  1445 0001:0016DC65  1447 0001:0016DC77
  1450 0001:0016DCAE  1452 0001:0016DCF5  1453 0001:0016DD09  1454 0001:0016DD31
  1456 0001:0016DD4B  1460 0001:0016DD62  1461 0001:0016DD7C  1467 0001:0016DD99
  1468 0001:0016DDA4  1469 0001:0016DDAF  1470 0001:0016DDC1  1472 0001:0016DDD3
  1476 0001:0016DE0D  1479 0001:0016DE19  1481 0001:0016DE2C  1484 0001:0016DE65
  1485 0001:0016DE6D  1486 0001:0016DE7F  1487 0001:0016DE91  1488 0001:0016DEA3
  1492 0001:0016DEB3  1493 0001:0016DEBB  1494 0001:0016DECD  1495 0001:0016DEDF
  1496 0001:0016DEF1  1500 0001:0016DF01  1501 0001:0016DF09  1502 0001:0016DF13
  1503 0001:0016DF25  1504 0001:0016DF37  1508 0001:0016DF47  1509 0001:0016DF4F
  1510 0001:0016DF59  1511 0001:0016DF85  1512 0001:0016DF8F  1513 0001:0016DFA1
  1514 0001:0016DFB3  1519 0001:0016DFC3  1520 0001:0016DFCB  1521 0001:0016DFDD
  1522 0001:0016DFEF  1523 0001:0016E001  1529 0001:0016E011  1530 0001:0016E019
  1531 0001:0016E02B  1532 0001:0016E03D  1533 0001:0016E04F  1539 0001:0016E05F
  1540 0001:0016E067  1541 0001:0016E081  1542 0001:0016E093  1543 0001:0016E0A5
  1549 0001:0016E0B5  1550 0001:0016E0BD  1551 0001:0016E0D7  1552 0001:0016E0E9
  1553 0001:0016E0FB  1560 0001:0016E10B  1562 0001:0016E123  1564 0001:0016E12D
  1566 0001:0016E136  1567 0001:0016E14D  1568 0001:0016E159  1569 0001:0016E164
  1571 0001:0016E16C  1573 0001:0016E175  1574 0001:0016E18C  1575 0001:0016E198
  1576 0001:0016E1A3  1579 0001:0016E1AB  1581 0001:0016E1BE  1584 0001:0016E1F7
  1585 0001:0016E1FD  1587 0001:0016E233  1588 0001:0016E245  1589 0001:0016E25F
  1593 0001:0016E275  1594 0001:0016E27B  1596 0001:0016E2A1  1597 0001:0016E2B3
  1598 0001:0016E2CD  1602 0001:0016E2E3  1604 0001:0016E2E9  1605 0001:0016E2F3
  1608 0001:0016E2FF  1609 0001:0016E309  1610 0001:0016E323  1614 0001:0016E339
  1616 0001:0016E33F  1617 0001:0016E357  1621 0001:0016E38D  1622 0001:0016E397
  1623 0001:0016E3C3  1625 0001:0016E3CD  1626 0001:0016E3E7  1630 0001:0016E3FD
  1631 0001:0016E40F  1632 0001:0016E429  1636 0001:0016E43F  1637 0001:0016E451
  1638 0001:0016E46B  1642 0001:0016E481  1643 0001:0016E49B  1644 0001:0016E4B5
  1648 0001:0016E4C8  1649 0001:0016E4E2  1650 0001:0016E4FC  1654 0001:0016E50D
  1657 0001:0016E520  1659 0001:0016E52E  1661 0001:0016E541  1662 0001:0016E558
  1664 0001:0016E560  1666 0001:0016E56A  1667 0001:0016E581  1668 0001:0016E58D
  1669 0001:0016E598  1671 0001:0016E5A0  1673 0001:0016E5AA  1675 0001:0016E5B6
  1676 0001:0016E5BE  1677 0001:0016E5CA  1679 0001:0016E5D5  1681 0001:0016E5DD
  1683 0001:0016E5E7  1684 0001:0016E5FE  1685 0001:0016E60A  1686 0001:0016E615
  1688 0001:0016E61D  1690 0001:0016E627  1691 0001:0016E62F  1693 0001:0016E637
  1695 0001:0016E64D  1696 0001:0016E659  1698 0001:0016E661  1700 0001:0016E66A
  1701 0001:0016E693  1702 0001:0016E6A1  1705 0001:0016E6A9  1707 0001:0016E6B2
  1708 0001:0016E6CB  1709 0001:0016E6D9  1712 0001:0016E6E1  1714 0001:0016E6FA
  1718 0001:0016E727  1719 0001:0016E750  1720 0001:0016E75C  1721 0001:0016E764
  1722 0001:0016E76F  1723 0001:0016E781  1724 0001:0016E793  1725 0001:0016E79E
  1729 0001:0016E7B4  1730 0001:0016E7CD  1731 0001:0016E7D9  1732 0001:0016E7E1
  1733 0001:0016E7EC  1734 0001:0016E7FE  1735 0001:0016E810  1736 0001:0016E81B
  1740 0001:0016E831  1741 0001:0016E83D  1742 0001:0016E845  1743 0001:0016E84F
  1744 0001:0016E859  1745 0001:0016E86B  1749 0001:0016E882  1750 0001:0016E88E
  1751 0001:0016E896  1754 0001:0016E8EF  1755 0001:0016E8FA  1756 0001:0016E905
  1757 0001:0016E917  1764 0001:0016E92B  1765 0001:0016E9A8  1768 0001:0016E9D4
  1769 0001:0016E9E0  1770 0001:0016E9ED  1771 0001:0016E9F8  1773 0001:0016EA04
  1774 0001:0016EA0C  1775 0001:0016EA18  1776 0001:0016EA23  1778 0001:0016EA2E
  1790 0001:0016EA34  1791 0001:0016EA56  1792 0001:0016EA67  1794 0001:0016EA77
  1795 0001:0016EA7F  1797 0001:0016EA87  1798 0001:0016EA92  1799 0001:0016EAA0
  1800 0001:0016EAB1  1801 0001:0016EABD  1802 0001:0016EAD0  1803 0001:0016EAD9
  1804 0001:0016EAE8  1806 0001:0016EAF2  1807 0001:0016EAFD  1808 0001:0016EB09
  1809 0001:0016EB1A  1810 0001:0016EB26  1811 0001:0016EB39  1812 0001:0016EB42
  1817 0001:0016EB51  1819 0001:0016EB7E  1838 0001:0016EB84  1839 0001:0016EBAC
  1840 0001:0016EBBC  1841 0001:0016EBC4  1843 0001:0016EBCC  1845 0001:0016EBDE
  1849 0001:0016EBF9  1850 0001:0016EC0A  1851 0001:0016EC1D  1852 0001:0016EC29
  1853 0001:0016EC45  1854 0001:0016EC57  1855 0001:0016EC5D  1856 0001:0016EC74
  1862 0001:0016EC7D  1863 0001:0016EC85  1864 0001:0016EC90  1865 0001:0016ECA6
  1868 0001:0016ECB0  1870 0001:0016ECCD  1875 0001:0016ECF5  1876 0001:0016ED01
  1878 0001:0016ED09  1879 0001:0016ED15  1880 0001:0016ED21  1881 0001:0016ED2C
  1882 0001:0016ED44  1883 0001:0016ED4F  1884 0001:0016ED5A  1885 0001:0016ED66
  1886 0001:0016ED71  1887 0001:0016ED7C  1888 0001:0016ED8D  1889 0001:0016ED9F
  1890 0001:0016EDB1  1891 0001:0016EE0C  1894 0001:0016EE10  1895 0001:0016EE1C
  1896 0001:0016EE29  1910 0001:0016EE30  1912 0001:0016EE52  1913 0001:0016EE5B
  1916 0001:0016EE6E  1918 0001:0016EE7C  1919 0001:0016EE85  1921 0001:0016EE9A
  1923 0001:0016EE9E  1924 0001:0016EEA4  1928 0001:0016EEB4  1930 0001:0016EEDA
  1932 0001:0016EEE0  1933 0001:0016EEEB  1937 0001:0016EF19  1943 0001:0016EF21
  1945 0001:0016EF29  1947 0001:0016EF3A  1948 0001:0016EF60  1949 0001:0016EF6A
  1950 0001:0016EF76  1951 0001:0016EF81  1952 0001:0016EF8C  1953 0001:0016EFCE
  1960 0001:0016EFD4  1961 0001:0016EFE0  1962 0001:0016EFE4  1964 0001:0016F008
  1965 0001:0016F013  1967 0001:0016F017  1972 0001:0016F037  1975 0001:0016F048
  1977 0001:0016F05A  1978 0001:0016F071  1979 0001:0016F07B  1980 0001:0016F092
  1982 0001:0016F09C  1983 0001:0016F0AE  1984 0001:0016F0C4  1985 0001:0016F0D6
  1986 0001:0016F0EF  1988 0001:0016F101  1989 0001:0016F122  1992 0001:0016F136
  1993 0001:0016F154  1995 0001:0016F161  1997 0001:0016F19D  1998 0001:0016F1A5
  2000 0001:0016F1AD  2012 0001:0016F1B4  2014 0001:0016F1C1  2017 0001:0016F1FC
  2019 0001:0016F211  2020 0001:0016F222  2021 0001:0016F22D  2022 0001:0016F238
  2024 0001:0016F252  2025 0001:0016F26C  2026 0001:0016F286  2028 0001:0016F2A0
  2033 0001:0016F2D0  2034 0001:0016F2E8  2050 0001:0016F2FB  2052 0001:0016F30B
  2053 0001:0016F316  2054 0001:0016F31F  2056 0001:0016F341  2057 0001:0016F34D
  2059 0001:0016F36B  2060 0001:0016F377  2062 0001:0016F380  2063 0001:0016F390
  2065 0001:0016F399  2066 0001:0016F3A5  2068 0001:0016F3AE  2069 0001:0016F3B5
  2071 0001:0016F3DB  2072 0001:0016F3E5  2081 0001:0016F3EC  2082 0001:0016F3F5
  2084 0001:0016F405  2085 0001:0016F41D  2087 0001:0016F425  2088 0001:0016F434
  2089 0001:0016F446  2090 0001:0016F458  2092 0001:0016F470  2093 0001:0016F481
  2094 0001:0016F4A3  2095 0001:0016F4B2  2097 0001:0016F4D4  2098 0001:0016F4E5
  2099 0001:0016F4F1  2101 0001:0016F4FC  2105 0001:0016F52F  2106 0001:0016F53B
  2108 0001:0016F585  2109 0001:0016F5A3  2113 0001:0016F5CF  2114 0001:0016F5E6
  2115 0001:0016F5FF  2116 0001:0016F613  2117 0001:0016F62E  2123 0001:0016F639
  2126 0001:0016F67E  2127 0001:0016F694  2128 0001:0016F6AA  2129 0001:0016F6BC
  2130 0001:0016F6DB  2132 0001:0016F70C  2133 0001:0016F75E  2134 0001:0016F771
  2135 0001:0016F78E  2137 0001:0016F79F  2138 0001:0016F7A7  2177 0001:0016F7AC
  2178 0001:0016F7D7  2179 0001:0016F7EC  2180 0001:0016F7F8  2181 0001:0016F80D
  2185 0001:0016F819  2197 0001:0016F832  2198 0001:0016F85D  2203 0001:0016F8A1
  2222 0001:0016F8A8  2223 0001:0016F8DA  2224 0001:0016F8EA  2225 0001:0016F904
  2226 0001:0016F91C  2228 0001:0016F93A  2230 0001:0016F95A  2233 0001:0016F968
  2234 0001:0016F974  2235 0001:0016F97E  2236 0001:0016F994  2237 0001:0016F9B9
  2239 0001:0016F9CB  2241 0001:0016F9E6  2242 0001:0016FA16  2244 0001:0016FA5A
  2249 0001:0016FA84  2250 0001:0016FA92  2251 0001:0016FAB4  2252 0001:0016FAC7
  2253 0001:0016FAE4  2255 0001:0016FB0E  2257 0001:0016FB13  2258 0001:0016FB1F
  2259 0001:0016FB32  2260 0001:0016FB3F  2263 0001:0016FB9F  2266 0001:0016FBC5
  2268 0001:0016FBD7  2270 0001:0016FBEC  2271 0001:0016FBF2  2273 0001:0016FBFC
  2275 0001:0016FC10  2277 0001:0016FC28  2280 0001:0016FC2E  2281 0001:0016FC51
  2290 0001:0016FC7F  2291 0001:0016FCA1  2301 0001:0016FCD2  2305 0001:0016FCEC
  2310 0001:0016FCF9  2311 0001:0016FD0E  2313 0001:0016FD1C  2315 0001:0016FD22
  2316 0001:0016FD2A  2317 0001:0016FD32  2321 0001:0016FD4F  2322 0001:0016FD57
  2323 0001:0016FD6B  2328 0001:0016FD87  2329 0001:0016FD8F  2330 0001:0016FD9A
  2333 0001:0016FDA2  2335 0001:0016FDB2  2337 0001:0016FDBE  2338 0001:0016FDCB
  2339 0001:0016FDEC  2341 0001:0016FDF2  2343 0001:0016FE02  2344 0001:0016FE0F
  2345 0001:0016FE28  2346 0001:0016FE41  2347 0001:0016FE62  2348 0001:0016FE68
  2349 0001:0016FE80  2351 0001:0016FE9B  2352 0001:0016FEB8  2356 0001:0016FED9
  2357 0001:0016FEE7  2359 0001:0016FEF5  2361 0001:0016FF01  2362 0001:0016FF11
  2363 0001:0016FF1E  2366 0001:0016FF3F  2367 0001:0016FF51  2368 0001:0016FF63
  2369 0001:0016FF75  2370 0001:0016FF83  2371 0001:0016FF8F  2372 0001:0016FFE0
  2376 0001:0016FFE8  2377 0001:0016FFF0  2378 0001:0016FFFD  2379 0001:0017000F
  2383 0001:00170014  2384 0001:0017001C  2385 0001:00170029  2386 0001:0017003B
  2390 0001:00170040  2391 0001:0017004C  2393 0001:0017005A  2395 0001:00170066
  2399 0001:0017006C  2400 0001:00170078  2402 0001:00170086  2403 0001:00170092
  2404 0001:0017009E  2405 0001:001700AA  2406 0001:001700B4  2407 0001:001700BC
  2409 0001:001700E2  2413 0001:001700E8  2414 0001:001700F4  2416 0001:00170102
  2417 0001:0017010E  2418 0001:00170116  2420 0001:0017013C  2424 0001:00170140
  2425 0001:0017014C  2427 0001:0017015A  2428 0001:00170166  2429 0001:0017016E
  2431 0001:00170194  2435 0001:00170198  2436 0001:001701A4  2438 0001:001701B2
  2439 0001:001701BE  2441 0001:001701D2  2445 0001:001701D8  2446 0001:001701E5
  2448 0001:001701F3  2449 0001:001701FF  2450 0001:0017020F  2452 0001:00170217
  2455 0001:0017021C  2456 0001:00170224  2457 0001:00170231  2458 0001:00170243
  2464 0001:00170248  2465 0001:0017026E  2466 0001:00170273  2467 0001:0017027A
  2468 0001:00170282  2470 0001:001702A4  2471 0001:001702C9  2473 0001:001702D1
  2474 0001:00170316  2476 0001:00170318  2477 0001:00170342  2483 0001:00170348
  2484 0001:0017036B  2485 0001:00170370  2486 0001:0017038C  2487 0001:0017039F
  2488 0001:001703C9  2489 0001:001703EF  2497 0001:001703F4  2498 0001:0017041D
  2500 0001:00170430  2502 0001:00170444  2503 0001:0017047A  2510 0001:001704A6
  2512 0001:001704C7  2514 0001:001704DF  2515 0001:001704F6  2516 0001:00170504
  2517 0001:0017051B  2518 0001:00170521  2519 0001:0017052D  2520 0001:0017056A
  2521 0001:00170576  2523 0001:001705A7  2524 0001:001705B3  2525 0001:001705BF
  2526 0001:001705DD  2528 0001:00170600  2529 0001:00170638  2536 0001:00170660
  2537 0001:00170691  2538 0001:001706B3  2539 0001:001706BE  2540 0001:001706C9
  2541 0001:001706DC  2542 0001:001706FC  2543 0001:0017070A  2544 0001:00170716
  2546 0001:0017071C  2547 0001:00170721  2549 0001:00170726  2551 0001:00170732
  2556 0001:00170768  2559 0001:0017076E  2560 0001:0017077A  2562 0001:001707B1
  2564 0001:001707B7  2565 0001:001707CD  2567 0001:001707F0  2568 0001:00170825
  2577 0001:0017082C  2581 0001:0017085D  2587 0001:00170892  2588 0001:001708A0
  2589 0001:001708AC  2591 0001:001708B2  2592 0001:001708B7  2595 0001:001708BC
  2597 0001:001708C8  2602 0001:001708FE  2604 0001:00170904  2605 0001:00170910
  2607 0001:00170947  2609 0001:0017094D  2610 0001:00170963  2612 0001:00170986
  2613 0001:001709BE  2631 0001:001709C8  2632 0001:001709FA  2633 0001:00170A0C
  2634 0001:00170A18  2635 0001:00170A23  2636 0001:00170A37  2638 0001:00170A49
  2639 0001:00170A51  2641 0001:00170A65  2643 0001:00170A70  2646 0001:00170A7C
  2652 0001:00170AAD  2657 0001:00170ADD  2659 0001:00170AE9  2660 0001:00170AF7
  2664 0001:00170AFC  2668 0001:00170B32  2670 0001:00170B38  2672 0001:00170B3D
  2673 0001:00170B4B  2674 0001:00170B5E  2675 0001:00170B78  2676 0001:00170BA2
  2678 0001:00170BA7  2680 0001:00170BB3  2681 0001:00170BBF  2682 0001:00170BCE
  2685 0001:00170BD4  2686 0001:00170C1B  2688 0001:00170C29  2690 0001:00170C32
  2691 0001:00170C3D  2694 0001:00170C45  2695 0001:00170C54  2697 0001:00170C5F
  2698 0001:00170C67  2700 0001:00170C6C  2702 0001:00170C82  2704 0001:00170C88
  2706 0001:00170C95  2707 0001:00170C9B  2708 0001:00170C9F  2709 0001:00170CB4
  2710 0001:00170CCD  2713 0001:00170CDC  2714 0001:00170CE4  2715 0001:00170CEC
  2716 0001:00170CF0  2717 0001:00170D02  2720 0001:00170D06  2722 0001:00170D16
  2723 0001:00170D27  2724 0001:00170D2F  2726 0001:00170D31  2727 0001:00170D35
  2728 0001:00170D41  2730 0001:00170D49  2731 0001:00170D8E  2734 0001:00170D98
  2735 0001:00170DA1  2736 0001:00170DB5  2742 0001:00170DBC  2744 0001:00170DD8
  2745 0001:00170DEA  2747 0001:00170E17  2749 0001:00170E2E  2750 0001:00170E3A
  2751 0001:00170E46  2752 0001:00170E60  2753 0001:00170E6B  2754 0001:00170E76
  2758 0001:00170E8A  2759 0001:00170E95  2760 0001:00170EA0  2761 0001:00170EAB
  2762 0001:00170EB6  2764 0001:00170ED0  2765 0001:00170EDB  2766 0001:00170F09
  2806 0001:00170F10  2807 0001:00170F1C  2809 0001:00170F30  2810 0001:00170F3C
  2812 0001:00170F52  2816 0001:00170F70  2817 0001:00170F8A  2819 0001:00170F9B
  2823 0001:00170FA0  2824 0001:00170FB4  2825 0001:00170FC4  2826 0001:00170FEB
  2827 0001:00170FF7  2828 0001:00170FFF  2829 0001:00171007  2834 0001:00171010
  2835 0001:00171019  2837 0001:00171029  2838 0001:00171040  2839 0001:00171058
  2840 0001:00171067  2842 0001:0017109B  2844 0001:001710CB  2850 0001:001710D0
  2851 0001:001710DC  2852 0001:001710E8  2854 0001:00171104  2857 0001:00171117
  2859 0001:00171123  2860 0001:00171131  2861 0001:0017113F  2862 0001:0017114B
  2863 0001:0017115C  2865 0001:0017116A  2874 0001:00171170  2875 0001:00171198
  2877 0001:001711B6  2878 0001:001711C2  2879 0001:001711E7  2881 0001:00171227
  2882 0001:00171245  2883 0001:00171251  2884 0001:00171263  2885 0001:00171281
  2887 0001:00171289  2888 0001:00171297  2890 0001:001712A6  2894 0001:001712B3
  2895 0001:001712C1  2897 0001:001712CE  2900 0001:001712DA  2901 0001:00171302
  2902 0001:0017132D  2904 0001:0017134D  2905 0001:0017136B  2906 0001:0017137D
  2907 0001:0017139B  2909 0001:001713B5  2910 0001:001713BD  2912 0001:001713EB
  2915 0001:00171418  2918 0001:00171425  2919 0001:0017143D  2920 0001:00171448
  2921 0001:00171450  2923 0001:0017148C  2927 0001:00171490  2928 0001:0017149C
  2930 0001:001714AE  2931 0001:001714BA  2932 0001:001714D4  2933 0001:001714EC
  2934 0001:00171503  2936 0001:00171517  2937 0001:00171528  2939 0001:00171541
  2941 0001:0017155E  2942 0001:00171579  2950 0001:00171592  2951 0001:0017159A
  2953 0001:001715B4  2956 0001:001715B8  2957 0001:001715C4  2958 0001:001715DE
  2961 0001:001715E4  2962 0001:001715F0  2963 0001:001715FE  2964 0001:0017160B
  2972 0001:00171610  2973 0001:00171631  2975 0001:00171641  2976 0001:00171653
  2978 0001:0017166F  2980 0001:00171677  2981 0001:00171685  2982 0001:001716B0
  2984 0001:001716BA  2985 0001:001716E5  2988 0001:001716EF  2991 0001:00171707
  2993 0001:00171732  2994 0001:0017173D  2997 0001:00171745  2999 0001:00171761
  3000 0001:0017179F  3002 0001:001717BA  3005 0001:001717CA  3009 0001:0017180E
  3011 0001:0017183D  3012 0001:00171888  3014 0001:00171894  3015 0001:001718A9
  3017 0001:001718B1  3019 0001:001718BD  3020 0001:001718C8  3022 0001:001718D0
  3027 0001:001718E6  3029 0001:0017190E  3030 0001:00171956  3031 0001:00171962
  3032 0001:00171977  3033 0001:00171983  3034 0001:0017198E  3035 0001:00171996
  3036 0001:001719A6  3040 0001:001719BC  3042 0001:001719CC  3044 0001:001719DC
  3046 0001:00171A07  3048 0001:00171A17  3049 0001:00171A22  3050 0001:00171A2A
  3055 0001:00171A40  3056 0001:00171A7E  3058 0001:00171A99  3060 0001:00171AA9
  3061 0001:00171AED  3063 0001:00171B1C  3065 0001:00171B28  3066 0001:00171B3D
  3068 0001:00171B45  3070 0001:00171B51  3071 0001:00171B5C  3073 0001:00171B64
  3078 0001:00171B77  3080 0001:00171B97  3081 0001:00171BA9  3082 0001:00171BB1
  3084 0001:00171BBD  3085 0001:00171BC8  3087 0001:00171BD0  3092 0001:00171C1F
  3097 0001:00171C24  3098 0001:00171C34  3099 0001:00171C49  3101 0001:00171C55
  3102 0001:00171C63  3103 0001:00171C70  3104 0001:00171C7C  3105 0001:00171C8D
  3107 0001:00171C9B  3110 0001:00171CA0  3111 0001:00171CBF  3113 0001:00171CD1
  3114 0001:00171CDD  3115 0001:00171CE3  3116 0001:00171CED  3117 0001:00171CF9
  3118 0001:00171D03  3119 0001:00171D28  3121 0001:00171D32  3122 0001:00171D3A
  3123 0001:00171D56  3124 0001:00171D62  3126 0001:00171D98  3130 0001:00171DA4
  3131 0001:00171DB0  3133 0001:00171DBE  3134 0001:00171DCA  3137 0001:00171DDB
  3138 0001:00171DF2  3140 0001:00171E00  3141 0001:00171E0F  3142 0001:00171E18
  3143 0001:00171E23  3144 0001:00171E2C  3145 0001:00171E37  3151 0001:00171E3C
  3152 0001:00171E5F  3153 0001:00171E80  3155 0001:00171E98  3157 0001:00171EA0
  3158 0001:00171EA9  3161 0001:00171EB3  3162 0001:00171EBF  3163 0001:00171ECA
  3164 0001:00171EDD  3165 0001:00171EE3  3166 0001:00171EF9  3168 0001:00171F02
  3169 0001:00171F23  3170 0001:00171F50  3173 0001:00171F58  3174 0001:00171F64
  3175 0001:00171F77  3181 0001:00171F7C  3182 0001:00171F88  3184 0001:00171F91
  3185 0001:00171FAF  3186 0001:00171FCA  3188 0001:00171FDD  3189 0001:00171FF4
  3192 0001:00172000  3193 0001:0017201B  3194 0001:00172036  3196 0001:0017204C
  3199 0001:00172050  3200 0001:0017205C  3202 0001:00172065  3205 0001:0017206F
  3206 0001:00172081  3209 0001:0017208B  3211 0001:00172099  3212 0001:001720AA
  3218 0001:001720C5  3219 0001:001720D6  3224 0001:001720ED  3228 0001:001720F4
  3229 0001:00172116  3230 0001:0017211F  3231 0001:00172128  3233 0001:00172130
  3234 0001:0017213E  3235 0001:0017217C  3238 0001:00172180  3239 0001:0017218C
  3240 0001:0017219B  3243 0001:001721A0  3244 0001:001721AC  3245 0001:001721BA
  3248 0001:001721C0  3249 0001:001721CC  3250 0001:001721E3  3254 0001:001721E8
  3255 0001:001721F4  3256 0001:001721FC  3261 0001:00172200  3262 0001:0017220C
  3263 0001:00172235  3264 0001:0017223E  3269 0001:00172244  3270 0001:00172251
  3271 0001:00172262  3272 0001:00172283  3273 0001:00172292  3278 0001:00172298
  3279 0001:001722BD  3281 0001:001722CA  3282 0001:001722D5  3284 0001:001722D7
  3285 0001:001722E2  3286 0001:001722ED  3288 0001:001722F3  3289 0001:0017230A
  3291 0001:00172324  3292 0001:0017233B  3294 0001:00172361  3302 0001:00172368
  3306 0001:00172395  3307 0001:001723A0  3308 0001:001723B0  3309 0001:001723C0
  3310 0001:001723D4  3317 0001:001723F0  3318 0001:00172420  3321 0001:00172430
  3322 0001:0017245E  3323 0001:00172478  3324 0001:0017248F  3325 0001:001724B6
  3327 0001:001724C2  3331 0001:00172516  3335 0001:0017251C  3336 0001:00172530
  3338 0001:00172540  3344 0001:0017256D  3345 0001:0017257D  3346 0001:0017259D
  3347 0001:001725B4  3349 0001:001725C2  3351 0001:001725D6  3354 0001:001725DC
  3355 0001:001725E3  3356 0001:001725FA  3359 0001:00172600  3360 0001:00172607
  3361 0001:0017261E  3364 0001:00172624  3365 0001:0017262B  3366 0001:00172642
  3372 0001:00172648  3373 0001:00172651  3375 0001:00172667  3377 0001:00172678
  3380 0001:0017269A  3381 0001:001726AB  3382 0001:001726B4  3383 0001:001726BD
  3384 0001:001726D8  3385 0001:001726E6  3386 0001:001726F8  3387 0001:0017270A
  3388 0001:00172717  3389 0001:00172738  3391 0001:00172751  3395 0001:00172764
  3396 0001:00172775  3397 0001:00172783  3398 0001:00172792  3399 0001:001727A1
  3400 0001:001727B5  3401 0001:001727C3  3402 0001:001727CB  3406 0001:001727DB
  3410 0001:001727EC  3413 0001:001727FF  3414 0001:00172809  3418 0001:00172810
  3419 0001:0017281C  3420 0001:00172822  3422 0001:0017282D  3423 0001:00172836
  3431 0001:0017283C  3432 0001:00172848  3435 0001:00172853  3436 0001:00172881
  3437 0001:00172899  3439 0001:001728B0  3441 0001:001728D2  3442 0001:001728DC
  3443 0001:001728E6  3445 0001:001728FC  3446 0001:00172903  3447 0001:0017290F
  3449 0001:00172916  3451 0001:00172944  3452 0001:0017294E  3454 0001:00172958
  3457 0001:0017295C  3458 0001:00172969  3459 0001:00172974  3461 0001:00172984
  3462 0001:0017298C  3464 0001:00172998  3465 0001:001729B2  3467 0001:001729C0
  3468 0001:001729CC  3469 0001:001729D4  3470 0001:001729E0  3472 0001:001729F1
  3474 0001:001729FB  3476 0001:00172A1B  3479 0001:00172A20  3480 0001:00172A2C
  3482 0001:00172A38  3483 0001:00172A3D  3486 0001:00172A47  3487 0001:00172A50
  3488 0001:00172A5A  3489 0001:00172A65  3490 0001:00172A71  3492 0001:00172A8E
  3494 0001:00172AAE  3497 0001:00172AB4  3498 0001:00172AC1  3499 0001:00172ACC
  3501 0001:00172AD5  3503 0001:00172AE1  3504 0001:00172AE6  3509 0001:00172AF2
  3511 0001:00172B02  3514 0001:00172B0A  3519 0001:00172B10  3520 0001:00172B1C
  3521 0001:00172B27  3523 0001:00172B37  3524 0001:00172B5F  3525 0001:00172B6D
  3526 0001:00172B7D  3527 0001:00172B99  3528 0001:00172BA4  3529 0001:00172BAF
  3530 0001:00172BC1  3531 0001:00172BD3  3532 0001:00172C04  3533 0001:00172C0C
  3535 0001:00172C25  3543 0001:00172C34  3544 0001:00172C45  3546 0001:00172C89
  3547 0001:00172C93  3548 0001:00172CB6  3549 0001:00172CC1  3550 0001:00172CCC
  3551 0001:00172CDE  3552 0001:00172CF0  3553 0001:00172CFB  3555 0001:00172D05
  3557 0001:00172D0F  3558 0001:00172D32  3559 0001:00172D3D  3560 0001:00172D48
  3561 0001:00172D61  3562 0001:00172D7A  3563 0001:00172D86  3564 0001:00172D92
  3565 0001:00172DA0  3566 0001:00172DAB  3569 0001:00172DC1  3571 0001:00172DCB
  3572 0001:00172DEE  3573 0001:00172DF9  3574 0001:00172E04  3576 0001:00172E0A
  3577 0001:00172E12  3578 0001:00172E1E  3581 0001:00172E2C  3582 0001:00172E46
  3583 0001:00172E51  3584 0001:00172E62  3586 0001:00172E6C  3588 0001:00172E72
  3589 0001:00172E80  3590 0001:00172E9A  3592 0001:00172EA3  3593 0001:00172EAF
  3594 0001:00172EC5  3595 0001:00172ED1  3596 0001:00172EE2  3599 0001:00172EE4
  3600 0001:00172EF2  3601 0001:00172F08  3604 0001:00172F10  3605 0001:00172F1F
  3606 0001:00172F24  3611 0001:00172F30  3613 0001:00172F3A  3614 0001:00172F50
  3620 0001:00172F58  3621 0001:00172F68  3622 0001:00172F80  3623 0001:00172F9C
  3625 0001:00172FA2  3626 0001:00172FAC  3627 0001:00172FCF  3628 0001:00172FDD
  3629 0001:00172FE8  3630 0001:00172FF3  3631 0001:00172FFE  3637 0001:0017300F
  3638 0001:00173021  3652 0001:00173028  3653 0001:0017305F  3654 0001:00173067
  3656 0001:00173072  3661 0001:001730BB  3664 0001:001730FD  3666 0001:0017310A
  3668 0001:0017310F  3670 0001:00173117  3678 0001:00173123  3679 0001:0017312F
  3681 0001:00173153  3684 0001:00173175  3685 0001:00173181  3687 0001:00173189
  3712 0001:00173199  3713 0001:001731C1  3715 0001:001731DB  3717 0001:001731F1
  3718 0001:0017320C  3719 0001:0017321D  3723 0001:00173229  3724 0001:0017324B
  3729 0001:00173258  3732 0001:00173272  3734 0001:00173295  3735 0001:001732A0
  3736 0001:001732BD  3737 0001:001732C8  3738 0001:001732D3  3739 0001:001732E5
  3740 0001:001732F7  3741 0001:0017331D  3742 0001:00173327  3743 0001:00173332
  3744 0001:0017333D  3746 0001:00173398  3749 0001:0017339C  3750 0001:001733CC
  3752 0001:001733E5  3753 0001:001733F6  3755 0001:001733FB  3765 0001:0017341D
  3766 0001:00173429  3768 0001:00173441  3769 0001:0017344D  3772 0001:00173463
  3773 0001:00173475  3777 0001:001734DF  3778 0001:001734EB  3786 0001:00173508
  3787 0001:00173514  3788 0001:0017351F  3789 0001:00173530  3791 0001:00173547
  3793 0001:00173581  3802 0001:00173590  3803 0001:001735BC  3804 0001:001735D8
  3806 0001:001735DE  3810 0001:001735FD  3811 0001:00173605  3812 0001:00173620
  3814 0001:00173632  3815 0001:00173641  3817 0001:00173646  3820 0001:00173650
  3822 0001:00173659  3823 0001:0017366D  3825 0001:00173680  3826 0001:0017368E
  3828 0001:00173693  3830 0001:0017369F  3831 0001:001736D6  3832 0001:001736E4
  3834 0001:001736E9  3838 0001:00173708  3839 0001:0017370B  3841 0001:00173721
  3842 0001:00173740  3843 0001:0017374E  3845 0001:00173750  3846 0001:00173753
  3848 0001:0017376D  3849 0001:001737A0  3858 0001:001737A8  3859 0001:001737D4
  3860 0001:001737F0  3862 0001:001737F6  3866 0001:00173815  3867 0001:0017381D
  3868 0001:00173838  3870 0001:0017384A  3871 0001:00173858  3873 0001:0017385D
  3874 0001:00173863  3877 0001:0017386D  3879 0001:00173873  3880 0001:00173879
  3882 0001:001738B4  3884 0001:001738C0  3885 0001:001738CE  3887 0001:001738D3
  3891 0001:001738F2  3892 0001:001738F5  3893 0001:001738F8  3894 0001:001738FC
  3896 0001:00173926  3897 0001:00173946  3898 0001:00173954  3900 0001:00173956
  3901 0001:00173959  3902 0001:0017395C  3903 0001:00173960  3905 0001:00173966
  3906 0001:00173981  3907 0001:0017398F  3910 0001:001739A7  3911 0001:001739DB
  3919 0001:001739E4  3920 0001:00173A0F  3921 0001:00173A1A  3924 0001:00173A26
  3927 0001:00173A35  3928 0001:00173A42  3929 0001:00173A53  3933 0001:00173A5E
  3935 0001:00173A64  3938 0001:00173A73  3939 0001:00173A80  3940 0001:00173A93
  3944 0001:00173A9E  3947 0001:00173AA4  3949 0001:00173ADF  3952 0001:00173AF4
  3953 0001:00173B00  3954 0001:00173B28  3955 0001:00173B42  3956 0001:00173B4E
  3957 0001:00173B55  3958 0001:00173B61  3959 0001:00173B68  3970 0001:00173B6C
  3972 0001:00173B8B  3973 0001:00173B9A  3974 0001:00173BAF  3975 0001:00173BBA
  3976 0001:00173BD5  3979 0001:00173BE7  3980 0001:00173C0B  3981 0001:00173C16
  3982 0001:00173C5F  4019 0001:00173C64  4020 0001:00173C73  4021 0001:00173C84
  4024 0001:00173C8E  4026 0001:00173CAB  4028 0001:00173CB8  4029 0001:00173CBF
  4030 0001:00173CCF  4031 0001:00173CDB  4033 0001:00173CE7  4035 0001:00173D14
  4037 0001:00173D21  4039 0001:00173D33  4040 0001:00173D3E  4054 0001:00173D48
  4056 0001:00173D70  4058 0001:00173D7D  4059 0001:00173D8E  4062 0001:00173D98
  4064 0001:00173DA6  4065 0001:00173DB4  4067 0001:00173DBC  4069 0001:00173DCA
  4070 0001:00173DE2  4073 0001:00173DE8  4074 0001:00173DFB  4075 0001:00173E06
  4077 0001:00173E18  4081 0001:00173E3E  4084 0001:00173E58  4085 0001:00173E6A
  4086 0001:00173E74  4093 0001:00173E90  4094 0001:00173E98  4095 0001:00173EA6
  4096 0001:00173EBB  4097 0001:00173EC6  4099 0001:00173EEE  4101 0001:00173F08
  4104 0001:00173F13  4105 0001:00173F1F  4107 0001:00173F37  4108 0001:00173F43
  4110 0001:00173F59  4111 0001:00173F65  4113 0001:00173F6D  4114 0001:00173F79
  4116 0001:00173F85  4118 0001:00173F9D  4119 0001:00173FA8  4120 0001:00173FB3
  4121 0001:00173FBF  4122 0001:00173FCB  4123 0001:00173FDC  4127 0001:00173FE6
  4128 0001:00174023  4145 0001:0017404C  4147 0001:0017407D  4148 0001:001740A5
  4149 0001:001740CD  4151 0001:001740D5  4158 0001:0017410C  4165 0001:0017416E
  4166 0001:0017417B  4167 0001:00174181  4168 0001:00174187  4169 0001:0017419A
  4170 0001:001741CC  4172 0001:001741D7  4176 0001:001741E4  4177 0001:001741EC
  4179 0001:001741FF  4180 0001:0017421B  4181 0001:00174226  4184 0001:0017422C
  4188 0001:0017423F  4190 0001:00174247  4191 0001:0017424F  4192 0001:00174253
  4193 0001:0017425B  4194 0001:0017425F  4196 0001:00174267  4200 0001:00174297
  4201 0001:001742A2  4204 0001:001742A8  4211 0001:001742E5  4214 0001:001742F8
  4215 0001:00174309  4216 0001:00174315  4217 0001:0017431A  4219 0001:00174324
  4222 0001:00174332  4223 0001:00174340  4224 0001:0017434E  4225 0001:0017435C
  4226 0001:0017436A  4227 0001:00174378  4228 0001:00174386  4229 0001:00174394
  4230 0001:001743A2  4231 0001:001743BE  4234 0001:001743C4  4235 0001:001743DF
  4236 0001:001743E9  4237 0001:001743F6  4238 0001:00174410  4239 0001:0017441A
  4240 0001:00174421  4241 0001:0017442B  4242 0001:00174435  4243 0001:00174442
  4244 0001:0017444F  4245 0001:00174459  4246 0001:00174465  4247 0001:00174472
  4248 0001:0017447F  4249 0001:0017448C  4250 0001:001744A1  4252 0001:001744B7
  4253 0001:001744D3  4254 0001:001744EA  4255 0001:00174502  4256 0001:0017450F
  4257 0001:00174521  4258 0001:0017452C  4259 0001:00174541  4260 0001:0017454B
  4261 0001:00174555  4264 0001:00174564  4265 0001:0017456E  4266 0001:00174578
  4267 0001:00174585  4268 0001:00174591  4269 0001:0017459B  4270 0001:001745A5
  4271 0001:001745AF  4272 0001:001745B9  4274 0001:001745C3  4277 0001:001745D3
  4278 0001:001745E8  4280 0001:001745FE  4281 0001:00174608  4282 0001:00174612
  4283 0001:00174629  4284 0001:00174640  4286 0001:0017464C  4287 0001:00174657
  4288 0001:00174661  4289 0001:00174677  4290 0001:00174681  4291 0001:0017468B
  4292 0001:0017469C  4293 0001:001746BE  4294 0001:001746CE  4295 0001:001746E4
  4297 0001:00174719  4298 0001:00174731  4300 0001:0017473D  4301 0001:00174748
  4302 0001:0017475E  4303 0001:00174768  4304 0001:00174772  4305 0001:00174783
  4306 0001:001747A5  4307 0001:001747B5  4308 0001:001747CB  4310 0001:00174802
  4312 0001:0017481A  4314 0001:00174822  4315 0001:0017483C  4316 0001:00174846
  4318 0001:00174850  4319 0001:00174865  4320 0001:00174895  4323 0001:001748C8
  4324 0001:001748D4  4325 0001:001748E5  4329 0001:001748EC  4330 0001:001748F8
  4332 0001:0017490A  4335 0001:00174916  4337 0001:00174927  4339 0001:0017493E
  4340 0001:00174944  4341 0001:0017494F  4342 0001:0017495B  4343 0001:00174967
  4344 0001:0017497E  4347 0001:0017498A  4348 0001:00174992  4355 0001:001749A3
  4359 0001:001749A8  4360 0001:001749B4  4362 0001:001749C2  4364 0001:001749CE
  4365 0001:001749D6  4368 0001:001749E7  4371 0001:001749EC  4372 0001:001749F8
  4374 0001:00174A32  4375 0001:00174A4A  4377 0001:00174A55  4378 0001:00174A61
  4379 0001:00174A70  4380 0001:00174A7C  4381 0001:00174A8C  4382 0001:00174A98
  4383 0001:00174AA8  4384 0001:00174AB8  4388 0001:00174ACD  4390 0001:00174AE9
  4391 0001:00174AF4  4392 0001:00174B00  4393 0001:00174B0F  4394 0001:00174B1B
  4395 0001:00174B2B  4396 0001:00174B37  4397 0001:00174B47  4398 0001:00174B57
  4402 0001:00174B69  4404 0001:00174B75  4405 0001:00174B81  4406 0001:00174B90
  4407 0001:00174B9C  4408 0001:00174BAC  4409 0001:00174BB8  4410 0001:00174BC8
  4411 0001:00174BD4  4416 0001:00174BE4  4419 0001:00174BE8  4420 0001:00174BF4
  4422 0001:00174C02  4423 0001:00174C0E  4424 0001:00174C1A  4426 0001:00174C22
  4429 0001:00174C28  4430 0001:00174C35  4432 0001:00174C43  4434 0001:00174C4F
  4437 0001:00174C73  4440 0001:00174C78  4441 0001:00174C84  4443 0001:00174C92
  4445 0001:00174C9E  4446 0001:00174CAA  4447 0001:00174CB6  4449 0001:00174CC0
  4450 0001:00174CC8  4453 0001:00174CD0  4456 0001:00174CD4  4457 0001:00174CE1
  4459 0001:00174CEF  4461 0001:00174CFB  4464 0001:00174D1F  4468 0001:00174D24
  4469 0001:00174D30  4470 0001:00174D3B  4471 0001:00174D43  4472 0001:00174D4E
  4475 0001:00174D54  4476 0001:00174D60  4477 0001:00174D6B  4479 0001:00174D7C
  4482 0001:00174D80  4483 0001:00174D8C  4484 0001:00174D94  4489 0001:00174D98
  4490 0001:00174DA7  4491 0001:00174DB5  4494 0001:00174DBB  4496 0001:00174DC9
  4500 0001:00174DD6  4505 0001:00174DDC  4506 0001:00174DF3  4508 0001:00174E19
  4514 0001:00174E29  4515 0001:00174E65  4517 0001:00174E7E  4518 0001:00174E84
  4521 0001:00174E9D  4532 0001:00174EA4  4533 0001:00174EAE  4534 0001:00174EBE
  4535 0001:00174ED8  4536 0001:00174EE9  4537 0001:00174EF7  4553 0001:00174F03
  4554 0001:00174F1C  4558 0001:00174F26  4560 0001:00174F36  4561 0001:00174F5B
  4562 0001:00174F61  4564 0001:00174F6F  4565 0001:00174F7B  4566 0001:00174F97
  4568 0001:00174FA5  4569 0001:00174FB1  4570 0001:00174FBD  4571 0001:00174FC1
  4573 0001:00174FF1  4575 0001:00175001  4576 0001:00175031  4584 0001:00175106
  4586 0001:00175120  4596 0001:00175274  4597 0001:00175282  4599 0001:0017528F
  4600 0001:0017529B  4601 0001:001752A9  4602 0001:001752C5  4603 0001:001752D7
  4604 0001:001752E7  4606 0001:00175300  4607 0001:00175315  4608 0001:0017532A
  4610 0001:00175347  4613 0001:0017535C  4616 0001:00175364  4617 0001:00175370
  4618 0001:0017537D  4621 0001:00175394  4622 0001:001753A0  4624 0001:001753AE
  4625 0001:001753BA  4626 0001:001753C2  4628 0001:001753CA  4631 0001:001753D0
  4632 0001:001753DC  4634 0001:001753EA  4635 0001:001753F6  4637 0001:00175404
  4638 0001:0017540E  4640 0001:0017541A  4641 0001:00175433  4642 0001:0017543B
  4645 0001:00175443  4652 0001:00175450  4653 0001:0017545C  4654 0001:00175460
  4655 0001:00175464  4658 0001:0017549F  4659 0001:001754A3  4663 0001:001754B5
  4664 0001:001754B9  4668 0001:001754CB  4669 0001:001754CF  4673 0001:001754E6
  4674 0001:001754EA  4678 0001:00175501  4679 0001:00175505  4683 0001:00175511
  4684 0001:00175515  4688 0001:00175521  4689 0001:00175525  4693 0001:0017552C
  4694 0001:00175530  4698 0001:0017554C  4699 0001:00175550  4702 0001:0017555C
  4703 0001:00175576  4704 0001:0017558C  4711 0001:00175590  4712 0001:0017559C
  4713 0001:001755A0  4714 0001:001755A4  4717 0001:001755DF  4718 0001:001755E3
  4722 0001:001755F7  4723 0001:001755FB  4727 0001:0017560F  4728 0001:00175613
  4732 0001:00175635  4733 0001:00175639  4737 0001:00175656  4738 0001:0017565A
  4742 0001:00175666  4743 0001:0017566A  4747 0001:00175676  4748 0001:0017567A
  4752 0001:00175681  4753 0001:00175685  4757 0001:001756A6  4758 0001:001756AA
  4761 0001:001756B6  4762 0001:001756CD  4763 0001:001756E3  4766 0001:001756E8
  4767 0001:001756F4  4768 0001:00175703  4769 0001:00175712  4772 0001:00175718
  4773 0001:00175724  4775 0001:00175758  4776 0001:00175762  4777 0001:0017576C
  4778 0001:00175776  4781 0001:00175780  4783 0001:00175796  4785 0001:0017579E
  4791 0001:001757A4  4792 0001:001757B0  4793 0001:001757C4  4795 0001:001757D5
  4796 0001:001757DC  4797 0001:001757E9  4798 0001:00175803  4800 0001:00175809
  4801 0001:00175823  4802 0001:0017583A  4803 0001:00175851  4805 0001:0017586A
  4808 0001:00175870  4809 0001:0017587C  4810 0001:00175887  4813 0001:0017588C
  4814 0001:00175898  4816 0001:001758BA  4817 0001:001758C6  4818 0001:001758DD
  4820 0001:00175909  4821 0001:0017592F  4822 0001:00175937  4824 0001:0017593F
  4827 0001:00175944  4828 0001:00175950  4830 0001:00175962  4831 0001:00175968
  4832 0001:00175978  4834 0001:00175988  4836 0001:001759A6  4838 0001:001759D8
  4839 0001:00175A02  4840 0001:00175A0E  4845 0001:00175A1B  4847 0001:00175A27
  4848 0001:00175A4D  4849 0001:00175A55  4851 0001:00175A5D  4861 0001:00175A64
  4862 0001:00175A82  4865 0001:00175A92  4867 0001:00175AC5  4868 0001:00175AD6
  4870 0001:00175B2A  4871 0001:00175B6A  4875 0001:00175B89  4876 0001:00175BA3
  4878 0001:00175BAD  4880 0001:00175BC0  4881 0001:00175BC7  4882 0001:00175BCE
  4883 0001:00175BD3  4884 0001:00175BE5  4885 0001:00175BF1  4887 0001:00175BFD
  4889 0001:00175C09  4890 0001:00175C1B  4891 0001:00175C2B  4895 0001:00175C3D
  4896 0001:00175C4F  4897 0001:00175C5F  4899 0001:00175C75  4902 0001:00175C8E
  4903 0001:00175C9E  4908 0001:00175CB3  4910 0001:00175CC6  4912 0001:00175CD2
  4913 0001:00175CEF  4914 0001:00175CFF  4915 0001:00175D0F  4919 0001:00175D1C
  4920 0001:00175D2C  4921 0001:00175D3E  4922 0001:00175D45  4923 0001:00175D4C
  4924 0001:00175D51  4925 0001:00175D56  4926 0001:00175D6C  4930 0001:00175D82
  4931 0001:00175D8E  4955 0001:00175D9E  4957 0001:00175DB3  4959 0001:00175DC3
  4960 0001:00175DD2  4962 0001:00175E24  4963 0001:00175E64  4967 0001:00175E83
  4968 0001:00175E95  4969 0001:00175EA9  4974 0001:00175EE8  4976 0001:00175F1E
  4977 0001:00175F25  4978 0001:00175F2C  4979 0001:00175F31  4980 0001:00175F40
  4981 0001:00175F49  4983 0001:00175F55  4985 0001:00175F61  4986 0001:00175F73
  4987 0001:00175F83  4991 0001:00175F95  4992 0001:00175FA5  4993 0001:00175FB7
  4995 0001:00175FCD  4999 0001:00175FE6  5000 0001:00175FF0  5002 0001:00175FFC
  5003 0001:00176019  5004 0001:00176029  5008 0001:0017603E  5009 0001:0017604E
  5010 0001:00176060  5011 0001:00176067  5012 0001:0017606E  5013 0001:00176073
  5014 0001:00176078  5015 0001:0017608E  5020 0001:001760A4  5021 0001:001760B0
  5023 0001:001760C0  5024 0001:00176118  5025 0001:0017613D  5032 0001:00176144
  5033 0001:00176150  5034 0001:0017615B  5035 0001:00176177  5037 0001:0017619E
  5038 0001:001761AC  5039 0001:001761B4  5041 0001:001761C0  5042 0001:001761C5
  5043 0001:001761CD  5044 0001:001761E7  5046 0001:001761F5  5049 0001:001761FC
  5050 0001:00176208  5052 0001:00176216  5053 0001:00176222  5055 0001:0017622A
  5058 0001:00176230  5059 0001:00176237  5060 0001:0017624F  5062 0001:00176263
  5063 0001:00176276  5067 0001:00176280  5068 0001:00176289  5069 0001:00176291
  5070 0001:0017629C  5071 0001:001762A4  5072 0001:001762AC  5073 0001:001762CD
  5074 0001:001762D5  5075 0001:001762E0  5076 0001:001762EE  5077 0001:0017630E
  5080 0001:00176314  5081 0001:00176320  5083 0001:00176328  5087 0001:00176339
  5092 0001:00176340  5093 0001:00176362  5095 0001:0017636B  5099 0001:00176375
  5100 0001:00176391  5101 0001:0017639F  5103 0001:001763DE  5106 0001:001763E4
  5107 0001:00176403  5108 0001:0017643C  5111 0001:00176440  5112 0001:00176449
  5113 0001:00176458  5116 0001:0017645C  5117 0001:00176468  5119 0001:00176486
  5120 0001:00176492  5121 0001:0017649E  5123 0001:001764BE  5124 0001:001764CB
  5125 0001:001764F1  5128 0001:001764FB  5130 0001:00176507  5131 0001:00176513
  5132 0001:00176520  5133 0001:00176546  5135 0001:0017654E  5138 0001:00176554
  5139 0001:00176560  5141 0001:0017657A  5142 0001:00176586  5143 0001:0017658E
  5145 0001:001765B4  5162 0001:001765B8  5163 0001:001765C5  5164 0001:001765D0
  5165 0001:001765DA  5167 0001:001765E5  5169 0001:00176615  5176 0001:0017661C
  5177 0001:00176629  5178 0001:00176633  5180 0001:0017663E  5182 0001:0017666E
  5183 0001:00176679  5186 0001:00176680  5187 0001:00176688  5188 0001:00176695
  5189 0001:001766A7  5192 0001:001766AC  5193 0001:001766B4  5194 0001:001766C1
  5195 0001:001766D3  5198 0001:001766D8  5199 0001:001766E1  5200 0001:001766E9
  5201 0001:001766F7  5205 0001:00176705  5206 0001:0017670D  5208 0001:00176719
  5209 0001:00176731  5210 0001:00176739  5212 0001:00176752  5215 0001:00176758
  5216 0001:00176765  5218 0001:00176773  5220 0001:0017677F  5223 0001:001767AF
  5226 0001:001767B4  5227 0001:001767C1  5229 0001:001767CF  5230 0001:001767DB
  5232 0001:0017680B  5235 0001:00176810  5236 0001:0017681D  5238 0001:0017682B
  5239 0001:00176837  5241 0001:00176867  5244 0001:0017686C  5245 0001:00176878
  5246 0001:00176888  5247 0001:00176890  5250 0001:00176894  5251 0001:001768A0
  5252 0001:001768B0  5255 0001:001768B4  5256 0001:001768C0  5257 0001:001768CB
  5258 0001:001768E3  5259 0001:001768EB  5262 0001:001768F0  5263 0001:001768FC
  5264 0001:00176907  5265 0001:0017690F  5269 0001:00176914  5270 0001:00176923
  5272 0001:00176933  5273 0001:00176955  5275 0001:0017697B  5277 0001:00176988
  5278 0001:0017698E  5280 0001:00176996  5284 0001:0017699C  5285 0001:001769AB
  5287 0001:001769BB  5288 0001:001769C8  5289 0001:001769CE  5291 0001:001769D6
  5294 0001:001769DC  5295 0001:001769E8  5296 0001:001769F9  5299 0001:00176A00
  5300 0001:00176A0C  5301 0001:00176A1D  5304 0001:00176A24  5305 0001:00176A30
  5307 0001:00176A3C  5308 0001:00176A46  5309 0001:00176A64  5311 0001:00176A70
  5312 0001:00176A7F  5314 0001:00176A8B  5315 0001:00176A9A  5317 0001:00176AA4
  5318 0001:00176AAC  5319 0001:00176AB4  5323 0001:00176AB8  5324 0001:00176AC4
  5326 0001:00176AD2  5327 0001:00176ADE  5329 0001:00176AEA  5330 0001:00176AF2
  5333 0001:00176AFA  5347 0001:00176B00  5348 0001:00176B22  5350 0001:00176B32
  5351 0001:00176B3D  5352 0001:00176B65  5353 0001:00176B8D  5355 0001:00176B95
  5357 0001:00176BB1  5361 0001:00176BC3  5365 0001:00176BE4  5367 0001:00176C00
  5371 0001:00176C16  5372 0001:00176C32  5373 0001:00176C45  5375 0001:00176C61
  5377 0001:00176C7E  5381 0001:00176C8E  5382 0001:00176CD3  5384 0001:00176CE8
  5385 0001:00176CF9  5386 0001:00176D0A  5387 0001:00176D26  5388 0001:00176D5A
  5389 0001:00176D65  5390 0001:00176D70  5391 0001:00176D82  5392 0001:00176D94
  5394 0001:00176DC9  5397 0001:00176DD0  5398 0001:00176DD7  5400 0001:00176DE3
  5401 0001:00176DF5  5402 0001:00176E07  5403 0001:00176E19  5404 0001:00176E2B
  5405 0001:00176E35  5406 0001:00176E40  5408 0001:00176E51  5411 0001:00176E54
  5414 0001:00176E63  5416 0001:00176E71  5417 0001:00176E7D  5421 0001:00176E91
  5422 0001:00176EA3  5424 0001:00176EAF  5426 0001:00176ED9  5427 0001:00176EE5
  5431 0001:00176EF9  5432 0001:00176F0B  5434 0001:00176F17  5446 0001:00176F21
  5449 0001:00176F28  5450 0001:00176F47  5452 0001:00176F55  5453 0001:00176F61
  5461 0001:00176F6D  5462 0001:00176F79  5464 0001:00176F9C  5468 0001:00176FF2
  5473 0001:00176FF8  5474 0001:00177004  5476 0001:0017701C  5477 0001:0017702C
  5479 0001:00177036  5480 0001:0017703F  5481 0001:0017705F  5483 0001:00177071
  5484 0001:0017708A  5487 0001:0017708C  5488 0001:00177097  5503 0001:0017709C
  5505 0001:001770BF  5506 0001:001770CA  5511 0001:001770D3  5513 0001:001770E5
  5514 0001:001770F0  5517 0001:001770F5  5518 0001:00177106  5520 0001:00177116
  5524 0001:00177129  5525 0001:0017713A  5528 0001:0017714B  5529 0001:00177165
  5530 0001:00177176  5532 0001:0017719B  5533 0001:001771CF  5534 0001:001771D5
  5535 0001:001771F3  5536 0001:001771F9  5537 0001:0017723D  5544 0001:00177244
  5545 0001:0017726C  5547 0001:0017727C  5548 0001:0017728D  5549 0001:00177298
  5550 0001:001772B8  5552 0001:001772C6  5553 0001:001772FC  5554 0001:00177302
  5555 0001:0017731D  5556 0001:00177323  5557 0001:0017733F  5558 0001:00177374
  5563 0001:0017737C  5564 0001:00177383  5565 0001:001773B7  5569 0001:001773BC
  5570 0001:001773C8  5571 0001:001773CF  5572 0001:001773D5  5573 0001:001773DC
  5574 0001:001773E1  5576 0001:001773F4  5578 0001:001773FC  5580 0001:00177404
  5582 0001:0017740C  5584 0001:00177412  5585 0001:0017741D  5588 0001:00177424
  5589 0001:00177430  5590 0001:00177441  5593 0001:00177448  5594 0001:00177451
  5595 0001:00177463  5598 0001:00177468  5599 0001:00177471  5600 0001:00177485
  5603 0001:0017748C  5613 0001:00177493  5614 0001:001774AD  5623 0001:001774B0
  5624 0001:001774CF  5626 0001:001774E0  5630 0001:0017751B  5635 0001:00177520
  5636 0001:00177545  5637 0001:0017754A  5638 0001:00177560  5639 0001:00177586
  5641 0001:001775A0  5642 0001:001775B5  5643 0001:001775C0  5646 0001:001775CF
  5648 0001:001775D8  5649 0001:001775EC  5651 0001:001775F5  5652 0001:001775FD
  5657 0001:00177603  5662 0001:00177622  5663 0001:0017764A  5666 0001:00177650
  5667 0001:0017765C  5668 0001:0017766D  5671 0001:00177674  5672 0001:00177680
  5673 0001:00177691  5674 0001:00177699  5683 0001:001776A0  5684 0001:001776A9
  5686 0001:001776B9  5687 0001:001776C3  5688 0001:001776D0  5689 0001:001776E8
  5690 0001:001776F5  5691 0001:00177702  5693 0001:0017770D  5695 0001:00177719
  5696 0001:00177725  5698 0001:00177734  5701 0001:00177745  5703 0001:0017774A
  5704 0001:00177758  5705 0001:00177764  5707 0001:0017776C  5710 0001:00177770
  5711 0001:0017777C  5713 0001:0017778A  5714 0001:00177796  5715 0001:001777A2
  5717 0001:001777B3  5720 0001:001777B8  5721 0001:001777CC  5723 0001:001777D8
  5724 0001:001777E7  5726 0001:001777F6  5728 0001:00177802  5729 0001:00177811
  5731 0001:00177820  5732 0001:0017782B  5735 0001:00177834  5736 0001:00177843
  5739 0001:00177859  5742 0001:00177860  5743 0001:0017786C  5744 0001:00177877
  5745 0001:00177883  5746 0001:0017789C  5755 0001:001778A0  5756 0001:001778AF
  5757 0001:001778C5  5764 0001:001778CC  5765 0001:001778DB  5766 0001:001778E3
  5767 0001:001778F9  5768 0001:00177901  5771 0001:00177908  5773 0001:00177917
  5776 0001:0017791C  5777 0001:00177928  5778 0001:00177930  5781 0001:00177934
  5782 0001:0017793D  5783 0001:0017794C  5790 0001:00177950  5791 0001:00177979
  5794 0001:0017798C  5799 0001:0017799E  5801 0001:001779B0  5803 0001:001779DC
  5805 0001:001779E2  5806 0001:001779E8  5809 0001:001779F8  5810 0001:00177A01
  5820 0001:00177A0D  5821 0001:00177A2B  5830 0001:00177A51  5835 0001:00177A63
  5837 0001:00177A8B  5838 0001:00177A91  5841 0001:00177AA3  5842 0001:00177AB3
  5845 0001:00177AC7  5848 0001:00177AF0  5849 0001:00177B07  5855 0001:00177B5D
  5860 0001:00177B6C  5861 0001:00177B7C  5862 0001:00177B83  5863 0001:00177B8A
  5864 0001:00177B8F  5865 0001:00177B9C  5867 0001:00177BA8  5868 0001:00177BB3
  5869 0001:00177BDF  5872 0001:00177BE8  5873 0001:00177BEF  5876 0001:00177C31
  5877 0001:00177C39  5878 0001:00177C52  5882 0001:00177C65  5887 0001:00177C6C
  5888 0001:00177C95  5889 0001:00177CA7  5890 0001:00177CAF  5891 0001:00177CC2
  5892 0001:00177CF2  5893 0001:00177D11  5894 0001:00177D2E  5895 0001:00177D36
  5896 0001:00177D5F  5901 0001:00177D68  5902 0001:00177D91  5903 0001:00177DA7
  5904 0001:00177DCA  5907 0001:00177DD3  5908 0001:00177DF7  5910 0001:00177E1A
  5911 0001:00177E23  5912 0001:00177E59  5913 0001:00177E8C  5916 0001:00177E94
  5917 0001:00177E9E  5918 0001:00177EAA  5920 0001:00177EE3  5921 0001:00177EEB
  5926 0001:00177EF0  5927 0001:00177F00  5928 0001:00177F12  5929 0001:00177F1E
  5931 0001:00177F39  5932 0001:00177F41  5937 0001:00177F48  5938 0001:00177F58
  5939 0001:00177F6A  5941 0001:00177F76  5942 0001:00177F7C  5944 0001:00177F9F
  5948 0001:00177FBA  5949 0001:00177FD3  5950 0001:00177FDE  5952 0001:00177FE9
  5957 0001:00178014  5958 0001:00178021  5960 0001:00178039  5961 0001:0017803F
  5963 0001:00178054  5964 0001:0017808D  5965 0001:00178095  5966 0001:001780A0
  5976 0001:001780A8  5978 0001:001780CE  5979 0001:001780DF  5980 0001:001780EA
  5981 0001:001780F2  5982 0001:001780FC  5983 0001:00178107  5984 0001:0017810F
  5986 0001:00178122  5989 0001:0017812C  5990 0001:0017813B  5992 0001:0017814D
  5994 0001:00178152  5996 0001:00178186  5998 0001:001781C5  5999 0001:001781D3
  6000 0001:001781E2  6001 0001:001781F7  6002 0001:00178213  6005 0001:00178220
  6006 0001:00178234  6011 0001:0017824B  6012 0001:00178256  6014 0001:00178261
  6015 0001:0017826A  6016 0001:00178273  6018 0001:00178281  6020 0001:001782B8
  6026 0001:001782C8  6027 0001:001782D1  6028 0001:001782D9  6029 0001:001782E1
  6030 0001:001782EC  6031 0001:00178305  6032 0001:00178318  6033 0001:00178323
  6036 0001:00178328  6037 0001:00178330  6038 0001:00178338  6039 0001:00178342
  6040 0001:0017834E  6041 0001:0017835D  6042 0001:0017837C  6058 0001:00178380
  6059 0001:001783A2  6060 0001:001783AD  6061 0001:001783B2  6062 0001:001783C5
  6063 0001:001783F1  6065 0001:001783FC  6069 0001:00178409  6071 0001:0017841C
  6072 0001:00178432  6073 0001:0017843D  6076 0001:00178443  6080 0001:00178456
  6082 0001:0017845E  6083 0001:00178466  6084 0001:0017846A  6085 0001:00178472
  6086 0001:00178476  6087 0001:001784A3  6101 0001:001784A8  6102 0001:001784CB
  6104 0001:001784E7  6106 0001:001784FA  6107 0001:00178502  6108 0001:00178510
  6109 0001:00178518  6111 0001:00178523  6115 0001:0017852E  6116 0001:00178533
  6119 0001:00178542  6121 0001:0017854A  6123 0001:00178569  6127 0001:0017857C
  6128 0001:00178595  6129 0001:001785AB  6131 0001:001785C0  6132 0001:001785C4
  6133 0001:001785CD  6136 0001:001785EC  6137 0001:001785F9  6140 0001:00178616
  6142 0001:00178626  6143 0001:0017862E  6147 0001:0017863A  6148 0001:00178642
  6149 0001:00178650  6150 0001:00178658  6151 0001:00178663  6153 0001:00178687
  6157 0001:00178697  6159 0001:001786A6  6160 0001:001786B3  6164 0001:001786C2
  6165 0001:001786D0  6167 0001:00178703  6173 0001:00178708  6174 0001:0017872D
  6176 0001:0017873E  6177 0001:00178757  6178 0001:0017877A  6179 0001:00178787
  6180 0001:00178790  6181 0001:001787C5  6184 0001:001787D4  6185 0001:001787EC
  6187 0001:001787F6  6188 0001:00178808  6189 0001:00178835  6192 0001:0017883C
  6193 0001:0017884D  6194 0001:00178858  6195 0001:00178863  6196 0001:0017887F
  6199 0001:00178884  6200 0001:00178890  6201 0001:00178898  6202 0001:001788A6
  6203 0001:001788AE  6206 0001:001788B4  6207 0001:001788C3  6208 0001:001788CB
  6209 0001:001788DC  6210 0001:001788E4  6213 0001:001788E8  6214 0001:001788EF
  6215 0001:001788F7  6216 0001:001788FF  6217 0001:0017890A  6218 0001:00178912
  6227 0001:00178918  6228 0001:00178938  6229 0001:00178940  6230 0001:0017894E
  6231 0001:00178966  6233 0001:00178994  6235 0001:001789C1  6242 0001:001789C8
  6243 0001:001789D5  6244 0001:001789E1  6246 0001:001789EF  6247 0001:001789F4
  6248 0001:00178A05  6257 0001:00178A0C  6258 0001:00178A2F  6259 0001:00178A33
  6260 0001:00178A38  6261 0001:00178A44  6263 0001:00178A4C  6265 0001:00178A57
  6269 0001:00178A73  6271 0001:00178A82  6272 0001:00178A89  6274 0001:00178A8F
  6275 0001:00178A93  6279 0001:00178AAA  6280 0001:00178AD2  6296 0001:00178AD8
  6297 0001:00178AFB  6298 0001:00178B03  6301 0001:00178B16  6305 0001:00178B21
  6308 0001:00178B2C  6310 0001:00178B34  6312 0001:00178B53  6316 0001:00178B66
  6317 0001:00178B82  6318 0001:00178B98  6319 0001:00178BA3  6321 0001:00178BB8
  6322 0001:00178BBC  6323 0001:00178BC5  6326 0001:00178BE4  6327 0001:00178BF1
  6329 0001:00178C01  6331 0001:00178C0C  6332 0001:00178C31  6351 0001:00178C38
  6352 0001:00178C67  6353 0001:00178C6F  6354 0001:00178C76  6355 0001:00178C7A
  6356 0001:00178C85  6357 0001:00178C9F  6359 0001:00178CAD  6363 0001:00178CB8
  6365 0001:00178CC0  6367 0001:00178CDF  6371 0001:00178CF2  6373 0001:00178D07
  6374 0001:00178D13  6376 0001:00178D19  6379 0001:00178D1F  6380 0001:00178D2C
  6383 0001:00178D44  6384 0001:00178D5E  6389 0001:00178D74  6390 0001:00178D7F
  6391 0001:00178D85  6392 0001:00178D9E  6395 0001:00178DAD  6399 0001:00178DBC
  6400 0001:00178DD2  6401 0001:00178DDD  6402 0001:00178DE8  6404 0001:00178DEE
  6405 0001:00178DFC  6406 0001:00178E02  6407 0001:00178E05  6410 0001:00178E23
  6411 0001:00178E2E  6412 0001:00178E44  6413 0001:00178E7B  6423 0001:00178E90
  6424 0001:00178E9C  6425 0001:00178EA7  6432 0001:00178EAC  6433 0001:00178EBB
  6434 0001:00178ECD  6435 0001:00178ED7  6436 0001:00178EE5  6444 0001:00178EEC
  6445 0001:00178EFB  6446 0001:00178F0D  6447 0001:00178F17  6448 0001:00178F25
  6457 0001:00178F2C  6459 0001:00178F4C  6460 0001:00178F54  6461 0001:00178F6C
  6462 0001:00178FAD  6467 0001:00178FB4  6468 0001:00178FC0  6469 0001:00178FCF
  6470 0001:00178FE5  6471 0001:00178FF6  6474 0001:00178FFC  6475 0001:0017900B
  6476 0001:00179019  6479 0001:00179020  6480 0001:0017902C  6481 0001:0017903C
  6482 0001:00179051  6487 0001:00179058  6488 0001:00179061  6489 0001:00179077
  6490 0001:0017908F  6491 0001:00179097  6496 0001:0017909C  6497 0001:001790A8
  6499 0001:001790BA  6500 0001:001790C6  6501 0001:001790D8  6502 0001:001790EA
  6505 0001:001790FD  6506 0001:00179108  6511 0001:0017910C  6512 0001:00179124
  6513 0001:00179136  6514 0001:00179159  6517 0001:00179160  6519 0001:00179173
  6520 0001:00179192  6521 0001:001791AB  6527 0001:001791B0  6528 0001:001791E4
  6530 0001:001791ED  6531 0001:001791FC  6534 0001:0017920A  6535 0001:00179213
  6536 0001:00179222  6537 0001:00179231  6539 0001:0017923F  6541 0001:00179259
  6544 0001:00179283  6547 0001:0017928C  6548 0001:00179295  6549 0001:001792A8
  6552 0001:001792AC  6553 0001:001792B5  6554 0001:001792C6  6557 0001:001792CC
  6558 0001:001792D5  6559 0001:001792E6  6562 0001:001792EC  6563 0001:001792F8
  6565 0001:00179312  6566 0001:00179324  6568 0001:00179334  6569 0001:00179342
  6572 0001:00179348  6573 0001:00179354  6575 0001:0017935F  6576 0001:0017936D
  6577 0001:00179388  6579 0001:00179391  6582 0001:00179398  6583 0001:0017939F
  6584 0001:001793A5  6587 0001:001793A8  6588 0001:001793AF  6589 0001:001793B8
  6590 0001:001793BE  6593 0001:001793C4  6594 0001:001793C8  6595 0001:001793DF
  6597 0001:00179428

Line numbers for ElHotKey(ElHotKey.pas) segment .text

   170 0001:00179F30   171 0001:00179F42   172 0001:00179F4B   173 0001:00179F5B
   174 0001:00179F67   175 0001:00179F72   176 0001:00179F94   181 0001:00179FAC
   182 0001:00179FD0   183 0001:00179FDC   184 0001:00179FE9   185 0001:00179FF1
   186 0001:00179FF8   187 0001:0017A008   188 0001:0017A018   190 0001:0017A024
   193 0001:0017A02D   195 0001:0017A037   197 0001:0017A063   199 0001:0017A06A
   201 0001:0017A076   202 0001:0017A082   205 0001:0017A091   206 0001:0017A0A8
   207 0001:0017A0E7   210 0001:0017A104   211 0001:0017A123   212 0001:0017A12D
   213 0001:0017A136   214 0001:0017A13F   216 0001:0017A174   219 0001:0017A17C
   220 0001:0017A195   222 0001:0017A19E   223 0001:0017A1B6   225 0001:0017A1E0
   228 0001:0017A1E8   229 0001:0017A1FE   230 0001:0017A235   234 0001:0017A23C
   239 0001:0017A240   242 0001:0017A247   243 0001:0017A251   245 0001:0017A261
   250 0001:0017A268   253 0001:0017A26F   254 0001:0017A279   256 0001:0017A289
   260 0001:0017A290   261 0001:0017A295   266 0001:0017A298   267 0001:0017A2A0
   268 0001:0017A2AD   269 0001:0017A2B6   270 0001:0017A2C8   271 0001:0017A2CF
   272 0001:0017A2E1   273 0001:0017A2E8   274 0001:0017A2FA   275 0001:0017A301
   276 0001:0017A31C   277 0001:0017A32F   278 0001:0017A34A   279 0001:0017A35D
   280 0001:0017A378   281 0001:0017A38B   282 0001:0017A3A1   283 0001:0017A3AC
   284 0001:0017A3B3   285 0001:0017A3C8   290 0001:0017A3E0   291 0001:0017A401
   292 0001:0017A408   293 0001:0017A40F   294 0001:0017A421   304 0001:0017A45B
   309 0001:0017A464   310 0001:0017A46C   311 0001:0017A479   312 0001:0017A482
   313 0001:0017A494   314 0001:0017A49B   315 0001:0017A4AD   316 0001:0017A4B4
   317 0001:0017A4C6   318 0001:0017A4CD   319 0001:0017A4E8   320 0001:0017A4EF
   321 0001:0017A50A   322 0001:0017A511   323 0001:0017A52C   324 0001:0017A533
   325 0001:0017A540   326 0001:0017A547   327 0001:0017A54E   328 0001:0017A563
   333 0001:0017A570   334 0001:0017A578   335 0001:0017A57B   336 0001:0017A581
   337 0001:0017A583   339 0001:0017A599   342 0001:0017A5B1   343 0001:0017A5C3
   345 0001:0017A5C8   346 0001:0017A5DA   348 0001:0017A5DF   349 0001:0017A5F1
   351 0001:0017A5F4   353 0001:0017A607   354 0001:0017A610   356 0001:0017A615
   358 0001:0017A618   360 0001:0017A62B   361 0001:0017A634   363 0001:0017A639
   365 0001:0017A63C   367 0001:0017A64F   368 0001:0017A658   370 0001:0017A65D
   372 0001:0017A660   373 0001:0017A66C   374 0001:0017A678   376 0001:0017A686
   378 0001:0017A718

